
Debug/bin\POPBL.elf:     file format elf32-littlearm


Disassembly of section .text:

00000000 <g_pfnVectors>:
       0:	3c 28 00 20 39 49 00 00 a5 49 00 00 a5 49 00 00     <(. 9I...I...I..
      10:	a5 49 00 00 a5 49 00 00 a5 49 00 00 00 00 00 00     .I...I...I......
	...
      2c:	59 50 00 00 a5 49 00 00 00 00 00 00 5d 51 00 00     YP...I......]Q..
      3c:	99 51 00 00 a5 49 00 00 b9 58 00 00 39 5a 00 00     .Q...I...X..9Z..
      4c:	d9 0b 00 00 3d 46 00 00 a5 49 00 00 a5 49 00 00     ....=F...I...I..
      5c:	a5 49 00 00 a5 49 00 00 a5 49 00 00 a5 49 00 00     .I...I...I...I..
      6c:	a5 49 00 00 a5 49 00 00 a5 49 00 00 a5 49 00 00     .I...I...I...I..
      7c:	a5 49 00 00 a5 49 00 00 a5 49 00 00 a5 49 00 00     .I...I...I...I..
      8c:	a5 49 00 00 a5 49 00 00 a5 49 00 00 a5 49 00 00     .I...I...I...I..
      9c:	a5 49 00 00 a5 49 00 00 a5 49 00 00 a5 49 00 00     .I...I...I...I..
      ac:	a5 49 00 00 a5 49 00 00 a5 49 00 00 59 47 00 00     .I...I...I..YG..
      bc:	a5 49 00 00 a5 49 00 00 a5 49 00 00 a5 49 00 00     .I...I...I...I..
      cc:	a5 49 00 00 a5 49 00 00 a5 49 00 00 a5 49 00 00     .I...I...I...I..
      dc:	a5 49 00 00 a5 49 00 00 a5 49 00 00 a5 49 00 00     .I...I...I...I..
      ec:	a5 49 00 00 a5 49 00 00 a5 49 00 00 a5 49 00 00     .I...I...I...I..
      fc:	a5 49 00 00                                         .I..

00000100 <RECECPCION_INFRARROJOS_fev_flanco_positivo>:
     100:	b580      	push	{r7, lr}
     102:	b082      	sub	sp, #8
     104:	af00      	add	r7, sp, #0
     106:	f000 fb59 	bl	7bc <RECEPCION_INFRARROJOS_mirar_flanco_positivo>
     10a:	4603      	mov	r3, r0
     10c:	71fb      	strb	r3, [r7, #7]
     10e:	79fb      	ldrb	r3, [r7, #7]
     110:	4618      	mov	r0, r3
     112:	f107 0708 	add.w	r7, r7, #8
     116:	46bd      	mov	sp, r7
     118:	bd80      	pop	{r7, pc}
     11a:	bf00      	nop

0000011c <RECECPCION_INFRARROJOS_fev_flanco_t_corto_min>:
     11c:	b580      	push	{r7, lr}
     11e:	af00      	add	r7, sp, #0
     120:	f001 fb62 	bl	17e8 <SYSTEM_TICK_coger_valor_ticks>
     124:	4602      	mov	r2, r0
     126:	f641 4300 	movw	r3, #7168	; 0x1c00
     12a:	f2c2 0300 	movt	r3, #8192	; 0x2000
     12e:	601a      	str	r2, [r3, #0]
     130:	f641 33fc 	movw	r3, #7164	; 0x1bfc
     134:	f2c2 0300 	movt	r3, #8192	; 0x2000
     138:	681a      	ldr	r2, [r3, #0]
     13a:	f641 4300 	movw	r3, #7168	; 0x1c00
     13e:	f2c2 0300 	movt	r3, #8192	; 0x2000
     142:	681b      	ldr	r3, [r3, #0]
     144:	1ad2      	subs	r2, r2, r3
     146:	f240 6314 	movw	r3, #1556	; 0x614
     14a:	f2c2 0300 	movt	r3, #8192	; 0x2000
     14e:	681b      	ldr	r3, [r3, #0]
     150:	f44f 51fa 	mov.w	r1, #8000	; 0x1f40
     154:	fb01 f303 	mul.w	r3, r1, r3
     158:	18d2      	adds	r2, r2, r3
     15a:	f64f 437f 	movw	r3, #64639	; 0xfc7f
     15e:	f2c0 030a 	movt	r3, #10
     162:	429a      	cmp	r2, r3
     164:	d802      	bhi.n	16c <RECECPCION_INFRARROJOS_fev_flanco_t_corto_min+0x50>
     166:	f04f 0301 	mov.w	r3, #1
     16a:	e001      	b.n	170 <RECECPCION_INFRARROJOS_fev_flanco_t_corto_min+0x54>
     16c:	f04f 0300 	mov.w	r3, #0
     170:	4618      	mov	r0, r3
     172:	bd80      	pop	{r7, pc}

00000174 <RECECPCION_INFRARROJOS_fev_flanco_positivo_t_corto_ok>:
     174:	b580      	push	{r7, lr}
     176:	b082      	sub	sp, #8
     178:	af00      	add	r7, sp, #0
     17a:	f000 fb1f 	bl	7bc <RECEPCION_INFRARROJOS_mirar_flanco_positivo>
     17e:	4603      	mov	r3, r0
     180:	71fb      	strb	r3, [r7, #7]
     182:	f001 fb31 	bl	17e8 <SYSTEM_TICK_coger_valor_ticks>
     186:	4602      	mov	r2, r0
     188:	f641 4300 	movw	r3, #7168	; 0x1c00
     18c:	f2c2 0300 	movt	r3, #8192	; 0x2000
     190:	601a      	str	r2, [r3, #0]
     192:	f641 33fc 	movw	r3, #7164	; 0x1bfc
     196:	f2c2 0300 	movt	r3, #8192	; 0x2000
     19a:	681a      	ldr	r2, [r3, #0]
     19c:	f641 4300 	movw	r3, #7168	; 0x1c00
     1a0:	f2c2 0300 	movt	r3, #8192	; 0x2000
     1a4:	681b      	ldr	r3, [r3, #0]
     1a6:	1ad2      	subs	r2, r2, r3
     1a8:	f240 6314 	movw	r3, #1556	; 0x614
     1ac:	f2c2 0300 	movt	r3, #8192	; 0x2000
     1b0:	681b      	ldr	r3, [r3, #0]
     1b2:	f44f 51fa 	mov.w	r1, #8000	; 0x1f40
     1b6:	fb01 f303 	mul.w	r3, r1, r3
     1ba:	18d2      	adds	r2, r2, r3
     1bc:	f64f 4380 	movw	r3, #64640	; 0xfc80
     1c0:	f2c0 030a 	movt	r3, #10
     1c4:	429a      	cmp	r2, r3
     1c6:	d91c      	bls.n	202 <RECECPCION_INFRARROJOS_fev_flanco_positivo_t_corto_ok+0x8e>
     1c8:	f641 33fc 	movw	r3, #7164	; 0x1bfc
     1cc:	f2c2 0300 	movt	r3, #8192	; 0x2000
     1d0:	681a      	ldr	r2, [r3, #0]
     1d2:	f641 4300 	movw	r3, #7168	; 0x1c00
     1d6:	f2c2 0300 	movt	r3, #8192	; 0x2000
     1da:	681b      	ldr	r3, [r3, #0]
     1dc:	1ad2      	subs	r2, r2, r3
     1de:	f240 6314 	movw	r3, #1556	; 0x614
     1e2:	f2c2 0300 	movt	r3, #8192	; 0x2000
     1e6:	681b      	ldr	r3, [r3, #0]
     1e8:	f44f 51fa 	mov.w	r1, #8000	; 0x1f40
     1ec:	fb01 f303 	mul.w	r3, r1, r3
     1f0:	18d2      	adds	r2, r2, r3
     1f2:	f64b 339f 	movw	r3, #48031	; 0xbb9f
     1f6:	f2c0 030d 	movt	r3, #13
     1fa:	429a      	cmp	r2, r3
     1fc:	d801      	bhi.n	202 <RECECPCION_INFRARROJOS_fev_flanco_positivo_t_corto_ok+0x8e>
     1fe:	79fb      	ldrb	r3, [r7, #7]
     200:	e001      	b.n	206 <RECECPCION_INFRARROJOS_fev_flanco_positivo_t_corto_ok+0x92>
     202:	f04f 0300 	mov.w	r3, #0
     206:	4618      	mov	r0, r3
     208:	f107 0708 	add.w	r7, r7, #8
     20c:	46bd      	mov	sp, r7
     20e:	bd80      	pop	{r7, pc}

00000210 <RECECPCION_INFRARROJOS_fev_flanco_t_largo_min>:
     210:	b580      	push	{r7, lr}
     212:	af00      	add	r7, sp, #0
     214:	f001 fae8 	bl	17e8 <SYSTEM_TICK_coger_valor_ticks>
     218:	4602      	mov	r2, r0
     21a:	f641 4300 	movw	r3, #7168	; 0x1c00
     21e:	f2c2 0300 	movt	r3, #8192	; 0x2000
     222:	601a      	str	r2, [r3, #0]
     224:	f641 33fc 	movw	r3, #7164	; 0x1bfc
     228:	f2c2 0300 	movt	r3, #8192	; 0x2000
     22c:	681a      	ldr	r2, [r3, #0]
     22e:	f641 4300 	movw	r3, #7168	; 0x1c00
     232:	f2c2 0300 	movt	r3, #8192	; 0x2000
     236:	681b      	ldr	r3, [r3, #0]
     238:	1ad2      	subs	r2, r2, r3
     23a:	f240 6314 	movw	r3, #1556	; 0x614
     23e:	f2c2 0300 	movt	r3, #8192	; 0x2000
     242:	681b      	ldr	r3, [r3, #0]
     244:	f44f 51fa 	mov.w	r1, #8000	; 0x1f40
     248:	fb01 f303 	mul.w	r3, r1, r3
     24c:	18d2      	adds	r2, r2, r3
     24e:	f243 137f 	movw	r3, #12671	; 0x317f
     252:	f2c0 0317 	movt	r3, #23
     256:	429a      	cmp	r2, r3
     258:	d802      	bhi.n	260 <RECECPCION_INFRARROJOS_fev_flanco_t_largo_min+0x50>
     25a:	f04f 0301 	mov.w	r3, #1
     25e:	e001      	b.n	264 <RECECPCION_INFRARROJOS_fev_flanco_t_largo_min+0x54>
     260:	f04f 0300 	mov.w	r3, #0
     264:	4618      	mov	r0, r3
     266:	bd80      	pop	{r7, pc}

00000268 <RECECPCION_INFRARROJOS_fev_flanco_positivo_t_largo_ok>:
     268:	b580      	push	{r7, lr}
     26a:	b082      	sub	sp, #8
     26c:	af00      	add	r7, sp, #0
     26e:	f000 faa5 	bl	7bc <RECEPCION_INFRARROJOS_mirar_flanco_positivo>
     272:	4603      	mov	r3, r0
     274:	71fb      	strb	r3, [r7, #7]
     276:	f001 fab7 	bl	17e8 <SYSTEM_TICK_coger_valor_ticks>
     27a:	4602      	mov	r2, r0
     27c:	f641 4300 	movw	r3, #7168	; 0x1c00
     280:	f2c2 0300 	movt	r3, #8192	; 0x2000
     284:	601a      	str	r2, [r3, #0]
     286:	f641 33fc 	movw	r3, #7164	; 0x1bfc
     28a:	f2c2 0300 	movt	r3, #8192	; 0x2000
     28e:	681a      	ldr	r2, [r3, #0]
     290:	f641 4300 	movw	r3, #7168	; 0x1c00
     294:	f2c2 0300 	movt	r3, #8192	; 0x2000
     298:	681b      	ldr	r3, [r3, #0]
     29a:	1ad2      	subs	r2, r2, r3
     29c:	f240 6314 	movw	r3, #1556	; 0x614
     2a0:	f2c2 0300 	movt	r3, #8192	; 0x2000
     2a4:	681b      	ldr	r3, [r3, #0]
     2a6:	f44f 51fa 	mov.w	r1, #8000	; 0x1f40
     2aa:	fb01 f303 	mul.w	r3, r1, r3
     2ae:	18d2      	adds	r2, r2, r3
     2b0:	f44f 5346 	mov.w	r3, #12672	; 0x3180
     2b4:	f2c0 0317 	movt	r3, #23
     2b8:	429a      	cmp	r2, r3
     2ba:	d91c      	bls.n	2f6 <RECECPCION_INFRARROJOS_fev_flanco_positivo_t_largo_ok+0x8e>
     2bc:	f641 33fc 	movw	r3, #7164	; 0x1bfc
     2c0:	f2c2 0300 	movt	r3, #8192	; 0x2000
     2c4:	681a      	ldr	r2, [r3, #0]
     2c6:	f641 4300 	movw	r3, #7168	; 0x1c00
     2ca:	f2c2 0300 	movt	r3, #8192	; 0x2000
     2ce:	681b      	ldr	r3, [r3, #0]
     2d0:	1ad2      	subs	r2, r2, r3
     2d2:	f240 6314 	movw	r3, #1556	; 0x614
     2d6:	f2c2 0300 	movt	r3, #8192	; 0x2000
     2da:	681b      	ldr	r3, [r3, #0]
     2dc:	f44f 51fa 	mov.w	r1, #8000	; 0x1f40
     2e0:	fb01 f303 	mul.w	r3, r1, r3
     2e4:	18d2      	adds	r2, r2, r3
     2e6:	f247 733f 	movw	r3, #30527	; 0x773f
     2ea:	f2c0 031b 	movt	r3, #27
     2ee:	429a      	cmp	r2, r3
     2f0:	d801      	bhi.n	2f6 <RECECPCION_INFRARROJOS_fev_flanco_positivo_t_largo_ok+0x8e>
     2f2:	79fb      	ldrb	r3, [r7, #7]
     2f4:	e001      	b.n	2fa <RECECPCION_INFRARROJOS_fev_flanco_positivo_t_largo_ok+0x92>
     2f6:	f04f 0300 	mov.w	r3, #0
     2fa:	4618      	mov	r0, r3
     2fc:	f107 0708 	add.w	r7, r7, #8
     300:	46bd      	mov	sp, r7
     302:	bd80      	pop	{r7, pc}

00000304 <RECECPCION_INFRARROJOS_fev_flanco_negativo>:
     304:	b580      	push	{r7, lr}
     306:	b082      	sub	sp, #8
     308:	af00      	add	r7, sp, #0
     30a:	f000 fa6f 	bl	7ec <RECEPCION_INFRARROJOS_mirar_flanco_negativo>
     30e:	4603      	mov	r3, r0
     310:	71fb      	strb	r3, [r7, #7]
     312:	79fb      	ldrb	r3, [r7, #7]
     314:	4618      	mov	r0, r3
     316:	f107 0708 	add.w	r7, r7, #8
     31a:	46bd      	mov	sp, r7
     31c:	bd80      	pop	{r7, pc}
     31e:	bf00      	nop

00000320 <RECECPCION_INFRARROJOS_fev_flanco_negativo_t_corto_ok>:
     320:	b580      	push	{r7, lr}
     322:	b082      	sub	sp, #8
     324:	af00      	add	r7, sp, #0
     326:	f000 fa61 	bl	7ec <RECEPCION_INFRARROJOS_mirar_flanco_negativo>
     32a:	4603      	mov	r3, r0
     32c:	71fb      	strb	r3, [r7, #7]
     32e:	f001 fa5b 	bl	17e8 <SYSTEM_TICK_coger_valor_ticks>
     332:	4602      	mov	r2, r0
     334:	f641 4300 	movw	r3, #7168	; 0x1c00
     338:	f2c2 0300 	movt	r3, #8192	; 0x2000
     33c:	601a      	str	r2, [r3, #0]
     33e:	f641 33fc 	movw	r3, #7164	; 0x1bfc
     342:	f2c2 0300 	movt	r3, #8192	; 0x2000
     346:	681a      	ldr	r2, [r3, #0]
     348:	f641 4300 	movw	r3, #7168	; 0x1c00
     34c:	f2c2 0300 	movt	r3, #8192	; 0x2000
     350:	681b      	ldr	r3, [r3, #0]
     352:	1ad2      	subs	r2, r2, r3
     354:	f240 6314 	movw	r3, #1556	; 0x614
     358:	f2c2 0300 	movt	r3, #8192	; 0x2000
     35c:	681b      	ldr	r3, [r3, #0]
     35e:	f44f 51fa 	mov.w	r1, #8000	; 0x1f40
     362:	fb01 f303 	mul.w	r3, r1, r3
     366:	18d2      	adds	r2, r2, r3
     368:	f64f 4380 	movw	r3, #64640	; 0xfc80
     36c:	f2c0 030a 	movt	r3, #10
     370:	429a      	cmp	r2, r3
     372:	d91c      	bls.n	3ae <RECECPCION_INFRARROJOS_fev_flanco_negativo_t_corto_ok+0x8e>
     374:	f641 33fc 	movw	r3, #7164	; 0x1bfc
     378:	f2c2 0300 	movt	r3, #8192	; 0x2000
     37c:	681a      	ldr	r2, [r3, #0]
     37e:	f641 4300 	movw	r3, #7168	; 0x1c00
     382:	f2c2 0300 	movt	r3, #8192	; 0x2000
     386:	681b      	ldr	r3, [r3, #0]
     388:	1ad2      	subs	r2, r2, r3
     38a:	f240 6314 	movw	r3, #1556	; 0x614
     38e:	f2c2 0300 	movt	r3, #8192	; 0x2000
     392:	681b      	ldr	r3, [r3, #0]
     394:	f44f 51fa 	mov.w	r1, #8000	; 0x1f40
     398:	fb01 f303 	mul.w	r3, r1, r3
     39c:	18d2      	adds	r2, r2, r3
     39e:	f64b 339f 	movw	r3, #48031	; 0xbb9f
     3a2:	f2c0 030d 	movt	r3, #13
     3a6:	429a      	cmp	r2, r3
     3a8:	d801      	bhi.n	3ae <RECECPCION_INFRARROJOS_fev_flanco_negativo_t_corto_ok+0x8e>
     3aa:	79fb      	ldrb	r3, [r7, #7]
     3ac:	e001      	b.n	3b2 <RECECPCION_INFRARROJOS_fev_flanco_negativo_t_corto_ok+0x92>
     3ae:	f04f 0300 	mov.w	r3, #0
     3b2:	4618      	mov	r0, r3
     3b4:	f107 0708 	add.w	r7, r7, #8
     3b8:	46bd      	mov	sp, r7
     3ba:	bd80      	pop	{r7, pc}

000003bc <RECECPCION_INFRARROJOS_fev_flanco_negativo_t_largo_ok>:
     3bc:	b580      	push	{r7, lr}
     3be:	b082      	sub	sp, #8
     3c0:	af00      	add	r7, sp, #0
     3c2:	f000 fa13 	bl	7ec <RECEPCION_INFRARROJOS_mirar_flanco_negativo>
     3c6:	4603      	mov	r3, r0
     3c8:	71fb      	strb	r3, [r7, #7]
     3ca:	f001 fa0d 	bl	17e8 <SYSTEM_TICK_coger_valor_ticks>
     3ce:	4602      	mov	r2, r0
     3d0:	f641 4300 	movw	r3, #7168	; 0x1c00
     3d4:	f2c2 0300 	movt	r3, #8192	; 0x2000
     3d8:	601a      	str	r2, [r3, #0]
     3da:	f641 33fc 	movw	r3, #7164	; 0x1bfc
     3de:	f2c2 0300 	movt	r3, #8192	; 0x2000
     3e2:	681a      	ldr	r2, [r3, #0]
     3e4:	f641 4300 	movw	r3, #7168	; 0x1c00
     3e8:	f2c2 0300 	movt	r3, #8192	; 0x2000
     3ec:	681b      	ldr	r3, [r3, #0]
     3ee:	1ad2      	subs	r2, r2, r3
     3f0:	f240 6314 	movw	r3, #1556	; 0x614
     3f4:	f2c2 0300 	movt	r3, #8192	; 0x2000
     3f8:	681b      	ldr	r3, [r3, #0]
     3fa:	f44f 51fa 	mov.w	r1, #8000	; 0x1f40
     3fe:	fb01 f303 	mul.w	r3, r1, r3
     402:	18d2      	adds	r2, r2, r3
     404:	f44f 5346 	mov.w	r3, #12672	; 0x3180
     408:	f2c0 0317 	movt	r3, #23
     40c:	429a      	cmp	r2, r3
     40e:	d91c      	bls.n	44a <RECECPCION_INFRARROJOS_fev_flanco_negativo_t_largo_ok+0x8e>
     410:	f641 33fc 	movw	r3, #7164	; 0x1bfc
     414:	f2c2 0300 	movt	r3, #8192	; 0x2000
     418:	681a      	ldr	r2, [r3, #0]
     41a:	f641 4300 	movw	r3, #7168	; 0x1c00
     41e:	f2c2 0300 	movt	r3, #8192	; 0x2000
     422:	681b      	ldr	r3, [r3, #0]
     424:	1ad2      	subs	r2, r2, r3
     426:	f240 6314 	movw	r3, #1556	; 0x614
     42a:	f2c2 0300 	movt	r3, #8192	; 0x2000
     42e:	681b      	ldr	r3, [r3, #0]
     430:	f44f 51fa 	mov.w	r1, #8000	; 0x1f40
     434:	fb01 f303 	mul.w	r3, r1, r3
     438:	18d2      	adds	r2, r2, r3
     43a:	f247 733f 	movw	r3, #30527	; 0x773f
     43e:	f2c0 031b 	movt	r3, #27
     442:	429a      	cmp	r2, r3
     444:	d801      	bhi.n	44a <RECECPCION_INFRARROJOS_fev_flanco_negativo_t_largo_ok+0x8e>
     446:	79fb      	ldrb	r3, [r7, #7]
     448:	e001      	b.n	44e <RECECPCION_INFRARROJOS_fev_flanco_negativo_t_largo_ok+0x92>
     44a:	f04f 0300 	mov.w	r3, #0
     44e:	4618      	mov	r0, r3
     450:	f107 0708 	add.w	r7, r7, #8
     454:	46bd      	mov	sp, r7
     456:	bd80      	pop	{r7, pc}

00000458 <RECECPCION_INFRARROJOS_fev_izquierda_pulsado>:
     458:	b480      	push	{r7}
     45a:	b083      	sub	sp, #12
     45c:	af00      	add	r7, sp, #0
     45e:	f641 33c2 	movw	r3, #7106	; 0x1bc2
     462:	f2c2 0300 	movt	r3, #8192	; 0x2000
     466:	781b      	ldrb	r3, [r3, #0]
     468:	71fb      	strb	r3, [r7, #7]
     46a:	f641 33c2 	movw	r3, #7106	; 0x1bc2
     46e:	f2c2 0300 	movt	r3, #8192	; 0x2000
     472:	f04f 0200 	mov.w	r2, #0
     476:	701a      	strb	r2, [r3, #0]
     478:	79fb      	ldrb	r3, [r7, #7]
     47a:	4618      	mov	r0, r3
     47c:	f107 070c 	add.w	r7, r7, #12
     480:	46bd      	mov	sp, r7
     482:	bc80      	pop	{r7}
     484:	4770      	bx	lr
     486:	bf00      	nop

00000488 <RECECPCION_INFRARROJOS_fev_derecha_pulsado>:
     488:	b480      	push	{r7}
     48a:	b083      	sub	sp, #12
     48c:	af00      	add	r7, sp, #0
     48e:	f641 33c3 	movw	r3, #7107	; 0x1bc3
     492:	f2c2 0300 	movt	r3, #8192	; 0x2000
     496:	781b      	ldrb	r3, [r3, #0]
     498:	71fb      	strb	r3, [r7, #7]
     49a:	f641 33c3 	movw	r3, #7107	; 0x1bc3
     49e:	f2c2 0300 	movt	r3, #8192	; 0x2000
     4a2:	f04f 0200 	mov.w	r2, #0
     4a6:	701a      	strb	r2, [r3, #0]
     4a8:	79fb      	ldrb	r3, [r7, #7]
     4aa:	4618      	mov	r0, r3
     4ac:	f107 070c 	add.w	r7, r7, #12
     4b0:	46bd      	mov	sp, r7
     4b2:	bc80      	pop	{r7}
     4b4:	4770      	bx	lr
     4b6:	bf00      	nop

000004b8 <RECECPCION_INFRARROJOS_fac_leer_on>:
     4b8:	b580      	push	{r7, lr}
     4ba:	af00      	add	r7, sp, #0
     4bc:	f240 631c 	movw	r3, #1564	; 0x61c
     4c0:	f2c2 0300 	movt	r3, #8192	; 0x2000
     4c4:	f04f 0201 	mov.w	r2, #1
     4c8:	601a      	str	r2, [r3, #0]
     4ca:	f000 f945 	bl	758 <RECEPCION_INFRARROJOS_coger_tiempo_actual>
     4ce:	f000 f969 	bl	7a4 <RECEPCION_INFRARROJOS_dormir_tarea_90ms>
     4d2:	bd80      	pop	{r7, pc}

000004d4 <RECECPCION_INFRARROJOS_fac_leer_off>:
     4d4:	b580      	push	{r7, lr}
     4d6:	af00      	add	r7, sp, #0
     4d8:	f240 631c 	movw	r3, #1564	; 0x61c
     4dc:	f2c2 0300 	movt	r3, #8192	; 0x2000
     4e0:	f04f 0202 	mov.w	r2, #2
     4e4:	601a      	str	r2, [r3, #0]
     4e6:	f000 f937 	bl	758 <RECEPCION_INFRARROJOS_coger_tiempo_actual>
     4ea:	f000 f94f 	bl	78c <RECEPCION_INFRARROJOS_dormir_tarea_190ms>
     4ee:	bd80      	pop	{r7, pc}

000004f0 <RECECPCION_INFRARROJOS_fac_leer_on_2>:
     4f0:	b580      	push	{r7, lr}
     4f2:	af00      	add	r7, sp, #0
     4f4:	f240 631c 	movw	r3, #1564	; 0x61c
     4f8:	f2c2 0300 	movt	r3, #8192	; 0x2000
     4fc:	f04f 0203 	mov.w	r2, #3
     500:	601a      	str	r2, [r3, #0]
     502:	f000 f929 	bl	758 <RECEPCION_INFRARROJOS_coger_tiempo_actual>
     506:	f000 f941 	bl	78c <RECEPCION_INFRARROJOS_dormir_tarea_190ms>
     50a:	bd80      	pop	{r7, pc}

0000050c <RECECPCION_INFRARROJOS_fac_leer_off_2>:
     50c:	b580      	push	{r7, lr}
     50e:	af00      	add	r7, sp, #0
     510:	f240 631c 	movw	r3, #1564	; 0x61c
     514:	f2c2 0300 	movt	r3, #8192	; 0x2000
     518:	f04f 0204 	mov.w	r2, #4
     51c:	601a      	str	r2, [r3, #0]
     51e:	f000 f91b 	bl	758 <RECEPCION_INFRARROJOS_coger_tiempo_actual>
     522:	f000 f93f 	bl	7a4 <RECEPCION_INFRARROJOS_dormir_tarea_90ms>
     526:	bd80      	pop	{r7, pc}

00000528 <RECECPCION_INFRARROJOS_fac_leer_on_4>:
     528:	b580      	push	{r7, lr}
     52a:	af00      	add	r7, sp, #0
     52c:	f240 631c 	movw	r3, #1564	; 0x61c
     530:	f2c2 0300 	movt	r3, #8192	; 0x2000
     534:	f04f 020a 	mov.w	r2, #10
     538:	601a      	str	r2, [r3, #0]
     53a:	f000 f90d 	bl	758 <RECEPCION_INFRARROJOS_coger_tiempo_actual>
     53e:	f000 f931 	bl	7a4 <RECEPCION_INFRARROJOS_dormir_tarea_90ms>
     542:	bd80      	pop	{r7, pc}

00000544 <RECECPCION_INFRARROJOS_fac_leer_off_3>:
     544:	b580      	push	{r7, lr}
     546:	af00      	add	r7, sp, #0
     548:	f240 631c 	movw	r3, #1564	; 0x61c
     54c:	f2c2 0300 	movt	r3, #8192	; 0x2000
     550:	f04f 0207 	mov.w	r2, #7
     554:	601a      	str	r2, [r3, #0]
     556:	f000 f8ff 	bl	758 <RECEPCION_INFRARROJOS_coger_tiempo_actual>
     55a:	f000 f923 	bl	7a4 <RECEPCION_INFRARROJOS_dormir_tarea_90ms>
     55e:	bd80      	pop	{r7, pc}

00000560 <RECECPCION_INFRARROJOS_fac_leer_on_3>:
     560:	b580      	push	{r7, lr}
     562:	af00      	add	r7, sp, #0
     564:	f240 631c 	movw	r3, #1564	; 0x61c
     568:	f2c2 0300 	movt	r3, #8192	; 0x2000
     56c:	f04f 0208 	mov.w	r2, #8
     570:	601a      	str	r2, [r3, #0]
     572:	f000 f8f1 	bl	758 <RECEPCION_INFRARROJOS_coger_tiempo_actual>
     576:	f000 f909 	bl	78c <RECEPCION_INFRARROJOS_dormir_tarea_190ms>
     57a:	bd80      	pop	{r7, pc}

0000057c <RECECPCION_INFRARROJOS_fac_leer_off_4>:
     57c:	b580      	push	{r7, lr}
     57e:	af00      	add	r7, sp, #0
     580:	f240 631c 	movw	r3, #1564	; 0x61c
     584:	f2c2 0300 	movt	r3, #8192	; 0x2000
     588:	f04f 0209 	mov.w	r2, #9
     58c:	601a      	str	r2, [r3, #0]
     58e:	f000 f8e3 	bl	758 <RECEPCION_INFRARROJOS_coger_tiempo_actual>
     592:	f000 f8fb 	bl	78c <RECEPCION_INFRARROJOS_dormir_tarea_190ms>
     596:	bd80      	pop	{r7, pc}

00000598 <RECECPCION_INFRARROJOS_fac_activar>:
     598:	b580      	push	{r7, lr}
     59a:	af00      	add	r7, sp, #0
     59c:	f240 6320 	movw	r3, #1568	; 0x620
     5a0:	f2c2 0300 	movt	r3, #8192	; 0x2000
     5a4:	f04f 0200 	mov.w	r2, #0
     5a8:	601a      	str	r2, [r3, #0]
     5aa:	f240 631c 	movw	r3, #1564	; 0x61c
     5ae:	f2c2 0300 	movt	r3, #8192	; 0x2000
     5b2:	f04f 0206 	mov.w	r2, #6
     5b6:	601a      	str	r2, [r3, #0]
     5b8:	f240 6318 	movw	r3, #1560	; 0x618
     5bc:	f2c2 0300 	movt	r3, #8192	; 0x2000
     5c0:	f04f 0201 	mov.w	r2, #1
     5c4:	701a      	strb	r2, [r3, #0]
     5c6:	f44f 40a0 	mov.w	r0, #20480	; 0x5000
     5ca:	f2c4 0002 	movt	r0, #16386	; 0x4002
     5ce:	f04f 0101 	mov.w	r1, #1
     5d2:	f04f 0201 	mov.w	r2, #1
     5d6:	f002 faeb 	bl	2bb0 <GPIOPinWrite>
     5da:	bd80      	pop	{r7, pc}

000005dc <RECECPCION_INFRARROJOS_fac_desactivar>:
     5dc:	b580      	push	{r7, lr}
     5de:	af00      	add	r7, sp, #0
     5e0:	f240 631c 	movw	r3, #1564	; 0x61c
     5e4:	f2c2 0300 	movt	r3, #8192	; 0x2000
     5e8:	f04f 0200 	mov.w	r2, #0
     5ec:	601a      	str	r2, [r3, #0]
     5ee:	f240 6318 	movw	r3, #1560	; 0x618
     5f2:	f2c2 0300 	movt	r3, #8192	; 0x2000
     5f6:	f04f 0200 	mov.w	r2, #0
     5fa:	701a      	strb	r2, [r3, #0]
     5fc:	f44f 40a0 	mov.w	r0, #20480	; 0x5000
     600:	f2c4 0002 	movt	r0, #16386	; 0x4002
     604:	f04f 0101 	mov.w	r1, #1
     608:	f04f 0200 	mov.w	r2, #0
     60c:	f002 fad0 	bl	2bb0 <GPIOPinWrite>
     610:	f641 4358 	movw	r3, #7256	; 0x1c58
     614:	f2c2 0300 	movt	r3, #8192	; 0x2000
     618:	681b      	ldr	r3, [r3, #0]
     61a:	4618      	mov	r0, r3
     61c:	f002 fdd2 	bl	31c4 <vTaskSuspend>
     620:	bd80      	pop	{r7, pc}
     622:	bf00      	nop

00000624 <RECECPCION_INFRARROJOS_fev_t_corto>:
     624:	b580      	push	{r7, lr}
     626:	af00      	add	r7, sp, #0
     628:	f001 f8de 	bl	17e8 <SYSTEM_TICK_coger_valor_ticks>
     62c:	4602      	mov	r2, r0
     62e:	f641 4300 	movw	r3, #7168	; 0x1c00
     632:	f2c2 0300 	movt	r3, #8192	; 0x2000
     636:	601a      	str	r2, [r3, #0]
     638:	f641 33fc 	movw	r3, #7164	; 0x1bfc
     63c:	f2c2 0300 	movt	r3, #8192	; 0x2000
     640:	681a      	ldr	r2, [r3, #0]
     642:	f641 4300 	movw	r3, #7168	; 0x1c00
     646:	f2c2 0300 	movt	r3, #8192	; 0x2000
     64a:	681b      	ldr	r3, [r3, #0]
     64c:	1ad2      	subs	r2, r2, r3
     64e:	f240 6314 	movw	r3, #1556	; 0x614
     652:	f2c2 0300 	movt	r3, #8192	; 0x2000
     656:	681b      	ldr	r3, [r3, #0]
     658:	f44f 51fa 	mov.w	r1, #8000	; 0x1f40
     65c:	fb01 f303 	mul.w	r3, r1, r3
     660:	18d2      	adds	r2, r2, r3
     662:	f64b 33a0 	movw	r3, #48032	; 0xbba0
     666:	f2c0 030d 	movt	r3, #13
     66a:	429a      	cmp	r2, r3
     66c:	d902      	bls.n	674 <RECECPCION_INFRARROJOS_fev_t_corto+0x50>
     66e:	f04f 0301 	mov.w	r3, #1
     672:	e001      	b.n	678 <RECECPCION_INFRARROJOS_fev_t_corto+0x54>
     674:	f04f 0300 	mov.w	r3, #0
     678:	4618      	mov	r0, r3
     67a:	bd80      	pop	{r7, pc}

0000067c <RECECPCION_INFRARROJOS_fev_t_largo>:
     67c:	b580      	push	{r7, lr}
     67e:	af00      	add	r7, sp, #0
     680:	f001 f8b2 	bl	17e8 <SYSTEM_TICK_coger_valor_ticks>
     684:	4602      	mov	r2, r0
     686:	f641 4300 	movw	r3, #7168	; 0x1c00
     68a:	f2c2 0300 	movt	r3, #8192	; 0x2000
     68e:	601a      	str	r2, [r3, #0]
     690:	f641 33fc 	movw	r3, #7164	; 0x1bfc
     694:	f2c2 0300 	movt	r3, #8192	; 0x2000
     698:	681a      	ldr	r2, [r3, #0]
     69a:	f641 4300 	movw	r3, #7168	; 0x1c00
     69e:	f2c2 0300 	movt	r3, #8192	; 0x2000
     6a2:	681b      	ldr	r3, [r3, #0]
     6a4:	1ad2      	subs	r2, r2, r3
     6a6:	f240 6314 	movw	r3, #1556	; 0x614
     6aa:	f2c2 0300 	movt	r3, #8192	; 0x2000
     6ae:	681b      	ldr	r3, [r3, #0]
     6b0:	f44f 51fa 	mov.w	r1, #8000	; 0x1f40
     6b4:	fb01 f303 	mul.w	r3, r1, r3
     6b8:	18d2      	adds	r2, r2, r3
     6ba:	f247 7340 	movw	r3, #30528	; 0x7740
     6be:	f2c0 031b 	movt	r3, #27
     6c2:	429a      	cmp	r2, r3
     6c4:	d902      	bls.n	6cc <RECECPCION_INFRARROJOS_fev_t_largo+0x50>
     6c6:	f04f 0301 	mov.w	r3, #1
     6ca:	e001      	b.n	6d0 <RECECPCION_INFRARROJOS_fev_t_largo+0x54>
     6cc:	f04f 0300 	mov.w	r3, #0
     6d0:	4618      	mov	r0, r3
     6d2:	bd80      	pop	{r7, pc}

000006d4 <RECECPCION_INFRARROJOS_fac_cancelar>:
     6d4:	b580      	push	{r7, lr}
     6d6:	af00      	add	r7, sp, #0
     6d8:	f240 6320 	movw	r3, #1568	; 0x620
     6dc:	f2c2 0300 	movt	r3, #8192	; 0x2000
     6e0:	f04f 0200 	mov.w	r2, #0
     6e4:	601a      	str	r2, [r3, #0]
     6e6:	f240 631c 	movw	r3, #1564	; 0x61c
     6ea:	f2c2 0300 	movt	r3, #8192	; 0x2000
     6ee:	f04f 0200 	mov.w	r2, #0
     6f2:	601a      	str	r2, [r3, #0]
     6f4:	f641 4358 	movw	r3, #7256	; 0x1c58
     6f8:	f2c2 0300 	movt	r3, #8192	; 0x2000
     6fc:	681b      	ldr	r3, [r3, #0]
     6fe:	4618      	mov	r0, r3
     700:	f002 fd60 	bl	31c4 <vTaskSuspend>
     704:	bd80      	pop	{r7, pc}
     706:	bf00      	nop

00000708 <RECEPCION_INFRARROJOS_fac_borrar_inter>:
     708:	b480      	push	{r7}
     70a:	af00      	add	r7, sp, #0
     70c:	f641 33c1 	movw	r3, #7105	; 0x1bc1
     710:	f2c2 0300 	movt	r3, #8192	; 0x2000
     714:	f04f 0200 	mov.w	r2, #0
     718:	701a      	strb	r2, [r3, #0]
     71a:	f641 33c0 	movw	r3, #7104	; 0x1bc0
     71e:	f2c2 0300 	movt	r3, #8192	; 0x2000
     722:	f04f 0200 	mov.w	r2, #0
     726:	701a      	strb	r2, [r3, #0]
     728:	46bd      	mov	sp, r7
     72a:	bc80      	pop	{r7}
     72c:	4770      	bx	lr
     72e:	bf00      	nop

00000730 <RECECPCION_INFRARROJOS_fac_preguntar>:
     730:	b480      	push	{r7}
     732:	af00      	add	r7, sp, #0
     734:	f240 631c 	movw	r3, #1564	; 0x61c
     738:	f2c2 0300 	movt	r3, #8192	; 0x2000
     73c:	f04f 0205 	mov.w	r2, #5
     740:	601a      	str	r2, [r3, #0]
     742:	f240 6320 	movw	r3, #1568	; 0x620
     746:	f2c2 0300 	movt	r3, #8192	; 0x2000
     74a:	f04f 0201 	mov.w	r2, #1
     74e:	601a      	str	r2, [r3, #0]
     750:	46bd      	mov	sp, r7
     752:	bc80      	pop	{r7}
     754:	4770      	bx	lr
     756:	bf00      	nop

00000758 <RECEPCION_INFRARROJOS_coger_tiempo_actual>:
     758:	b580      	push	{r7, lr}
     75a:	af00      	add	r7, sp, #0
     75c:	f001 f844 	bl	17e8 <SYSTEM_TICK_coger_valor_ticks>
     760:	4602      	mov	r2, r0
     762:	f641 33fc 	movw	r3, #7164	; 0x1bfc
     766:	f2c2 0300 	movt	r3, #8192	; 0x2000
     76a:	601a      	str	r2, [r3, #0]
     76c:	f240 6314 	movw	r3, #1556	; 0x614
     770:	f2c2 0300 	movt	r3, #8192	; 0x2000
     774:	f04f 0200 	mov.w	r2, #0
     778:	601a      	str	r2, [r3, #0]
     77a:	f002 fef7 	bl	356c <xTaskGetTickCount>
     77e:	4602      	mov	r2, r0
     780:	f641 4304 	movw	r3, #7172	; 0x1c04
     784:	f2c2 0300 	movt	r3, #8192	; 0x2000
     788:	601a      	str	r2, [r3, #0]
     78a:	bd80      	pop	{r7, pc}

0000078c <RECEPCION_INFRARROJOS_dormir_tarea_190ms>:
     78c:	b580      	push	{r7, lr}
     78e:	af00      	add	r7, sp, #0
     790:	f641 4004 	movw	r0, #7172	; 0x1c04
     794:	f2c2 0000 	movt	r0, #8192	; 0x2000
     798:	f04f 01bf 	mov.w	r1, #191	; 0xbf
     79c:	f002 fcba 	bl	3114 <vTaskDelayUntil>
     7a0:	bd80      	pop	{r7, pc}
     7a2:	bf00      	nop

000007a4 <RECEPCION_INFRARROJOS_dormir_tarea_90ms>:
     7a4:	b580      	push	{r7, lr}
     7a6:	af00      	add	r7, sp, #0
     7a8:	f641 4004 	movw	r0, #7172	; 0x1c04
     7ac:	f2c2 0000 	movt	r0, #8192	; 0x2000
     7b0:	f04f 015b 	mov.w	r1, #91	; 0x5b
     7b4:	f002 fcae 	bl	3114 <vTaskDelayUntil>
     7b8:	bd80      	pop	{r7, pc}
     7ba:	bf00      	nop

000007bc <RECEPCION_INFRARROJOS_mirar_flanco_positivo>:
     7bc:	b480      	push	{r7}
     7be:	b083      	sub	sp, #12
     7c0:	af00      	add	r7, sp, #0
     7c2:	f641 33c0 	movw	r3, #7104	; 0x1bc0
     7c6:	f2c2 0300 	movt	r3, #8192	; 0x2000
     7ca:	781b      	ldrb	r3, [r3, #0]
     7cc:	71fb      	strb	r3, [r7, #7]
     7ce:	f641 33c0 	movw	r3, #7104	; 0x1bc0
     7d2:	f2c2 0300 	movt	r3, #8192	; 0x2000
     7d6:	f04f 0200 	mov.w	r2, #0
     7da:	701a      	strb	r2, [r3, #0]
     7dc:	79fb      	ldrb	r3, [r7, #7]
     7de:	4618      	mov	r0, r3
     7e0:	f107 070c 	add.w	r7, r7, #12
     7e4:	46bd      	mov	sp, r7
     7e6:	bc80      	pop	{r7}
     7e8:	4770      	bx	lr
     7ea:	bf00      	nop

000007ec <RECEPCION_INFRARROJOS_mirar_flanco_negativo>:
     7ec:	b480      	push	{r7}
     7ee:	b083      	sub	sp, #12
     7f0:	af00      	add	r7, sp, #0
     7f2:	f641 33c1 	movw	r3, #7105	; 0x1bc1
     7f6:	f2c2 0300 	movt	r3, #8192	; 0x2000
     7fa:	781b      	ldrb	r3, [r3, #0]
     7fc:	71fb      	strb	r3, [r7, #7]
     7fe:	f641 33c1 	movw	r3, #7105	; 0x1bc1
     802:	f2c2 0300 	movt	r3, #8192	; 0x2000
     806:	f04f 0200 	mov.w	r2, #0
     80a:	701a      	strb	r2, [r3, #0]
     80c:	79fb      	ldrb	r3, [r7, #7]
     80e:	4618      	mov	r0, r3
     810:	f107 070c 	add.w	r7, r7, #12
     814:	46bd      	mov	sp, r7
     816:	bc80      	pop	{r7}
     818:	4770      	bx	lr
     81a:	bf00      	nop

0000081c <RECECPCION_INFRARROJOS_fev_comunicacion_activada>:
     81c:	b480      	push	{r7}
     81e:	af00      	add	r7, sp, #0
     820:	f240 6318 	movw	r3, #1560	; 0x618
     824:	f2c2 0300 	movt	r3, #8192	; 0x2000
     828:	781b      	ldrb	r3, [r3, #0]
     82a:	4618      	mov	r0, r3
     82c:	46bd      	mov	sp, r7
     82e:	bc80      	pop	{r7}
     830:	4770      	bx	lr
     832:	bf00      	nop

00000834 <RECECPCION_INFRARROJOS_fac_medir_senal>:
     834:	b580      	push	{r7, lr}
     836:	af00      	add	r7, sp, #0
     838:	f44f 40c0 	mov.w	r0, #24576	; 0x6000
     83c:	f2c4 0002 	movt	r0, #16386	; 0x4002
     840:	f04f 0101 	mov.w	r1, #1
     844:	f04f 0200 	mov.w	r2, #0
     848:	f002 f9b2 	bl	2bb0 <GPIOPinWrite>
     84c:	f44f 40c0 	mov.w	r0, #24576	; 0x6000
     850:	f2c4 0000 	movt	r0, #16384	; 0x4000
     854:	f04f 0120 	mov.w	r1, #32
     858:	f04f 0200 	mov.w	r2, #0
     85c:	f002 f9a8 	bl	2bb0 <GPIOPinWrite>
     860:	f44f 40c0 	mov.w	r0, #24576	; 0x6000
     864:	f2c4 0000 	movt	r0, #16384	; 0x4000
     868:	f04f 0180 	mov.w	r1, #128	; 0x80
     86c:	f04f 0200 	mov.w	r2, #0
     870:	f002 f99e 	bl	2bb0 <GPIOPinWrite>
     874:	f003 ffa0 	bl	47b8 <AD_ObtenerValorADC_Channel2>
     878:	4602      	mov	r2, r0
     87a:	f240 6354 	movw	r3, #1620	; 0x654
     87e:	f2c2 0300 	movt	r3, #8192	; 0x2000
     882:	601a      	str	r2, [r3, #0]
     884:	f003 fff8 	bl	4878 <AD_ObtenerValorADC_Channel3>
     888:	4602      	mov	r2, r0
     88a:	f240 6348 	movw	r3, #1608	; 0x648
     88e:	f2c2 0300 	movt	r3, #8192	; 0x2000
     892:	601a      	str	r2, [r3, #0]
     894:	f44f 40c0 	mov.w	r0, #24576	; 0x6000
     898:	f2c4 0000 	movt	r0, #16384	; 0x4000
     89c:	f04f 0120 	mov.w	r1, #32
     8a0:	f04f 0220 	mov.w	r2, #32
     8a4:	f002 f984 	bl	2bb0 <GPIOPinWrite>
     8a8:	f003 ff86 	bl	47b8 <AD_ObtenerValorADC_Channel2>
     8ac:	4602      	mov	r2, r0
     8ae:	f240 6358 	movw	r3, #1624	; 0x658
     8b2:	f2c2 0300 	movt	r3, #8192	; 0x2000
     8b6:	601a      	str	r2, [r3, #0]
     8b8:	f003 ffde 	bl	4878 <AD_ObtenerValorADC_Channel3>
     8bc:	4602      	mov	r2, r0
     8be:	f240 634c 	movw	r3, #1612	; 0x64c
     8c2:	f2c2 0300 	movt	r3, #8192	; 0x2000
     8c6:	601a      	str	r2, [r3, #0]
     8c8:	f44f 40c0 	mov.w	r0, #24576	; 0x6000
     8cc:	f2c4 0000 	movt	r0, #16384	; 0x4000
     8d0:	f04f 0120 	mov.w	r1, #32
     8d4:	f04f 0200 	mov.w	r2, #0
     8d8:	f002 f96a 	bl	2bb0 <GPIOPinWrite>
     8dc:	f44f 40c0 	mov.w	r0, #24576	; 0x6000
     8e0:	f2c4 0000 	movt	r0, #16384	; 0x4000
     8e4:	f04f 0180 	mov.w	r1, #128	; 0x80
     8e8:	f04f 0280 	mov.w	r2, #128	; 0x80
     8ec:	f002 f960 	bl	2bb0 <GPIOPinWrite>
     8f0:	f003 ff62 	bl	47b8 <AD_ObtenerValorADC_Channel2>
     8f4:	4602      	mov	r2, r0
     8f6:	f240 635c 	movw	r3, #1628	; 0x65c
     8fa:	f2c2 0300 	movt	r3, #8192	; 0x2000
     8fe:	601a      	str	r2, [r3, #0]
     900:	f003 ffba 	bl	4878 <AD_ObtenerValorADC_Channel3>
     904:	4602      	mov	r2, r0
     906:	f240 6350 	movw	r3, #1616	; 0x650
     90a:	f2c2 0300 	movt	r3, #8192	; 0x2000
     90e:	601a      	str	r2, [r3, #0]
     910:	f44f 40c0 	mov.w	r0, #24576	; 0x6000
     914:	f2c4 0002 	movt	r0, #16386	; 0x4002
     918:	f04f 0101 	mov.w	r1, #1
     91c:	f04f 0201 	mov.w	r2, #1
     920:	f002 f946 	bl	2bb0 <GPIOPinWrite>
     924:	bd80      	pop	{r7, pc}
     926:	bf00      	nop

00000928 <PINES_inicializar>:
     928:	b580      	push	{r7, lr}
     92a:	b086      	sub	sp, #24
     92c:	af00      	add	r7, sp, #0
     92e:	6078      	str	r0, [r7, #4]
     930:	6039      	str	r1, [r7, #0]
     932:	683b      	ldr	r3, [r7, #0]
     934:	2b07      	cmp	r3, #7
     936:	d833      	bhi.n	9a0 <PINES_inicializar+0x78>
     938:	a201      	add	r2, pc, #4	; (adr r2, 940 <PINES_inicializar+0x18>)
     93a:	f852 f023 	ldr.w	pc, [r2, r3, lsl #2]
     93e:	bf00      	nop
     940:	00000961 	.word	0x00000961
     944:	00000969 	.word	0x00000969
     948:	00000971 	.word	0x00000971
     94c:	00000979 	.word	0x00000979
     950:	00000981 	.word	0x00000981
     954:	00000989 	.word	0x00000989
     958:	00000991 	.word	0x00000991
     95c:	00000999 	.word	0x00000999
     960:	f04f 0301 	mov.w	r3, #1
     964:	73fb      	strb	r3, [r7, #15]
     966:	e01b      	b.n	9a0 <PINES_inicializar+0x78>
     968:	f04f 0302 	mov.w	r3, #2
     96c:	73fb      	strb	r3, [r7, #15]
     96e:	e017      	b.n	9a0 <PINES_inicializar+0x78>
     970:	f04f 0304 	mov.w	r3, #4
     974:	73fb      	strb	r3, [r7, #15]
     976:	e013      	b.n	9a0 <PINES_inicializar+0x78>
     978:	f04f 0308 	mov.w	r3, #8
     97c:	73fb      	strb	r3, [r7, #15]
     97e:	e00f      	b.n	9a0 <PINES_inicializar+0x78>
     980:	f04f 0310 	mov.w	r3, #16
     984:	73fb      	strb	r3, [r7, #15]
     986:	e00b      	b.n	9a0 <PINES_inicializar+0x78>
     988:	f04f 0320 	mov.w	r3, #32
     98c:	73fb      	strb	r3, [r7, #15]
     98e:	e007      	b.n	9a0 <PINES_inicializar+0x78>
     990:	f04f 0340 	mov.w	r3, #64	; 0x40
     994:	73fb      	strb	r3, [r7, #15]
     996:	e003      	b.n	9a0 <PINES_inicializar+0x78>
     998:	f04f 0380 	mov.w	r3, #128	; 0x80
     99c:	73fb      	strb	r3, [r7, #15]
     99e:	bf00      	nop
     9a0:	687b      	ldr	r3, [r7, #4]
     9a2:	f103 33ff 	add.w	r3, r3, #4294967295
     9a6:	2b06      	cmp	r3, #6
     9a8:	d85d      	bhi.n	a66 <PINES_inicializar+0x13e>
     9aa:	a201      	add	r2, pc, #4	; (adr r2, 9b0 <PINES_inicializar+0x88>)
     9ac:	f852 f023 	ldr.w	pc, [r2, r3, lsl #2]
     9b0:	000009cd 	.word	0x000009cd
     9b4:	000009e3 	.word	0x000009e3
     9b8:	000009f9 	.word	0x000009f9
     9bc:	00000a0f 	.word	0x00000a0f
     9c0:	00000a25 	.word	0x00000a25
     9c4:	00000a3b 	.word	0x00000a3b
     9c8:	00000a51 	.word	0x00000a51
     9cc:	f04f 0301 	mov.w	r3, #1
     9d0:	f2c2 0300 	movt	r3, #8192	; 0x2000
     9d4:	613b      	str	r3, [r7, #16]
     9d6:	f44f 4380 	mov.w	r3, #16384	; 0x4000
     9da:	f2c4 0300 	movt	r3, #16384	; 0x4000
     9de:	617b      	str	r3, [r7, #20]
     9e0:	e041      	b.n	a66 <PINES_inicializar+0x13e>
     9e2:	f04f 0302 	mov.w	r3, #2
     9e6:	f2c2 0300 	movt	r3, #8192	; 0x2000
     9ea:	613b      	str	r3, [r7, #16]
     9ec:	f44f 43a0 	mov.w	r3, #20480	; 0x5000
     9f0:	f2c4 0300 	movt	r3, #16384	; 0x4000
     9f4:	617b      	str	r3, [r7, #20]
     9f6:	e036      	b.n	a66 <PINES_inicializar+0x13e>
     9f8:	f04f 0304 	mov.w	r3, #4
     9fc:	f2c2 0300 	movt	r3, #8192	; 0x2000
     a00:	613b      	str	r3, [r7, #16]
     a02:	f44f 43c0 	mov.w	r3, #24576	; 0x6000
     a06:	f2c4 0300 	movt	r3, #16384	; 0x4000
     a0a:	617b      	str	r3, [r7, #20]
     a0c:	e02b      	b.n	a66 <PINES_inicializar+0x13e>
     a0e:	f04f 0308 	mov.w	r3, #8
     a12:	f2c2 0300 	movt	r3, #8192	; 0x2000
     a16:	613b      	str	r3, [r7, #16]
     a18:	f44f 43e0 	mov.w	r3, #28672	; 0x7000
     a1c:	f2c4 0300 	movt	r3, #16384	; 0x4000
     a20:	617b      	str	r3, [r7, #20]
     a22:	e020      	b.n	a66 <PINES_inicializar+0x13e>
     a24:	f04f 0310 	mov.w	r3, #16
     a28:	f2c2 0300 	movt	r3, #8192	; 0x2000
     a2c:	613b      	str	r3, [r7, #16]
     a2e:	f44f 4380 	mov.w	r3, #16384	; 0x4000
     a32:	f2c4 0302 	movt	r3, #16386	; 0x4002
     a36:	617b      	str	r3, [r7, #20]
     a38:	e015      	b.n	a66 <PINES_inicializar+0x13e>
     a3a:	f04f 0320 	mov.w	r3, #32
     a3e:	f2c2 0300 	movt	r3, #8192	; 0x2000
     a42:	613b      	str	r3, [r7, #16]
     a44:	f44f 43a0 	mov.w	r3, #20480	; 0x5000
     a48:	f2c4 0302 	movt	r3, #16386	; 0x4002
     a4c:	617b      	str	r3, [r7, #20]
     a4e:	e00a      	b.n	a66 <PINES_inicializar+0x13e>
     a50:	f04f 0340 	mov.w	r3, #64	; 0x40
     a54:	f2c2 0300 	movt	r3, #8192	; 0x2000
     a58:	613b      	str	r3, [r7, #16]
     a5a:	f44f 43c0 	mov.w	r3, #24576	; 0x6000
     a5e:	f2c4 0302 	movt	r3, #16386	; 0x4002
     a62:	617b      	str	r3, [r7, #20]
     a64:	bf00      	nop
     a66:	6938      	ldr	r0, [r7, #16]
     a68:	f001 fb0c 	bl	2084 <SysCtlPeripheralEnable>
     a6c:	7bfb      	ldrb	r3, [r7, #15]
     a6e:	6978      	ldr	r0, [r7, #20]
     a70:	4619      	mov	r1, r3
     a72:	f002 f8cd 	bl	2c10 <GPIOPinTypeGPIOInput>
     a76:	7bfb      	ldrb	r3, [r7, #15]
     a78:	6978      	ldr	r0, [r7, #20]
     a7a:	4619      	mov	r1, r3
     a7c:	f04f 0201 	mov.w	r2, #1
     a80:	f04f 030c 	mov.w	r3, #12
     a84:	f001 ff26 	bl	28d4 <GPIOPadConfigSet>
     a88:	f107 0718 	add.w	r7, r7, #24
     a8c:	46bd      	mov	sp, r7
     a8e:	bd80      	pop	{r7, pc}

00000a90 <PINES_inicializar_int_both_edges>:
     a90:	b580      	push	{r7, lr}
     a92:	b086      	sub	sp, #24
     a94:	af00      	add	r7, sp, #0
     a96:	6078      	str	r0, [r7, #4]
     a98:	6039      	str	r1, [r7, #0]
     a9a:	683b      	ldr	r3, [r7, #0]
     a9c:	2b07      	cmp	r3, #7
     a9e:	d833      	bhi.n	b08 <PINES_inicializar_int_both_edges+0x78>
     aa0:	a201      	add	r2, pc, #4	; (adr r2, aa8 <PINES_inicializar_int_both_edges+0x18>)
     aa2:	f852 f023 	ldr.w	pc, [r2, r3, lsl #2]
     aa6:	bf00      	nop
     aa8:	00000ac9 	.word	0x00000ac9
     aac:	00000ad1 	.word	0x00000ad1
     ab0:	00000ad9 	.word	0x00000ad9
     ab4:	00000ae1 	.word	0x00000ae1
     ab8:	00000ae9 	.word	0x00000ae9
     abc:	00000af1 	.word	0x00000af1
     ac0:	00000af9 	.word	0x00000af9
     ac4:	00000b01 	.word	0x00000b01
     ac8:	f04f 0301 	mov.w	r3, #1
     acc:	73fb      	strb	r3, [r7, #15]
     ace:	e01b      	b.n	b08 <PINES_inicializar_int_both_edges+0x78>
     ad0:	f04f 0302 	mov.w	r3, #2
     ad4:	73fb      	strb	r3, [r7, #15]
     ad6:	e017      	b.n	b08 <PINES_inicializar_int_both_edges+0x78>
     ad8:	f04f 0304 	mov.w	r3, #4
     adc:	73fb      	strb	r3, [r7, #15]
     ade:	e013      	b.n	b08 <PINES_inicializar_int_both_edges+0x78>
     ae0:	f04f 0308 	mov.w	r3, #8
     ae4:	73fb      	strb	r3, [r7, #15]
     ae6:	e00f      	b.n	b08 <PINES_inicializar_int_both_edges+0x78>
     ae8:	f04f 0310 	mov.w	r3, #16
     aec:	73fb      	strb	r3, [r7, #15]
     aee:	e00b      	b.n	b08 <PINES_inicializar_int_both_edges+0x78>
     af0:	f04f 0320 	mov.w	r3, #32
     af4:	73fb      	strb	r3, [r7, #15]
     af6:	e007      	b.n	b08 <PINES_inicializar_int_both_edges+0x78>
     af8:	f04f 0340 	mov.w	r3, #64	; 0x40
     afc:	73fb      	strb	r3, [r7, #15]
     afe:	e003      	b.n	b08 <PINES_inicializar_int_both_edges+0x78>
     b00:	f04f 0380 	mov.w	r3, #128	; 0x80
     b04:	73fb      	strb	r3, [r7, #15]
     b06:	bf00      	nop
     b08:	687b      	ldr	r3, [r7, #4]
     b0a:	f103 33ff 	add.w	r3, r3, #4294967295
     b0e:	2b06      	cmp	r3, #6
     b10:	d84f      	bhi.n	bb2 <PINES_inicializar_int_both_edges+0x122>
     b12:	a201      	add	r2, pc, #4	; (adr r2, b18 <PINES_inicializar_int_both_edges+0x88>)
     b14:	f852 f023 	ldr.w	pc, [r2, r3, lsl #2]
     b18:	00000b35 	.word	0x00000b35
     b1c:	00000b47 	.word	0x00000b47
     b20:	00000b59 	.word	0x00000b59
     b24:	00000b6b 	.word	0x00000b6b
     b28:	00000b7d 	.word	0x00000b7d
     b2c:	00000b8f 	.word	0x00000b8f
     b30:	00000ba1 	.word	0x00000ba1
     b34:	f04f 0310 	mov.w	r3, #16
     b38:	613b      	str	r3, [r7, #16]
     b3a:	f44f 4380 	mov.w	r3, #16384	; 0x4000
     b3e:	f2c4 0300 	movt	r3, #16384	; 0x4000
     b42:	617b      	str	r3, [r7, #20]
     b44:	e035      	b.n	bb2 <PINES_inicializar_int_both_edges+0x122>
     b46:	f04f 0311 	mov.w	r3, #17
     b4a:	613b      	str	r3, [r7, #16]
     b4c:	f44f 43a0 	mov.w	r3, #20480	; 0x5000
     b50:	f2c4 0300 	movt	r3, #16384	; 0x4000
     b54:	617b      	str	r3, [r7, #20]
     b56:	e02c      	b.n	bb2 <PINES_inicializar_int_both_edges+0x122>
     b58:	f04f 0312 	mov.w	r3, #18
     b5c:	613b      	str	r3, [r7, #16]
     b5e:	f44f 43c0 	mov.w	r3, #24576	; 0x6000
     b62:	f2c4 0300 	movt	r3, #16384	; 0x4000
     b66:	617b      	str	r3, [r7, #20]
     b68:	e023      	b.n	bb2 <PINES_inicializar_int_both_edges+0x122>
     b6a:	f04f 0313 	mov.w	r3, #19
     b6e:	613b      	str	r3, [r7, #16]
     b70:	f44f 43e0 	mov.w	r3, #28672	; 0x7000
     b74:	f2c4 0300 	movt	r3, #16384	; 0x4000
     b78:	617b      	str	r3, [r7, #20]
     b7a:	e01a      	b.n	bb2 <PINES_inicializar_int_both_edges+0x122>
     b7c:	f04f 0314 	mov.w	r3, #20
     b80:	613b      	str	r3, [r7, #16]
     b82:	f44f 4380 	mov.w	r3, #16384	; 0x4000
     b86:	f2c4 0302 	movt	r3, #16386	; 0x4002
     b8a:	617b      	str	r3, [r7, #20]
     b8c:	e011      	b.n	bb2 <PINES_inicializar_int_both_edges+0x122>
     b8e:	f04f 032e 	mov.w	r3, #46	; 0x2e
     b92:	613b      	str	r3, [r7, #16]
     b94:	f44f 43a0 	mov.w	r3, #20480	; 0x5000
     b98:	f2c4 0302 	movt	r3, #16386	; 0x4002
     b9c:	617b      	str	r3, [r7, #20]
     b9e:	e008      	b.n	bb2 <PINES_inicializar_int_both_edges+0x122>
     ba0:	f04f 032f 	mov.w	r3, #47	; 0x2f
     ba4:	613b      	str	r3, [r7, #16]
     ba6:	f44f 43c0 	mov.w	r3, #24576	; 0x6000
     baa:	f2c4 0302 	movt	r3, #16386	; 0x4002
     bae:	617b      	str	r3, [r7, #20]
     bb0:	bf00      	nop
     bb2:	6938      	ldr	r0, [r7, #16]
     bb4:	f003 f8a0 	bl	3cf8 <IntEnable>
     bb8:	7bfb      	ldrb	r3, [r7, #15]
     bba:	6978      	ldr	r0, [r7, #20]
     bbc:	4619      	mov	r1, r3
     bbe:	f04f 0201 	mov.w	r2, #1
     bc2:	f001 fe1d 	bl	2800 <GPIOIntTypeSet>
     bc6:	7bfb      	ldrb	r3, [r7, #15]
     bc8:	6978      	ldr	r0, [r7, #20]
     bca:	4619      	mov	r1, r3
     bcc:	f001 ff9a 	bl	2b04 <GPIOPinIntEnable>
     bd0:	f107 0718 	add.w	r7, r7, #24
     bd4:	46bd      	mov	sp, r7
     bd6:	bd80      	pop	{r7, pc}

00000bd8 <PortDInterruptHandler>:
     bd8:	4668      	mov	r0, sp
     bda:	f020 0107 	bic.w	r1, r0, #7
     bde:	468d      	mov	sp, r1
     be0:	b581      	push	{r0, r7, lr}
     be2:	b087      	sub	sp, #28
     be4:	af00      	add	r7, sp, #0
     be6:	f44f 40e0 	mov.w	r0, #28672	; 0x7000
     bea:	f2c4 0000 	movt	r0, #16384	; 0x4000
     bee:	f04f 0101 	mov.w	r1, #1
     bf2:	f001 ff9d 	bl	2b30 <GPIOPinIntStatus>
     bf6:	60f8      	str	r0, [r7, #12]
     bf8:	68fb      	ldr	r3, [r7, #12]
     bfa:	f003 0340 	and.w	r3, r3, #64	; 0x40
     bfe:	2b00      	cmp	r3, #0
     c00:	d033      	beq.n	c6a <PortDInterruptHandler+0x92>
     c02:	f44f 43e0 	mov.w	r3, #28672	; 0x7000
     c06:	f2c4 0300 	movt	r3, #16384	; 0x4000
     c0a:	617b      	str	r3, [r7, #20]
     c0c:	f04f 0340 	mov.w	r3, #64	; 0x40
     c10:	74fb      	strb	r3, [r7, #19]
     c12:	7cfb      	ldrb	r3, [r7, #19]
     c14:	6978      	ldr	r0, [r7, #20]
     c16:	4619      	mov	r1, r3
     c18:	f001 ffb6 	bl	2b88 <GPIOPinRead>
     c1c:	4603      	mov	r3, r0
     c1e:	60bb      	str	r3, [r7, #8]
     c20:	68bb      	ldr	r3, [r7, #8]
     c22:	2b40      	cmp	r3, #64	; 0x40
     c24:	d11a      	bne.n	c5c <PortDInterruptHandler+0x84>
     c26:	f641 33c0 	movw	r3, #7104	; 0x1bc0
     c2a:	f2c2 0300 	movt	r3, #8192	; 0x2000
     c2e:	f04f 0201 	mov.w	r2, #1
     c32:	701a      	strb	r2, [r3, #0]
     c34:	f641 4358 	movw	r3, #7256	; 0x1c58
     c38:	f2c2 0300 	movt	r3, #8192	; 0x2000
     c3c:	681b      	ldr	r3, [r3, #0]
     c3e:	4618      	mov	r0, r3
     c40:	f002 fb20 	bl	3284 <xTaskIsTaskSuspended>
     c44:	4603      	mov	r3, r0
     c46:	2b01      	cmp	r3, #1
     c48:	d10f      	bne.n	c6a <PortDInterruptHandler+0x92>
     c4a:	f641 4358 	movw	r3, #7256	; 0x1c58
     c4e:	f2c2 0300 	movt	r3, #8192	; 0x2000
     c52:	681b      	ldr	r3, [r3, #0]
     c54:	4618      	mov	r0, r3
     c56:	f002 fb3d 	bl	32d4 <vTaskResume>
     c5a:	e006      	b.n	c6a <PortDInterruptHandler+0x92>
     c5c:	f641 33c1 	movw	r3, #7105	; 0x1bc1
     c60:	f2c2 0300 	movt	r3, #8192	; 0x2000
     c64:	f04f 0201 	mov.w	r2, #1
     c68:	701a      	strb	r2, [r3, #0]
     c6a:	68fb      	ldr	r3, [r7, #12]
     c6c:	f003 0380 	and.w	r3, r3, #128	; 0x80
     c70:	2b00      	cmp	r3, #0
     c72:	d033      	beq.n	cdc <PortDInterruptHandler+0x104>
     c74:	f44f 43e0 	mov.w	r3, #28672	; 0x7000
     c78:	f2c4 0300 	movt	r3, #16384	; 0x4000
     c7c:	617b      	str	r3, [r7, #20]
     c7e:	f04f 0380 	mov.w	r3, #128	; 0x80
     c82:	74fb      	strb	r3, [r7, #19]
     c84:	7cfb      	ldrb	r3, [r7, #19]
     c86:	6978      	ldr	r0, [r7, #20]
     c88:	4619      	mov	r1, r3
     c8a:	f001 ff7d 	bl	2b88 <GPIOPinRead>
     c8e:	4603      	mov	r3, r0
     c90:	607b      	str	r3, [r7, #4]
     c92:	687b      	ldr	r3, [r7, #4]
     c94:	2b80      	cmp	r3, #128	; 0x80
     c96:	d11a      	bne.n	cce <PortDInterruptHandler+0xf6>
     c98:	f641 33c0 	movw	r3, #7104	; 0x1bc0
     c9c:	f2c2 0300 	movt	r3, #8192	; 0x2000
     ca0:	f04f 0201 	mov.w	r2, #1
     ca4:	701a      	strb	r2, [r3, #0]
     ca6:	f641 4358 	movw	r3, #7256	; 0x1c58
     caa:	f2c2 0300 	movt	r3, #8192	; 0x2000
     cae:	681b      	ldr	r3, [r3, #0]
     cb0:	4618      	mov	r0, r3
     cb2:	f002 fae7 	bl	3284 <xTaskIsTaskSuspended>
     cb6:	4603      	mov	r3, r0
     cb8:	2b01      	cmp	r3, #1
     cba:	d10f      	bne.n	cdc <PortDInterruptHandler+0x104>
     cbc:	f641 4358 	movw	r3, #7256	; 0x1c58
     cc0:	f2c2 0300 	movt	r3, #8192	; 0x2000
     cc4:	681b      	ldr	r3, [r3, #0]
     cc6:	4618      	mov	r0, r3
     cc8:	f002 fb04 	bl	32d4 <vTaskResume>
     ccc:	e006      	b.n	cdc <PortDInterruptHandler+0x104>
     cce:	f641 33c1 	movw	r3, #7105	; 0x1bc1
     cd2:	f2c2 0300 	movt	r3, #8192	; 0x2000
     cd6:	f04f 0201 	mov.w	r2, #1
     cda:	701a      	strb	r2, [r3, #0]
     cdc:	7cfb      	ldrb	r3, [r7, #19]
     cde:	6978      	ldr	r0, [r7, #20]
     ce0:	4619      	mov	r1, r3
     ce2:	f001 ff3f 	bl	2b64 <GPIOPinIntClear>
     ce6:	f107 071c 	add.w	r7, r7, #28
     cea:	46bd      	mov	sp, r7
     cec:	e8bd 4081 	ldmia.w	sp!, {r0, r7, lr}
     cf0:	4685      	mov	sp, r0
     cf2:	4770      	bx	lr

00000cf4 <SystemInit>:
     cf4:	b580      	push	{r7, lr}
     cf6:	b084      	sub	sp, #16
     cf8:	af00      	add	r7, sp, #0
     cfa:	f642 23d2 	movw	r3, #10962	; 0x2ad2
     cfe:	f2c0 038e 	movt	r3, #142	; 0x8e
     d02:	60bb      	str	r3, [r7, #8]
     d04:	f642 0310 	movw	r3, #10256	; 0x2810
     d08:	f2c0 0380 	movt	r3, #128	; 0x80
     d0c:	607b      	str	r3, [r7, #4]
     d0e:	f44f 4360 	mov.w	r3, #57344	; 0xe000
     d12:	f2c4 030f 	movt	r3, #16399	; 0x400f
     d16:	f642 0210 	movw	r2, #10256	; 0x2810
     d1a:	f2c0 7280 	movt	r2, #1920	; 0x780
     d1e:	671a      	str	r2, [r3, #112]	; 0x70
     d20:	f44f 4360 	mov.w	r3, #57344	; 0xe000
     d24:	f2c4 030f 	movt	r3, #16399	; 0x400f
     d28:	f643 22d1 	movw	r2, #15057	; 0x3ad1
     d2c:	f2c0 728e 	movt	r2, #1934	; 0x78e
     d30:	661a      	str	r2, [r3, #96]	; 0x60
     d32:	f44f 4360 	mov.w	r3, #57344	; 0xe000
     d36:	f2c4 030f 	movt	r3, #16399	; 0x400f
     d3a:	f642 22d2 	movw	r2, #10962	; 0x2ad2
     d3e:	f2c0 028e 	movt	r2, #142	; 0x8e
     d42:	661a      	str	r2, [r3, #96]	; 0x60
     d44:	f44f 4360 	mov.w	r3, #57344	; 0xe000
     d48:	f2c4 030f 	movt	r3, #16399	; 0x400f
     d4c:	f642 0210 	movw	r2, #10256	; 0x2810
     d50:	f2c0 0280 	movt	r2, #128	; 0x80
     d54:	671a      	str	r2, [r3, #112]	; 0x70
     d56:	f04f 0300 	mov.w	r3, #0
     d5a:	60fb      	str	r3, [r7, #12]
     d5c:	e003      	b.n	d66 <SystemInit+0x72>
     d5e:	68fb      	ldr	r3, [r7, #12]
     d60:	f103 0301 	add.w	r3, r3, #1
     d64:	60fb      	str	r3, [r7, #12]
     d66:	68fa      	ldr	r2, [r7, #12]
     d68:	f240 33e7 	movw	r3, #999	; 0x3e7
     d6c:	429a      	cmp	r2, r3
     d6e:	d9f6      	bls.n	d5e <SystemInit+0x6a>
     d70:	f44f 4360 	mov.w	r3, #57344	; 0xe000
     d74:	f2c4 030f 	movt	r3, #16399	; 0x400f
     d78:	f642 22d2 	movw	r2, #10962	; 0x2ad2
     d7c:	f2c0 028e 	movt	r2, #142	; 0x8e
     d80:	661a      	str	r2, [r3, #96]	; 0x60
     d82:	f44f 4360 	mov.w	r3, #57344	; 0xe000
     d86:	f2c4 030f 	movt	r3, #16399	; 0x400f
     d8a:	f642 0210 	movw	r2, #10256	; 0x2810
     d8e:	f2c0 0280 	movt	r2, #128	; 0x80
     d92:	671a      	str	r2, [r3, #112]	; 0x70
     d94:	f04f 0300 	mov.w	r3, #0
     d98:	60fb      	str	r3, [r7, #12]
     d9a:	e003      	b.n	da4 <SystemInit+0xb0>
     d9c:	68fb      	ldr	r3, [r7, #12]
     d9e:	f103 0301 	add.w	r3, r3, #1
     da2:	60fb      	str	r3, [r7, #12]
     da4:	68fa      	ldr	r2, [r7, #12]
     da6:	f240 33e7 	movw	r3, #999	; 0x3e7
     daa:	429a      	cmp	r2, r3
     dac:	d9f6      	bls.n	d9c <SystemInit+0xa8>
     dae:	f44f 4360 	mov.w	r3, #57344	; 0xe000
     db2:	f2c4 030f 	movt	r3, #16399	; 0x400f
     db6:	f642 22d2 	movw	r2, #10962	; 0x2ad2
     dba:	f2c0 028e 	movt	r2, #142	; 0x8e
     dbe:	661a      	str	r2, [r3, #96]	; 0x60
     dc0:	f44f 4360 	mov.w	r3, #57344	; 0xe000
     dc4:	f2c4 030f 	movt	r3, #16399	; 0x400f
     dc8:	f642 22d2 	movw	r2, #10962	; 0x2ad2
     dcc:	f2c0 028e 	movt	r2, #142	; 0x8e
     dd0:	661a      	str	r2, [r3, #96]	; 0x60
     dd2:	f44f 4360 	mov.w	r3, #57344	; 0xe000
     dd6:	f2c4 030f 	movt	r3, #16399	; 0x400f
     dda:	f642 0210 	movw	r2, #10256	; 0x2810
     dde:	f2c0 0280 	movt	r2, #128	; 0x80
     de2:	671a      	str	r2, [r3, #112]	; 0x70
     de4:	f04f 0300 	mov.w	r3, #0
     de8:	60fb      	str	r3, [r7, #12]
     dea:	e003      	b.n	df4 <SystemInit+0x100>
     dec:	68fb      	ldr	r3, [r7, #12]
     dee:	f103 0301 	add.w	r3, r3, #1
     df2:	60fb      	str	r3, [r7, #12]
     df4:	68fa      	ldr	r2, [r7, #12]
     df6:	f242 730f 	movw	r3, #9999	; 0x270f
     dfa:	429a      	cmp	r2, r3
     dfc:	d9f6      	bls.n	dec <SystemInit+0xf8>
     dfe:	f44f 4360 	mov.w	r3, #57344	; 0xe000
     e02:	f2c4 030f 	movt	r3, #16399	; 0x400f
     e06:	6e1b      	ldr	r3, [r3, #96]	; 0x60
     e08:	60bb      	str	r3, [r7, #8]
     e0a:	f44f 4360 	mov.w	r3, #57344	; 0xe000
     e0e:	f2c4 030f 	movt	r3, #16399	; 0x400f
     e12:	6f1b      	ldr	r3, [r3, #112]	; 0x70
     e14:	607b      	str	r3, [r7, #4]
     e16:	687b      	ldr	r3, [r7, #4]
     e18:	2b00      	cmp	r3, #0
     e1a:	da56      	bge.n	eca <SystemInit+0x1d6>
     e1c:	687b      	ldr	r3, [r7, #4]
     e1e:	f403 6300 	and.w	r3, r3, #2048	; 0x800
     e22:	2b00      	cmp	r3, #0
     e24:	d014      	beq.n	e50 <SystemInit+0x15c>
     e26:	68bb      	ldr	r3, [r7, #8]
     e28:	ea4f 1393 	mov.w	r3, r3, lsr #6
     e2c:	f003 020f 	and.w	r2, r3, #15
     e30:	687b      	ldr	r3, [r7, #4]
     e32:	ea4f 1313 	mov.w	r3, r3, lsr #4
     e36:	f003 0307 	and.w	r3, r3, #7
     e3a:	4610      	mov	r0, r2
     e3c:	4619      	mov	r1, r3
     e3e:	f000 f875 	bl	f2c <getOscClk>
     e42:	4602      	mov	r2, r0
     e44:	f240 0330 	movw	r3, #48	; 0x30
     e48:	f2c2 0300 	movt	r3, #8192	; 0x2000
     e4c:	601a      	str	r2, [r3, #0]
     e4e:	e008      	b.n	e62 <SystemInit+0x16e>
     e50:	f240 0330 	movw	r3, #48	; 0x30
     e54:	f2c2 0300 	movt	r3, #8192	; 0x2000
     e58:	f44f 4242 	mov.w	r2, #49664	; 0xc200
     e5c:	f6c0 32eb 	movt	r2, #3051	; 0xbeb
     e60:	601a      	str	r2, [r3, #0]
     e62:	68bb      	ldr	r3, [r7, #8]
     e64:	f403 0380 	and.w	r3, r3, #4194304	; 0x400000
     e68:	2b00      	cmp	r3, #0
     e6a:	d05a      	beq.n	f22 <SystemInit+0x22e>
     e6c:	687b      	ldr	r3, [r7, #4]
     e6e:	f403 6300 	and.w	r3, r3, #2048	; 0x800
     e72:	2b00      	cmp	r3, #0
     e74:	d013      	beq.n	e9e <SystemInit+0x1aa>
     e76:	f240 0330 	movw	r3, #48	; 0x30
     e7a:	f2c2 0300 	movt	r3, #8192	; 0x2000
     e7e:	681a      	ldr	r2, [r3, #0]
     e80:	687b      	ldr	r3, [r7, #4]
     e82:	ea4f 53d3 	mov.w	r3, r3, lsr #23
     e86:	f003 033f 	and.w	r3, r3, #63	; 0x3f
     e8a:	f103 0301 	add.w	r3, r3, #1
     e8e:	fbb2 f2f3 	udiv	r2, r2, r3
     e92:	f240 0330 	movw	r3, #48	; 0x30
     e96:	f2c2 0300 	movt	r3, #8192	; 0x2000
     e9a:	601a      	str	r2, [r3, #0]
     e9c:	e041      	b.n	f22 <SystemInit+0x22e>
     e9e:	f240 0330 	movw	r3, #48	; 0x30
     ea2:	f2c2 0300 	movt	r3, #8192	; 0x2000
     ea6:	681a      	ldr	r2, [r3, #0]
     ea8:	687b      	ldr	r3, [r7, #4]
     eaa:	ea4f 53d3 	mov.w	r3, r3, lsr #23
     eae:	f003 033f 	and.w	r3, r3, #63	; 0x3f
     eb2:	f103 0301 	add.w	r3, r3, #1
     eb6:	fbb2 f3f3 	udiv	r3, r2, r3
     eba:	ea4f 0253 	mov.w	r2, r3, lsr #1
     ebe:	f240 0330 	movw	r3, #48	; 0x30
     ec2:	f2c2 0300 	movt	r3, #8192	; 0x2000
     ec6:	601a      	str	r2, [r3, #0]
     ec8:	e02b      	b.n	f22 <SystemInit+0x22e>
     eca:	68bb      	ldr	r3, [r7, #8]
     ecc:	ea4f 1393 	mov.w	r3, r3, lsr #6
     ed0:	f003 020f 	and.w	r2, r3, #15
     ed4:	68bb      	ldr	r3, [r7, #8]
     ed6:	ea4f 1313 	mov.w	r3, r3, lsr #4
     eda:	f003 0303 	and.w	r3, r3, #3
     ede:	4610      	mov	r0, r2
     ee0:	4619      	mov	r1, r3
     ee2:	f000 f823 	bl	f2c <getOscClk>
     ee6:	4602      	mov	r2, r0
     ee8:	f240 0330 	movw	r3, #48	; 0x30
     eec:	f2c2 0300 	movt	r3, #8192	; 0x2000
     ef0:	601a      	str	r2, [r3, #0]
     ef2:	68bb      	ldr	r3, [r7, #8]
     ef4:	f403 0380 	and.w	r3, r3, #4194304	; 0x400000
     ef8:	2b00      	cmp	r3, #0
     efa:	d012      	beq.n	f22 <SystemInit+0x22e>
     efc:	f240 0330 	movw	r3, #48	; 0x30
     f00:	f2c2 0300 	movt	r3, #8192	; 0x2000
     f04:	681a      	ldr	r2, [r3, #0]
     f06:	68bb      	ldr	r3, [r7, #8]
     f08:	ea4f 53d3 	mov.w	r3, r3, lsr #23
     f0c:	f003 030f 	and.w	r3, r3, #15
     f10:	f103 0301 	add.w	r3, r3, #1
     f14:	fbb2 f2f3 	udiv	r2, r2, r3
     f18:	f240 0330 	movw	r3, #48	; 0x30
     f1c:	f2c2 0300 	movt	r3, #8192	; 0x2000
     f20:	601a      	str	r2, [r3, #0]
     f22:	f107 0710 	add.w	r7, r7, #16
     f26:	46bd      	mov	sp, r7
     f28:	bd80      	pop	{r7, pc}
     f2a:	bf00      	nop

00000f2c <getOscClk>:
     f2c:	b480      	push	{r7}
     f2e:	b085      	sub	sp, #20
     f30:	af00      	add	r7, sp, #0
     f32:	6078      	str	r0, [r7, #4]
     f34:	6039      	str	r1, [r7, #0]
     f36:	f44f 53d8 	mov.w	r3, #6912	; 0x1b00
     f3a:	f2c0 03b7 	movt	r3, #183	; 0xb7
     f3e:	60fb      	str	r3, [r7, #12]
     f40:	683b      	ldr	r3, [r7, #0]
     f42:	2b03      	cmp	r3, #3
     f44:	f200 8098 	bhi.w	1078 <getOscClk+0x14c>
     f48:	a201      	add	r2, pc, #4	; (adr r2, f50 <getOscClk+0x24>)
     f4a:	f852 f023 	ldr.w	pc, [r2, r3, lsl #2]
     f4e:	bf00      	nop
     f50:	00000f61 	.word	0x00000f61
     f54:	00001057 	.word	0x00001057
     f58:	00001063 	.word	0x00001063
     f5c:	0000106f 	.word	0x0000106f
     f60:	687b      	ldr	r3, [r7, #4]
     f62:	2b0f      	cmp	r3, #15
     f64:	f200 8087 	bhi.w	1076 <getOscClk+0x14a>
     f68:	a201      	add	r2, pc, #4	; (adr r2, f70 <getOscClk+0x44>)
     f6a:	f852 f023 	ldr.w	pc, [r2, r3, lsl #2]
     f6e:	bf00      	nop
     f70:	00000fb1 	.word	0x00000fb1
     f74:	00000fbd 	.word	0x00000fbd
     f78:	00000fc5 	.word	0x00000fc5
     f7c:	00000fd1 	.word	0x00000fd1
     f80:	00000fd9 	.word	0x00000fd9
     f84:	00000fe5 	.word	0x00000fe5
     f88:	00000fed 	.word	0x00000fed
     f8c:	00000ff9 	.word	0x00000ff9
     f90:	00001001 	.word	0x00001001
     f94:	00001009 	.word	0x00001009
     f98:	00001015 	.word	0x00001015
     f9c:	00001021 	.word	0x00001021
     fa0:	0000102d 	.word	0x0000102d
     fa4:	00001039 	.word	0x00001039
     fa8:	00001041 	.word	0x00001041
     fac:	0000104d 	.word	0x0000104d
     fb0:	f244 2340 	movw	r3, #16960	; 0x4240
     fb4:	f2c0 030f 	movt	r3, #15
     fb8:	60fb      	str	r3, [r7, #12]
     fba:	e04b      	b.n	1054 <getOscClk+0x128>
     fbc:	f44f 13e1 	mov.w	r3, #1843200	; 0x1c2000
     fc0:	60fb      	str	r3, [r7, #12]
     fc2:	e047      	b.n	1054 <getOscClk+0x128>
     fc4:	f248 4380 	movw	r3, #33920	; 0x8480
     fc8:	f2c0 031e 	movt	r3, #30
     fcc:	60fb      	str	r3, [r7, #12]
     fce:	e041      	b.n	1054 <getOscClk+0x128>
     fd0:	f44f 1316 	mov.w	r3, #2457600	; 0x258000
     fd4:	60fb      	str	r3, [r7, #12]
     fd6:	e03d      	b.n	1054 <getOscClk+0x128>
     fd8:	f649 6399 	movw	r3, #40601	; 0x9e99
     fdc:	f2c0 0336 	movt	r3, #54	; 0x36
     fe0:	60fb      	str	r3, [r7, #12]
     fe2:	e037      	b.n	1054 <getOscClk+0x128>
     fe4:	f44f 1361 	mov.w	r3, #3686400	; 0x384000
     fe8:	60fb      	str	r3, [r7, #12]
     fea:	e033      	b.n	1054 <getOscClk+0x128>
     fec:	f44f 6310 	mov.w	r3, #2304	; 0x900
     ff0:	f2c0 033d 	movt	r3, #61	; 0x3d
     ff4:	60fb      	str	r3, [r7, #12]
     ff6:	e02d      	b.n	1054 <getOscClk+0x128>
     ff8:	f44f 137a 	mov.w	r3, #4096000	; 0x3e8000
     ffc:	60fb      	str	r3, [r7, #12]
     ffe:	e029      	b.n	1054 <getOscClk+0x128>
    1000:	f44f 0396 	mov.w	r3, #4915200	; 0x4b0000
    1004:	60fb      	str	r3, [r7, #12]
    1006:	e025      	b.n	1054 <getOscClk+0x128>
    1008:	f644 3340 	movw	r3, #19264	; 0x4b40
    100c:	f2c0 034c 	movt	r3, #76	; 0x4c
    1010:	60fb      	str	r3, [r7, #12]
    1012:	e01f      	b.n	1054 <getOscClk+0x128>
    1014:	f44f 5300 	mov.w	r3, #8192	; 0x2000
    1018:	f2c0 034e 	movt	r3, #78	; 0x4e
    101c:	60fb      	str	r3, [r7, #12]
    101e:	e019      	b.n	1054 <getOscClk+0x128>
    1020:	f648 5380 	movw	r3, #36224	; 0x8d80
    1024:	f2c0 035b 	movt	r3, #91	; 0x5b
    1028:	60fb      	str	r3, [r7, #12]
    102a:	e013      	b.n	1054 <getOscClk+0x128>
    102c:	f44f 4340 	mov.w	r3, #49152	; 0xc000
    1030:	f2c0 035d 	movt	r3, #93	; 0x5d
    1034:	60fb      	str	r3, [r7, #12]
    1036:	e00d      	b.n	1054 <getOscClk+0x128>
    1038:	f44f 03e1 	mov.w	r3, #7372800	; 0x708000
    103c:	60fb      	str	r3, [r7, #12]
    103e:	e009      	b.n	1054 <getOscClk+0x128>
    1040:	f44f 5390 	mov.w	r3, #4608	; 0x1200
    1044:	f2c0 037a 	movt	r3, #122	; 0x7a
    1048:	60fb      	str	r3, [r7, #12]
    104a:	e003      	b.n	1054 <getOscClk+0x128>
    104c:	f44f 03fa 	mov.w	r3, #8192000	; 0x7d0000
    1050:	60fb      	str	r3, [r7, #12]
    1052:	bf00      	nop
    1054:	e010      	b.n	1078 <getOscClk+0x14c>
    1056:	f44f 53d8 	mov.w	r3, #6912	; 0x1b00
    105a:	f2c0 03b7 	movt	r3, #183	; 0xb7
    105e:	60fb      	str	r3, [r7, #12]
    1060:	e00a      	b.n	1078 <getOscClk+0x14c>
    1062:	f24c 63c0 	movw	r3, #50880	; 0xc6c0
    1066:	f2c0 032d 	movt	r3, #45	; 0x2d
    106a:	60fb      	str	r3, [r7, #12]
    106c:	e004      	b.n	1078 <getOscClk+0x14c>
    106e:	f247 5330 	movw	r3, #30000	; 0x7530
    1072:	60fb      	str	r3, [r7, #12]
    1074:	e000      	b.n	1078 <getOscClk+0x14c>
    1076:	bf00      	nop
    1078:	68fb      	ldr	r3, [r7, #12]
    107a:	4618      	mov	r0, r3
    107c:	f107 0714 	add.w	r7, r7, #20
    1080:	46bd      	mov	sp, r7
    1082:	bc80      	pop	{r7}
    1084:	4770      	bx	lr
    1086:	bf00      	nop

00001088 <stellaris_1_step>:
    1088:	b5f0      	push	{r4, r5, r6, r7, lr}
    108a:	b08d      	sub	sp, #52	; 0x34
    108c:	af00      	add	r7, sp, #0
    108e:	f641 4320 	movw	r3, #7200	; 0x1c20
    1092:	f2c2 0300 	movt	r3, #8192	; 0x2000
    1096:	e9d3 0100 	ldrd	r0, r1, [r3]
    109a:	f641 4320 	movw	r3, #7200	; 0x1c20
    109e:	f2c2 0300 	movt	r3, #8192	; 0x2000
    10a2:	e9d3 2306 	ldrd	r2, r3, [r3, #24]
    10a6:	f04f 0601 	mov.w	r6, #1
    10aa:	f005 fa39 	bl	6520 <__aeabi_dcmpgt>
    10ae:	4603      	mov	r3, r0
    10b0:	2b00      	cmp	r3, #0
    10b2:	d102      	bne.n	10ba <stellaris_1_step+0x32>
    10b4:	f04f 0300 	mov.w	r3, #0
    10b8:	461e      	mov	r6, r3
    10ba:	73fe      	strb	r6, [r7, #15]
    10bc:	7bfb      	ldrb	r3, [r7, #15]
    10be:	2b00      	cmp	r3, #0
    10c0:	d010      	beq.n	10e4 <stellaris_1_step+0x5c>
    10c2:	f641 4320 	movw	r3, #7200	; 0x1c20
    10c6:	f2c2 0300 	movt	r3, #8192	; 0x2000
    10ca:	e9d3 2302 	ldrd	r2, r3, [r3, #8]
    10ce:	e9c7 2308 	strd	r2, r3, [r7, #32]
    10d2:	f641 4320 	movw	r3, #7200	; 0x1c20
    10d6:	f2c2 0300 	movt	r3, #8192	; 0x2000
    10da:	e9d3 2304 	ldrd	r2, r3, [r3, #16]
    10de:	e9c7 230a 	strd	r2, r3, [r7, #40]	; 0x28
    10e2:	e00f      	b.n	1104 <stellaris_1_step+0x7c>
    10e4:	f641 4320 	movw	r3, #7200	; 0x1c20
    10e8:	f2c2 0300 	movt	r3, #8192	; 0x2000
    10ec:	e9d3 2308 	ldrd	r2, r3, [r3, #32]
    10f0:	e9c7 2308 	strd	r2, r3, [r7, #32]
    10f4:	f641 4320 	movw	r3, #7200	; 0x1c20
    10f8:	f2c2 0300 	movt	r3, #8192	; 0x2000
    10fc:	e9d3 230a 	ldrd	r2, r3, [r3, #40]	; 0x28
    1100:	e9c7 230a 	strd	r2, r3, [r7, #40]	; 0x28
    1104:	7bfb      	ldrb	r3, [r7, #15]
    1106:	2b00      	cmp	r3, #0
    1108:	d008      	beq.n	111c <stellaris_1_step+0x94>
    110a:	f641 4320 	movw	r3, #7200	; 0x1c20
    110e:	f2c2 0300 	movt	r3, #8192	; 0x2000
    1112:	e9d3 2300 	ldrd	r2, r3, [r3]
    1116:	e9c7 2304 	strd	r2, r3, [r7, #16]
    111a:	e007      	b.n	112c <stellaris_1_step+0xa4>
    111c:	f641 4320 	movw	r3, #7200	; 0x1c20
    1120:	f2c2 0300 	movt	r3, #8192	; 0x2000
    1124:	e9d3 2306 	ldrd	r2, r3, [r3, #24]
    1128:	e9c7 2304 	strd	r2, r3, [r7, #16]
    112c:	7bfb      	ldrb	r3, [r7, #15]
    112e:	2b00      	cmp	r3, #0
    1130:	d01a      	beq.n	1168 <stellaris_1_step+0xe0>
    1132:	e9d7 0104 	ldrd	r0, r1, [r7, #16]
    1136:	f04f 0200 	mov.w	r2, #0
    113a:	f04f 537e 	mov.w	r3, #1065353216	; 0x3f800000
    113e:	f503 03e0 	add.w	r3, r3, #7340032	; 0x700000
    1142:	f004 fda9 	bl	5c98 <__aeabi_dsub>
    1146:	4602      	mov	r2, r0
    1148:	460b      	mov	r3, r1
    114a:	4610      	mov	r0, r2
    114c:	4619      	mov	r1, r3
    114e:	f240 0340 	movw	r3, #64	; 0x40
    1152:	f2c2 0300 	movt	r3, #8192	; 0x2000
    1156:	e9d3 2300 	ldrd	r2, r3, [r3]
    115a:	f004 ff51 	bl	6000 <__aeabi_dmul>
    115e:	4602      	mov	r2, r0
    1160:	460b      	mov	r3, r1
    1162:	e9c7 2306 	strd	r2, r3, [r7, #24]
    1166:	e01e      	b.n	11a6 <stellaris_1_step+0x11e>
    1168:	e9d7 0104 	ldrd	r0, r1, [r7, #16]
    116c:	f04f 0200 	mov.w	r2, #0
    1170:	f04f 537e 	mov.w	r3, #1065353216	; 0x3f800000
    1174:	f503 03e0 	add.w	r3, r3, #7340032	; 0x700000
    1178:	f004 fd8e 	bl	5c98 <__aeabi_dsub>
    117c:	4602      	mov	r2, r0
    117e:	460b      	mov	r3, r1
    1180:	4610      	mov	r0, r2
    1182:	4619      	mov	r1, r3
    1184:	f240 0340 	movw	r3, #64	; 0x40
    1188:	f2c2 0300 	movt	r3, #8192	; 0x2000
    118c:	e9d3 2300 	ldrd	r2, r3, [r3]
    1190:	4614      	mov	r4, r2
    1192:	f083 4500 	eor.w	r5, r3, #2147483648	; 0x80000000
    1196:	4622      	mov	r2, r4
    1198:	462b      	mov	r3, r5
    119a:	f004 ff31 	bl	6000 <__aeabi_dmul>
    119e:	4602      	mov	r2, r0
    11a0:	460b      	mov	r3, r1
    11a2:	e9c7 2306 	strd	r2, r3, [r7, #24]
    11a6:	e9d7 0108 	ldrd	r0, r1, [r7, #32]
    11aa:	e9d7 230a 	ldrd	r2, r3, [r7, #40]	; 0x28
    11ae:	f004 fd73 	bl	5c98 <__aeabi_dsub>
    11b2:	4602      	mov	r2, r0
    11b4:	460b      	mov	r3, r1
    11b6:	4610      	mov	r0, r2
    11b8:	4619      	mov	r1, r3
    11ba:	f240 0348 	movw	r3, #72	; 0x48
    11be:	f2c2 0300 	movt	r3, #8192	; 0x2000
    11c2:	e9d3 2300 	ldrd	r2, r3, [r3]
    11c6:	f004 ff1b 	bl	6000 <__aeabi_dmul>
    11ca:	4602      	mov	r2, r0
    11cc:	460b      	mov	r3, r1
    11ce:	e9c7 2300 	strd	r2, r3, [r7]
    11d2:	e9d7 0108 	ldrd	r0, r1, [r7, #32]
    11d6:	e9d7 230a 	ldrd	r2, r3, [r7, #40]	; 0x28
    11da:	f005 f979 	bl	64d0 <__aeabi_dcmpeq>
    11de:	4603      	mov	r3, r0
    11e0:	2b00      	cmp	r3, #0
    11e2:	d107      	bne.n	11f4 <stellaris_1_step+0x16c>
    11e4:	f641 4320 	movw	r3, #7200	; 0x1c20
    11e8:	f2c2 0300 	movt	r3, #8192	; 0x2000
    11ec:	f893 3030 	ldrb.w	r3, [r3, #48]	; 0x30
    11f0:	2b00      	cmp	r3, #0
    11f2:	d014      	beq.n	121e <stellaris_1_step+0x196>
    11f4:	f641 4308 	movw	r3, #7176	; 0x1c08
    11f8:	f2c2 0300 	movt	r3, #8192	; 0x2000
    11fc:	f04f 0000 	mov.w	r0, #0
    1200:	f04f 0100 	mov.w	r1, #0
    1204:	e9c3 0100 	strd	r0, r1, [r3]
    1208:	f641 4308 	movw	r3, #7176	; 0x1c08
    120c:	f2c2 0300 	movt	r3, #8192	; 0x2000
    1210:	f04f 0000 	mov.w	r0, #0
    1214:	f04f 0100 	mov.w	r1, #0
    1218:	e9c3 0102 	strd	r0, r1, [r3, #8]
    121c:	e0af      	b.n	137e <stellaris_1_step+0x2f6>
    121e:	e9d7 0106 	ldrd	r0, r1, [r7, #24]
    1222:	e9d7 2300 	ldrd	r2, r3, [r7]
    1226:	f004 fd39 	bl	5c9c <__adddf3>
    122a:	4602      	mov	r2, r0
    122c:	460b      	mov	r3, r1
    122e:	e9c7 2304 	strd	r2, r3, [r7, #16]
    1232:	f04f 0301 	mov.w	r3, #1
    1236:	461c      	mov	r4, r3
    1238:	e9d7 0104 	ldrd	r0, r1, [r7, #16]
    123c:	f04f 0200 	mov.w	r2, #0
    1240:	f04f 4380 	mov.w	r3, #1073741824	; 0x40000000
    1244:	f503 1310 	add.w	r3, r3, #2359296	; 0x240000
    1248:	f005 f960 	bl	650c <__aeabi_dcmpge>
    124c:	4603      	mov	r3, r0
    124e:	2b00      	cmp	r3, #0
    1250:	d102      	bne.n	1258 <stellaris_1_step+0x1d0>
    1252:	f04f 0300 	mov.w	r3, #0
    1256:	461c      	mov	r4, r3
    1258:	b2e3      	uxtb	r3, r4
    125a:	2b00      	cmp	r3, #0
    125c:	d00c      	beq.n	1278 <stellaris_1_step+0x1f0>
    125e:	f641 4308 	movw	r3, #7176	; 0x1c08
    1262:	f2c2 0300 	movt	r3, #8192	; 0x2000
    1266:	f04f 0000 	mov.w	r0, #0
    126a:	f04f 4180 	mov.w	r1, #1073741824	; 0x40000000
    126e:	f501 1110 	add.w	r1, r1, #2359296	; 0x240000
    1272:	e9c3 0100 	strd	r0, r1, [r3]
    1276:	e02a      	b.n	12ce <stellaris_1_step+0x246>
    1278:	f04f 0301 	mov.w	r3, #1
    127c:	461c      	mov	r4, r3
    127e:	e9d7 0104 	ldrd	r0, r1, [r7, #16]
    1282:	f04f 0200 	mov.w	r2, #0
    1286:	f04f 4340 	mov.w	r3, #3221225472	; 0xc0000000
    128a:	f503 1310 	add.w	r3, r3, #2359296	; 0x240000
    128e:	f005 f933 	bl	64f8 <__aeabi_dcmple>
    1292:	4603      	mov	r3, r0
    1294:	2b00      	cmp	r3, #0
    1296:	d102      	bne.n	129e <stellaris_1_step+0x216>
    1298:	f04f 0300 	mov.w	r3, #0
    129c:	461c      	mov	r4, r3
    129e:	b2e3      	uxtb	r3, r4
    12a0:	2b00      	cmp	r3, #0
    12a2:	d00c      	beq.n	12be <stellaris_1_step+0x236>
    12a4:	f641 4308 	movw	r3, #7176	; 0x1c08
    12a8:	f2c2 0300 	movt	r3, #8192	; 0x2000
    12ac:	f04f 0000 	mov.w	r0, #0
    12b0:	f04f 4140 	mov.w	r1, #3221225472	; 0xc0000000
    12b4:	f501 1110 	add.w	r1, r1, #2359296	; 0x240000
    12b8:	e9c3 0100 	strd	r0, r1, [r3]
    12bc:	e007      	b.n	12ce <stellaris_1_step+0x246>
    12be:	f641 4308 	movw	r3, #7176	; 0x1c08
    12c2:	f2c2 0300 	movt	r3, #8192	; 0x2000
    12c6:	e9d7 0104 	ldrd	r0, r1, [r7, #16]
    12ca:	e9c3 0100 	strd	r0, r1, [r3]
    12ce:	e9d7 0100 	ldrd	r0, r1, [r7]
    12d2:	e9d7 2306 	ldrd	r2, r3, [r7, #24]
    12d6:	f004 fcdf 	bl	5c98 <__aeabi_dsub>
    12da:	4602      	mov	r2, r0
    12dc:	460b      	mov	r3, r1
    12de:	e9c7 2304 	strd	r2, r3, [r7, #16]
    12e2:	f04f 0301 	mov.w	r3, #1
    12e6:	461c      	mov	r4, r3
    12e8:	e9d7 0104 	ldrd	r0, r1, [r7, #16]
    12ec:	f04f 0200 	mov.w	r2, #0
    12f0:	f04f 4380 	mov.w	r3, #1073741824	; 0x40000000
    12f4:	f503 1310 	add.w	r3, r3, #2359296	; 0x240000
    12f8:	f005 f908 	bl	650c <__aeabi_dcmpge>
    12fc:	4603      	mov	r3, r0
    12fe:	2b00      	cmp	r3, #0
    1300:	d102      	bne.n	1308 <stellaris_1_step+0x280>
    1302:	f04f 0300 	mov.w	r3, #0
    1306:	461c      	mov	r4, r3
    1308:	b2e3      	uxtb	r3, r4
    130a:	2b00      	cmp	r3, #0
    130c:	d00c      	beq.n	1328 <stellaris_1_step+0x2a0>
    130e:	f641 4308 	movw	r3, #7176	; 0x1c08
    1312:	f2c2 0300 	movt	r3, #8192	; 0x2000
    1316:	f04f 0000 	mov.w	r0, #0
    131a:	f04f 4180 	mov.w	r1, #1073741824	; 0x40000000
    131e:	f501 1110 	add.w	r1, r1, #2359296	; 0x240000
    1322:	e9c3 0102 	strd	r0, r1, [r3, #8]
    1326:	e02a      	b.n	137e <stellaris_1_step+0x2f6>
    1328:	f04f 0301 	mov.w	r3, #1
    132c:	461c      	mov	r4, r3
    132e:	e9d7 0104 	ldrd	r0, r1, [r7, #16]
    1332:	f04f 0200 	mov.w	r2, #0
    1336:	f04f 4340 	mov.w	r3, #3221225472	; 0xc0000000
    133a:	f503 1310 	add.w	r3, r3, #2359296	; 0x240000
    133e:	f005 f8db 	bl	64f8 <__aeabi_dcmple>
    1342:	4603      	mov	r3, r0
    1344:	2b00      	cmp	r3, #0
    1346:	d102      	bne.n	134e <stellaris_1_step+0x2c6>
    1348:	f04f 0300 	mov.w	r3, #0
    134c:	461c      	mov	r4, r3
    134e:	b2e3      	uxtb	r3, r4
    1350:	2b00      	cmp	r3, #0
    1352:	d00c      	beq.n	136e <stellaris_1_step+0x2e6>
    1354:	f641 4308 	movw	r3, #7176	; 0x1c08
    1358:	f2c2 0300 	movt	r3, #8192	; 0x2000
    135c:	f04f 0000 	mov.w	r0, #0
    1360:	f04f 4140 	mov.w	r1, #3221225472	; 0xc0000000
    1364:	f501 1110 	add.w	r1, r1, #2359296	; 0x240000
    1368:	e9c3 0102 	strd	r0, r1, [r3, #8]
    136c:	e007      	b.n	137e <stellaris_1_step+0x2f6>
    136e:	f641 4308 	movw	r3, #7176	; 0x1c08
    1372:	f2c2 0300 	movt	r3, #8192	; 0x2000
    1376:	e9d7 0104 	ldrd	r0, r1, [r7, #16]
    137a:	e9c3 0102 	strd	r0, r1, [r3, #8]
    137e:	f107 0734 	add.w	r7, r7, #52	; 0x34
    1382:	46bd      	mov	sp, r7
    1384:	bdf0      	pop	{r4, r5, r6, r7, pc}
    1386:	bf00      	nop

00001388 <stellaris_1_initialize>:
    1388:	b580      	push	{r7, lr}
    138a:	af00      	add	r7, sp, #0
    138c:	f64c 3358 	movw	r3, #52056	; 0xcb58
    1390:	f2c0 0300 	movt	r3, #0
    1394:	681b      	ldr	r3, [r3, #0]
    1396:	f04f 0200 	mov.w	r2, #0
    139a:	601a      	str	r2, [r3, #0]
    139c:	f641 4020 	movw	r0, #7200	; 0x1c20
    13a0:	f2c2 0000 	movt	r0, #8192	; 0x2000
    13a4:	f04f 0100 	mov.w	r1, #0
    13a8:	f04f 0238 	mov.w	r2, #56	; 0x38
    13ac:	f005 fcae 	bl	6d0c <memset>
    13b0:	f641 4008 	movw	r0, #7176	; 0x1c08
    13b4:	f2c2 0000 	movt	r0, #8192	; 0x2000
    13b8:	f04f 0100 	mov.w	r1, #0
    13bc:	f04f 0210 	mov.w	r2, #16
    13c0:	f005 fca4 	bl	6d0c <memset>
    13c4:	bd80      	pop	{r7, pc}
    13c6:	bf00      	nop

000013c8 <PWMGenConfigure>:
    13c8:	b480      	push	{r7}
    13ca:	b085      	sub	sp, #20
    13cc:	af00      	add	r7, sp, #0
    13ce:	60f8      	str	r0, [r7, #12]
    13d0:	60b9      	str	r1, [r7, #8]
    13d2:	607a      	str	r2, [r7, #4]
    13d4:	68ba      	ldr	r2, [r7, #8]
    13d6:	68fb      	ldr	r3, [r7, #12]
    13d8:	18d3      	adds	r3, r2, r3
    13da:	60bb      	str	r3, [r7, #8]
    13dc:	68ba      	ldr	r2, [r7, #8]
    13de:	68bb      	ldr	r3, [r7, #8]
    13e0:	6819      	ldr	r1, [r3, #0]
    13e2:	f04f 0301 	mov.w	r3, #1
    13e6:	f6cf 73f8 	movt	r3, #65528	; 0xfff8
    13ea:	ea01 0303 	and.w	r3, r1, r3
    13ee:	6879      	ldr	r1, [r7, #4]
    13f0:	430b      	orrs	r3, r1
    13f2:	6013      	str	r3, [r2, #0]
    13f4:	687b      	ldr	r3, [r7, #4]
    13f6:	f003 0302 	and.w	r3, r3, #2
    13fa:	2b00      	cmp	r3, #0
    13fc:	d00c      	beq.n	1418 <PWMGenConfigure+0x50>
    13fe:	68bb      	ldr	r3, [r7, #8]
    1400:	f103 0320 	add.w	r3, r3, #32
    1404:	f04f 02b0 	mov.w	r2, #176	; 0xb0
    1408:	601a      	str	r2, [r3, #0]
    140a:	68bb      	ldr	r3, [r7, #8]
    140c:	f103 0324 	add.w	r3, r3, #36	; 0x24
    1410:	f44f 6230 	mov.w	r2, #2816	; 0xb00
    1414:	601a      	str	r2, [r3, #0]
    1416:	e00b      	b.n	1430 <PWMGenConfigure+0x68>
    1418:	68bb      	ldr	r3, [r7, #8]
    141a:	f103 0320 	add.w	r3, r3, #32
    141e:	f04f 028c 	mov.w	r2, #140	; 0x8c
    1422:	601a      	str	r2, [r3, #0]
    1424:	68bb      	ldr	r3, [r7, #8]
    1426:	f103 0324 	add.w	r3, r3, #36	; 0x24
    142a:	f640 020c 	movw	r2, #2060	; 0x80c
    142e:	601a      	str	r2, [r3, #0]
    1430:	f107 0714 	add.w	r7, r7, #20
    1434:	46bd      	mov	sp, r7
    1436:	bc80      	pop	{r7}
    1438:	4770      	bx	lr
    143a:	bf00      	nop

0000143c <PWMGenPeriodSet>:
    143c:	b480      	push	{r7}
    143e:	b085      	sub	sp, #20
    1440:	af00      	add	r7, sp, #0
    1442:	60f8      	str	r0, [r7, #12]
    1444:	60b9      	str	r1, [r7, #8]
    1446:	607a      	str	r2, [r7, #4]
    1448:	68ba      	ldr	r2, [r7, #8]
    144a:	68fb      	ldr	r3, [r7, #12]
    144c:	18d3      	adds	r3, r2, r3
    144e:	60bb      	str	r3, [r7, #8]
    1450:	68bb      	ldr	r3, [r7, #8]
    1452:	681b      	ldr	r3, [r3, #0]
    1454:	f003 0302 	and.w	r3, r3, #2
    1458:	2b00      	cmp	r3, #0
    145a:	d007      	beq.n	146c <PWMGenPeriodSet+0x30>
    145c:	68bb      	ldr	r3, [r7, #8]
    145e:	f103 0310 	add.w	r3, r3, #16
    1462:	687a      	ldr	r2, [r7, #4]
    1464:	ea4f 0252 	mov.w	r2, r2, lsr #1
    1468:	601a      	str	r2, [r3, #0]
    146a:	e006      	b.n	147a <PWMGenPeriodSet+0x3e>
    146c:	68bb      	ldr	r3, [r7, #8]
    146e:	f103 0310 	add.w	r3, r3, #16
    1472:	687a      	ldr	r2, [r7, #4]
    1474:	f102 32ff 	add.w	r2, r2, #4294967295
    1478:	601a      	str	r2, [r3, #0]
    147a:	f107 0714 	add.w	r7, r7, #20
    147e:	46bd      	mov	sp, r7
    1480:	bc80      	pop	{r7}
    1482:	4770      	bx	lr

00001484 <PWMGenEnable>:
    1484:	b480      	push	{r7}
    1486:	b083      	sub	sp, #12
    1488:	af00      	add	r7, sp, #0
    148a:	6078      	str	r0, [r7, #4]
    148c:	6039      	str	r1, [r7, #0]
    148e:	687a      	ldr	r2, [r7, #4]
    1490:	683b      	ldr	r3, [r7, #0]
    1492:	18d3      	adds	r3, r2, r3
    1494:	6879      	ldr	r1, [r7, #4]
    1496:	683a      	ldr	r2, [r7, #0]
    1498:	188a      	adds	r2, r1, r2
    149a:	6812      	ldr	r2, [r2, #0]
    149c:	f042 0201 	orr.w	r2, r2, #1
    14a0:	601a      	str	r2, [r3, #0]
    14a2:	f107 070c 	add.w	r7, r7, #12
    14a6:	46bd      	mov	sp, r7
    14a8:	bc80      	pop	{r7}
    14aa:	4770      	bx	lr

000014ac <PWMPulseWidthSet>:
    14ac:	b480      	push	{r7}
    14ae:	b087      	sub	sp, #28
    14b0:	af00      	add	r7, sp, #0
    14b2:	60f8      	str	r0, [r7, #12]
    14b4:	60b9      	str	r1, [r7, #8]
    14b6:	607a      	str	r2, [r7, #4]
    14b8:	68bb      	ldr	r3, [r7, #8]
    14ba:	f023 023f 	bic.w	r2, r3, #63	; 0x3f
    14be:	68fb      	ldr	r3, [r7, #12]
    14c0:	18d3      	adds	r3, r2, r3
    14c2:	617b      	str	r3, [r7, #20]
    14c4:	697b      	ldr	r3, [r7, #20]
    14c6:	681b      	ldr	r3, [r3, #0]
    14c8:	f003 0302 	and.w	r3, r3, #2
    14cc:	2b00      	cmp	r3, #0
    14ce:	d003      	beq.n	14d8 <PWMPulseWidthSet+0x2c>
    14d0:	687b      	ldr	r3, [r7, #4]
    14d2:	ea4f 0353 	mov.w	r3, r3, lsr #1
    14d6:	607b      	str	r3, [r7, #4]
    14d8:	697b      	ldr	r3, [r7, #20]
    14da:	f103 0310 	add.w	r3, r3, #16
    14de:	681b      	ldr	r3, [r3, #0]
    14e0:	613b      	str	r3, [r7, #16]
    14e2:	693a      	ldr	r2, [r7, #16]
    14e4:	687b      	ldr	r3, [r7, #4]
    14e6:	1ad3      	subs	r3, r2, r3
    14e8:	613b      	str	r3, [r7, #16]
    14ea:	68bb      	ldr	r3, [r7, #8]
    14ec:	f003 0301 	and.w	r3, r3, #1
    14f0:	b2db      	uxtb	r3, r3
    14f2:	2b00      	cmp	r3, #0
    14f4:	d005      	beq.n	1502 <PWMPulseWidthSet+0x56>
    14f6:	697b      	ldr	r3, [r7, #20]
    14f8:	f103 031c 	add.w	r3, r3, #28
    14fc:	693a      	ldr	r2, [r7, #16]
    14fe:	601a      	str	r2, [r3, #0]
    1500:	e004      	b.n	150c <PWMPulseWidthSet+0x60>
    1502:	697b      	ldr	r3, [r7, #20]
    1504:	f103 0318 	add.w	r3, r3, #24
    1508:	693a      	ldr	r2, [r7, #16]
    150a:	601a      	str	r2, [r3, #0]
    150c:	f107 071c 	add.w	r7, r7, #28
    1510:	46bd      	mov	sp, r7
    1512:	bc80      	pop	{r7}
    1514:	4770      	bx	lr
    1516:	bf00      	nop

00001518 <PWMOutputState>:
    1518:	b480      	push	{r7}
    151a:	b085      	sub	sp, #20
    151c:	af00      	add	r7, sp, #0
    151e:	60f8      	str	r0, [r7, #12]
    1520:	60b9      	str	r1, [r7, #8]
    1522:	4613      	mov	r3, r2
    1524:	71fb      	strb	r3, [r7, #7]
    1526:	79fb      	ldrb	r3, [r7, #7]
    1528:	2b01      	cmp	r3, #1
    152a:	d10b      	bne.n	1544 <PWMOutputState+0x2c>
    152c:	68fb      	ldr	r3, [r7, #12]
    152e:	f103 0308 	add.w	r3, r3, #8
    1532:	68fa      	ldr	r2, [r7, #12]
    1534:	f102 0208 	add.w	r2, r2, #8
    1538:	6811      	ldr	r1, [r2, #0]
    153a:	68ba      	ldr	r2, [r7, #8]
    153c:	ea41 0202 	orr.w	r2, r1, r2
    1540:	601a      	str	r2, [r3, #0]
    1542:	e00c      	b.n	155e <PWMOutputState+0x46>
    1544:	68fb      	ldr	r3, [r7, #12]
    1546:	f103 0308 	add.w	r3, r3, #8
    154a:	68fa      	ldr	r2, [r7, #12]
    154c:	f102 0208 	add.w	r2, r2, #8
    1550:	6811      	ldr	r1, [r2, #0]
    1552:	68ba      	ldr	r2, [r7, #8]
    1554:	ea6f 0202 	mvn.w	r2, r2
    1558:	ea01 0202 	and.w	r2, r1, r2
    155c:	601a      	str	r2, [r3, #0]
    155e:	f107 0714 	add.w	r7, r7, #20
    1562:	46bd      	mov	sp, r7
    1564:	bc80      	pop	{r7}
    1566:	4770      	bx	lr

00001568 <vTask_Control>:
    1568:	b580      	push	{r7, lr}
    156a:	b084      	sub	sp, #16
    156c:	af00      	add	r7, sp, #0
    156e:	6078      	str	r0, [r7, #4]
    1570:	687b      	ldr	r3, [r7, #4]
    1572:	60fb      	str	r3, [r7, #12]
    1574:	f001 fffa 	bl	356c <xTaskGetTickCount>
    1578:	4603      	mov	r3, r0
    157a:	60bb      	str	r3, [r7, #8]
    157c:	f000 f814 	bl	15a8 <rt_OneStep>
    1580:	f240 6340 	movw	r3, #1600	; 0x640
    1584:	f2c2 0300 	movt	r3, #8192	; 0x2000
    1588:	681b      	ldr	r3, [r3, #0]
    158a:	f103 0201 	add.w	r2, r3, #1
    158e:	f240 6340 	movw	r3, #1600	; 0x640
    1592:	f2c2 0300 	movt	r3, #8192	; 0x2000
    1596:	601a      	str	r2, [r3, #0]
    1598:	f107 0308 	add.w	r3, r7, #8
    159c:	4618      	mov	r0, r3
    159e:	68f9      	ldr	r1, [r7, #12]
    15a0:	f001 fdb8 	bl	3114 <vTaskDelayUntil>
    15a4:	e7ea      	b.n	157c <vTask_Control+0x14>
    15a6:	bf00      	nop

000015a8 <rt_OneStep>:
    15a8:	b580      	push	{r7, lr}
    15aa:	af00      	add	r7, sp, #0
    15ac:	f240 6344 	movw	r3, #1604	; 0x644
    15b0:	f2c2 0300 	movt	r3, #8192	; 0x2000
    15b4:	781b      	ldrb	r3, [r3, #0]
    15b6:	2b00      	cmp	r3, #0
    15b8:	d00a      	beq.n	15d0 <rt_OneStep+0x28>
    15ba:	f64c 3358 	movw	r3, #52056	; 0xcb58
    15be:	f2c0 0300 	movt	r3, #0
    15c2:	681a      	ldr	r2, [r3, #0]
    15c4:	f64c 335c 	movw	r3, #52060	; 0xcb5c
    15c8:	f2c0 0300 	movt	r3, #0
    15cc:	6013      	str	r3, [r2, #0]
    15ce:	e0fb      	b.n	17c8 <rt_OneStep+0x220>
    15d0:	f240 6344 	movw	r3, #1604	; 0x644
    15d4:	f2c2 0300 	movt	r3, #8192	; 0x2000
    15d8:	f04f 0201 	mov.w	r2, #1
    15dc:	701a      	strb	r2, [r3, #0]
    15de:	f240 6354 	movw	r3, #1620	; 0x654
    15e2:	f2c2 0300 	movt	r3, #8192	; 0x2000
    15e6:	681b      	ldr	r3, [r3, #0]
    15e8:	4618      	mov	r0, r3
    15ea:	f004 fcb5 	bl	5f58 <__aeabi_f2d>
    15ee:	f641 4320 	movw	r3, #7200	; 0x1c20
    15f2:	f2c2 0300 	movt	r3, #8192	; 0x2000
    15f6:	e9c3 0100 	strd	r0, r1, [r3]
    15fa:	f240 6350 	movw	r3, #1616	; 0x650
    15fe:	f2c2 0300 	movt	r3, #8192	; 0x2000
    1602:	681b      	ldr	r3, [r3, #0]
    1604:	4618      	mov	r0, r3
    1606:	f004 fca7 	bl	5f58 <__aeabi_f2d>
    160a:	f641 4320 	movw	r3, #7200	; 0x1c20
    160e:	f2c2 0300 	movt	r3, #8192	; 0x2000
    1612:	e9c3 0102 	strd	r0, r1, [r3, #8]
    1616:	f240 635c 	movw	r3, #1628	; 0x65c
    161a:	f2c2 0300 	movt	r3, #8192	; 0x2000
    161e:	681b      	ldr	r3, [r3, #0]
    1620:	4618      	mov	r0, r3
    1622:	f004 fc99 	bl	5f58 <__aeabi_f2d>
    1626:	f641 4320 	movw	r3, #7200	; 0x1c20
    162a:	f2c2 0300 	movt	r3, #8192	; 0x2000
    162e:	e9c3 0104 	strd	r0, r1, [r3, #16]
    1632:	f240 6358 	movw	r3, #1624	; 0x658
    1636:	f2c2 0300 	movt	r3, #8192	; 0x2000
    163a:	681b      	ldr	r3, [r3, #0]
    163c:	4618      	mov	r0, r3
    163e:	f004 fc8b 	bl	5f58 <__aeabi_f2d>
    1642:	f641 4320 	movw	r3, #7200	; 0x1c20
    1646:	f2c2 0300 	movt	r3, #8192	; 0x2000
    164a:	e9c3 0106 	strd	r0, r1, [r3, #24]
    164e:	f240 634c 	movw	r3, #1612	; 0x64c
    1652:	f2c2 0300 	movt	r3, #8192	; 0x2000
    1656:	681b      	ldr	r3, [r3, #0]
    1658:	4618      	mov	r0, r3
    165a:	f004 fc7d 	bl	5f58 <__aeabi_f2d>
    165e:	f641 4320 	movw	r3, #7200	; 0x1c20
    1662:	f2c2 0300 	movt	r3, #8192	; 0x2000
    1666:	e9c3 0108 	strd	r0, r1, [r3, #32]
    166a:	f240 6348 	movw	r3, #1608	; 0x648
    166e:	f2c2 0300 	movt	r3, #8192	; 0x2000
    1672:	681b      	ldr	r3, [r3, #0]
    1674:	4618      	mov	r0, r3
    1676:	f004 fc6f 	bl	5f58 <__aeabi_f2d>
    167a:	f641 4320 	movw	r3, #7200	; 0x1c20
    167e:	f2c2 0300 	movt	r3, #8192	; 0x2000
    1682:	e9c3 010a 	strd	r0, r1, [r3, #40]	; 0x28
    1686:	f641 4320 	movw	r3, #7200	; 0x1c20
    168a:	f2c2 0300 	movt	r3, #8192	; 0x2000
    168e:	f04f 0200 	mov.w	r2, #0
    1692:	f883 2030 	strb.w	r2, [r3, #48]	; 0x30
    1696:	f7ff fcf7 	bl	1088 <stellaris_1_step>
    169a:	f641 4308 	movw	r3, #7176	; 0x1c08
    169e:	f2c2 0300 	movt	r3, #8192	; 0x2000
    16a2:	e9d3 0100 	ldrd	r0, r1, [r3]
    16a6:	f240 6328 	movw	r3, #1576	; 0x628
    16aa:	f2c2 0300 	movt	r3, #8192	; 0x2000
    16ae:	e9c3 0100 	strd	r0, r1, [r3]
    16b2:	f641 4308 	movw	r3, #7176	; 0x1c08
    16b6:	f2c2 0300 	movt	r3, #8192	; 0x2000
    16ba:	e9d3 0102 	ldrd	r0, r1, [r3, #8]
    16be:	f240 6330 	movw	r3, #1584	; 0x630
    16c2:	f2c2 0300 	movt	r3, #8192	; 0x2000
    16c6:	e9c3 0100 	strd	r0, r1, [r3]
    16ca:	f240 6344 	movw	r3, #1604	; 0x644
    16ce:	f2c2 0300 	movt	r3, #8192	; 0x2000
    16d2:	f04f 0200 	mov.w	r2, #0
    16d6:	701a      	strb	r2, [r3, #0]
    16d8:	f240 6328 	movw	r3, #1576	; 0x628
    16dc:	f2c2 0300 	movt	r3, #8192	; 0x2000
    16e0:	e9d3 2300 	ldrd	r2, r3, [r3]
    16e4:	4610      	mov	r0, r2
    16e6:	4619      	mov	r1, r3
    16e8:	a339      	add	r3, pc, #228	; (adr r3, 17d0 <rt_OneStep+0x228>)
    16ea:	e9d3 2300 	ldrd	r2, r3, [r3]
    16ee:	f004 fc87 	bl	6000 <__aeabi_dmul>
    16f2:	4602      	mov	r2, r0
    16f4:	460b      	mov	r3, r1
    16f6:	4610      	mov	r0, r2
    16f8:	4619      	mov	r1, r3
    16fa:	a337      	add	r3, pc, #220	; (adr r3, 17d8 <rt_OneStep+0x230>)
    16fc:	e9d3 2300 	ldrd	r2, r3, [r3]
    1700:	f004 facc 	bl	5c9c <__adddf3>
    1704:	4602      	mov	r2, r0
    1706:	460b      	mov	r3, r1
    1708:	4610      	mov	r0, r2
    170a:	4619      	mov	r1, r3
    170c:	f004 ff12 	bl	6534 <__aeabi_d2f>
    1710:	4602      	mov	r2, r0
    1712:	f240 6338 	movw	r3, #1592	; 0x638
    1716:	f2c2 0300 	movt	r3, #8192	; 0x2000
    171a:	601a      	str	r2, [r3, #0]
    171c:	f240 6330 	movw	r3, #1584	; 0x630
    1720:	f2c2 0300 	movt	r3, #8192	; 0x2000
    1724:	e9d3 2300 	ldrd	r2, r3, [r3]
    1728:	4610      	mov	r0, r2
    172a:	4619      	mov	r1, r3
    172c:	a32c      	add	r3, pc, #176	; (adr r3, 17e0 <rt_OneStep+0x238>)
    172e:	e9d3 2300 	ldrd	r2, r3, [r3]
    1732:	f004 fc65 	bl	6000 <__aeabi_dmul>
    1736:	4602      	mov	r2, r0
    1738:	460b      	mov	r3, r1
    173a:	4610      	mov	r0, r2
    173c:	4619      	mov	r1, r3
    173e:	a326      	add	r3, pc, #152	; (adr r3, 17d8 <rt_OneStep+0x230>)
    1740:	e9d3 2300 	ldrd	r2, r3, [r3]
    1744:	f004 faaa 	bl	5c9c <__adddf3>
    1748:	4602      	mov	r2, r0
    174a:	460b      	mov	r3, r1
    174c:	4610      	mov	r0, r2
    174e:	4619      	mov	r1, r3
    1750:	f004 fef0 	bl	6534 <__aeabi_d2f>
    1754:	4602      	mov	r2, r0
    1756:	f240 633c 	movw	r3, #1596	; 0x63c
    175a:	f2c2 0300 	movt	r3, #8192	; 0x2000
    175e:	601a      	str	r2, [r3, #0]
    1760:	f240 0350 	movw	r3, #80	; 0x50
    1764:	f2c2 0300 	movt	r3, #8192	; 0x2000
    1768:	681b      	ldr	r3, [r3, #0]
    176a:	f04f 0004 	mov.w	r0, #4
    176e:	4619      	mov	r1, r3
    1770:	f003 fd5a 	bl	5228 <PWM_GENERICO_salida_init>
    1774:	f240 0350 	movw	r3, #80	; 0x50
    1778:	f2c2 0300 	movt	r3, #8192	; 0x2000
    177c:	681b      	ldr	r3, [r3, #0]
    177e:	f04f 0005 	mov.w	r0, #5
    1782:	4619      	mov	r1, r3
    1784:	f003 fd50 	bl	5228 <PWM_GENERICO_salida_init>
    1788:	f240 6338 	movw	r3, #1592	; 0x638
    178c:	f2c2 0300 	movt	r3, #8192	; 0x2000
    1790:	681a      	ldr	r2, [r3, #0]
    1792:	f240 0350 	movw	r3, #80	; 0x50
    1796:	f2c2 0300 	movt	r3, #8192	; 0x2000
    179a:	681b      	ldr	r3, [r3, #0]
    179c:	4610      	mov	r0, r2
    179e:	f04f 0104 	mov.w	r1, #4
    17a2:	461a      	mov	r2, r3
    17a4:	f003 fe18 	bl	53d8 <PWM_GENERICO_cambiar_anchura_pulso>
    17a8:	f240 633c 	movw	r3, #1596	; 0x63c
    17ac:	f2c2 0300 	movt	r3, #8192	; 0x2000
    17b0:	681a      	ldr	r2, [r3, #0]
    17b2:	f240 0350 	movw	r3, #80	; 0x50
    17b6:	f2c2 0300 	movt	r3, #8192	; 0x2000
    17ba:	681b      	ldr	r3, [r3, #0]
    17bc:	4610      	mov	r0, r2
    17be:	f04f 0105 	mov.w	r1, #5
    17c2:	461a      	mov	r2, r3
    17c4:	f003 fe08 	bl	53d8 <PWM_GENERICO_cambiar_anchura_pulso>
    17c8:	bd80      	pop	{r7, pc}
    17ca:	bf00      	nop
    17cc:	f3af 8000 	nop.w
    17d0:	d2f1a9fc 	.word	0xd2f1a9fc
    17d4:	bf50624d 	.word	0xbf50624d
    17d8:	33333333 	.word	0x33333333
    17dc:	3fb33333 	.word	0x3fb33333
    17e0:	d2f1a9fc 	.word	0xd2f1a9fc
    17e4:	3f50624d 	.word	0x3f50624d

000017e8 <SYSTEM_TICK_coger_valor_ticks>:
    17e8:	b580      	push	{r7, lr}
    17ea:	b082      	sub	sp, #8
    17ec:	af00      	add	r7, sp, #0
    17ee:	f04f 0300 	mov.w	r3, #0
    17f2:	607b      	str	r3, [r7, #4]
    17f4:	f003 ffc4 	bl	5780 <SysTickValueGet>
    17f8:	6078      	str	r0, [r7, #4]
    17fa:	687b      	ldr	r3, [r7, #4]
    17fc:	4618      	mov	r0, r3
    17fe:	f107 0708 	add.w	r7, r7, #8
    1802:	46bd      	mov	sp, r7
    1804:	bd80      	pop	{r7, pc}
    1806:	bf00      	nop

00001808 <main>:
    1808:	b580      	push	{r7, lr}
    180a:	b084      	sub	sp, #16
    180c:	af04      	add	r7, sp, #16
    180e:	f004 fa1d 	bl	5c4c <CLOCK_inicializar_clock>
    1812:	f000 f94b 	bl	1aac <pwm_init>
    1816:	f7ff fdb7 	bl	1388 <stellaris_1_initialize>
    181a:	f002 fe6f 	bl	44fc <KEYPAD_inicializacion_keypad>
    181e:	f04f 0008 	mov.w	r0, #8
    1822:	f2c2 0000 	movt	r0, #8192	; 0x2000
    1826:	f000 fc2d 	bl	2084 <SysCtlPeripheralEnable>
    182a:	f04f 0004 	mov.w	r0, #4
    182e:	f04f 0106 	mov.w	r1, #6
    1832:	f7ff f879 	bl	928 <PINES_inicializar>
    1836:	f04f 0004 	mov.w	r0, #4
    183a:	f04f 0107 	mov.w	r1, #7
    183e:	f7ff f873 	bl	928 <PINES_inicializar>
    1842:	f04f 0020 	mov.w	r0, #32
    1846:	f2c2 0000 	movt	r0, #8192	; 0x2000
    184a:	f000 fc1b 	bl	2084 <SysCtlPeripheralEnable>
    184e:	f44f 40a0 	mov.w	r0, #20480	; 0x5000
    1852:	f2c4 0002 	movt	r0, #16386	; 0x4002
    1856:	f04f 0101 	mov.w	r1, #1
    185a:	f001 f9f3 	bl	2c44 <GPIOPinTypeGPIOOutput>
    185e:	f44f 40a0 	mov.w	r0, #20480	; 0x5000
    1862:	f2c4 0002 	movt	r0, #16386	; 0x4002
    1866:	f04f 0101 	mov.w	r1, #1
    186a:	f04f 0200 	mov.w	r2, #0
    186e:	f001 f99f 	bl	2bb0 <GPIOPinWrite>
    1872:	f04f 0004 	mov.w	r0, #4
    1876:	f2c2 0000 	movt	r0, #8192	; 0x2000
    187a:	f000 fc03 	bl	2084 <SysCtlPeripheralEnable>
    187e:	f44f 40c0 	mov.w	r0, #24576	; 0x6000
    1882:	f2c4 0000 	movt	r0, #16384	; 0x4000
    1886:	f04f 0120 	mov.w	r1, #32
    188a:	f001 f9db 	bl	2c44 <GPIOPinTypeGPIOOutput>
    188e:	f44f 40c0 	mov.w	r0, #24576	; 0x6000
    1892:	f2c4 0000 	movt	r0, #16384	; 0x4000
    1896:	f04f 0180 	mov.w	r1, #128	; 0x80
    189a:	f001 f9d3 	bl	2c44 <GPIOPinTypeGPIOOutput>
    189e:	f44f 40c0 	mov.w	r0, #24576	; 0x6000
    18a2:	f2c4 0000 	movt	r0, #16384	; 0x4000
    18a6:	f04f 01a0 	mov.w	r1, #160	; 0xa0
    18aa:	f04f 0201 	mov.w	r2, #1
    18ae:	f04f 030c 	mov.w	r3, #12
    18b2:	f001 f80f 	bl	28d4 <GPIOPadConfigSet>
    18b6:	f44f 40c0 	mov.w	r0, #24576	; 0x6000
    18ba:	f2c4 0000 	movt	r0, #16384	; 0x4000
    18be:	f04f 0120 	mov.w	r1, #32
    18c2:	f04f 0200 	mov.w	r2, #0
    18c6:	f001 f973 	bl	2bb0 <GPIOPinWrite>
    18ca:	f44f 40c0 	mov.w	r0, #24576	; 0x6000
    18ce:	f2c4 0000 	movt	r0, #16384	; 0x4000
    18d2:	f04f 0180 	mov.w	r1, #128	; 0x80
    18d6:	f04f 0200 	mov.w	r2, #0
    18da:	f001 f969 	bl	2bb0 <GPIOPinWrite>
    18de:	f04f 0040 	mov.w	r0, #64	; 0x40
    18e2:	f2c2 0000 	movt	r0, #8192	; 0x2000
    18e6:	f000 fbcd 	bl	2084 <SysCtlPeripheralEnable>
    18ea:	f44f 40c0 	mov.w	r0, #24576	; 0x6000
    18ee:	f2c4 0002 	movt	r0, #16386	; 0x4002
    18f2:	f04f 0101 	mov.w	r1, #1
    18f6:	f001 f9a5 	bl	2c44 <GPIOPinTypeGPIOOutput>
    18fa:	f44f 40c0 	mov.w	r0, #24576	; 0x6000
    18fe:	f2c4 0002 	movt	r0, #16386	; 0x4002
    1902:	f04f 0101 	mov.w	r1, #1
    1906:	f04f 0200 	mov.w	r2, #0
    190a:	f001 f951 	bl	2bb0 <GPIOPinWrite>
    190e:	f04f 0001 	mov.w	r0, #1
    1912:	f2c0 0010 	movt	r0, #16
    1916:	f000 fbb5 	bl	2084 <SysCtlPeripheralEnable>
    191a:	f04f 0000 	mov.w	r0, #0
    191e:	f000 ff03 	bl	2728 <SysCtlADCSpeedSet>
    1922:	f44f 4080 	mov.w	r0, #16384	; 0x4000
    1926:	f2c4 0002 	movt	r0, #16386	; 0x4002
    192a:	f04f 0180 	mov.w	r1, #128	; 0x80
    192e:	f001 f955 	bl	2bdc <GPIOPinTypeADC>
    1932:	f44f 4080 	mov.w	r0, #16384	; 0x4000
    1936:	f2c4 0002 	movt	r0, #16386	; 0x4002
    193a:	f04f 0140 	mov.w	r1, #64	; 0x40
    193e:	f001 f94d 	bl	2bdc <GPIOPinTypeADC>
    1942:	f44f 4000 	mov.w	r0, #32768	; 0x8000
    1946:	f2c4 0003 	movt	r0, #16387	; 0x4003
    194a:	f04f 0103 	mov.w	r1, #3
    194e:	f04f 0200 	mov.w	r2, #0
    1952:	f04f 0300 	mov.w	r3, #0
    1956:	f003 fa33 	bl	4dc0 <ADCSequenceConfigure>
    195a:	f44f 4000 	mov.w	r0, #32768	; 0x8000
    195e:	f2c4 0003 	movt	r0, #16387	; 0x4003
    1962:	f04f 0103 	mov.w	r1, #3
    1966:	f003 fa15 	bl	4d94 <ADCSequenceEnable>
    196a:	f04f 0004 	mov.w	r0, #4
    196e:	f04f 0106 	mov.w	r1, #6
    1972:	f7ff f88d 	bl	a90 <PINES_inicializar_int_both_edges>
    1976:	f04f 0004 	mov.w	r0, #4
    197a:	f04f 0107 	mov.w	r1, #7
    197e:	f7ff f887 	bl	a90 <PINES_inicializar_int_both_edges>
    1982:	f64c 3364 	movw	r3, #52068	; 0xcb64
    1986:	f2c0 0300 	movt	r3, #0
    198a:	f04f 0204 	mov.w	r2, #4
    198e:	9200      	str	r2, [sp, #0]
    1990:	f641 4258 	movw	r2, #7256	; 0x1c58
    1994:	f2c2 0200 	movt	r2, #8192	; 0x2000
    1998:	9201      	str	r2, [sp, #4]
    199a:	f04f 0200 	mov.w	r2, #0
    199e:	9202      	str	r2, [sp, #8]
    19a0:	f04f 0200 	mov.w	r2, #0
    19a4:	9203      	str	r2, [sp, #12]
    19a6:	f645 4061 	movw	r0, #23649	; 0x5c61
    19aa:	f2c0 0000 	movt	r0, #0
    19ae:	4619      	mov	r1, r3
    19b0:	f04f 02c8 	mov.w	r2, #200	; 0xc8
    19b4:	f04f 030a 	mov.w	r3, #10
    19b8:	f001 fad6 	bl	2f68 <xTaskGenericCreate>
    19bc:	f64c 3380 	movw	r3, #52096	; 0xcb80
    19c0:	f2c0 0300 	movt	r3, #0
    19c4:	f04f 0201 	mov.w	r2, #1
    19c8:	9200      	str	r2, [sp, #0]
    19ca:	f04f 0200 	mov.w	r2, #0
    19ce:	9201      	str	r2, [sp, #4]
    19d0:	f04f 0200 	mov.w	r2, #0
    19d4:	9202      	str	r2, [sp, #8]
    19d6:	f04f 0200 	mov.w	r2, #0
    19da:	9203      	str	r2, [sp, #12]
    19dc:	f645 4041 	movw	r0, #23617	; 0x5c41
    19e0:	f2c0 0000 	movt	r0, #0
    19e4:	4619      	mov	r1, r3
    19e6:	f04f 02c8 	mov.w	r2, #200	; 0xc8
    19ea:	f44f 737a 	mov.w	r3, #1000	; 0x3e8
    19ee:	f001 fabb 	bl	2f68 <xTaskGenericCreate>
    19f2:	f64c 338c 	movw	r3, #52108	; 0xcb8c
    19f6:	f2c0 0300 	movt	r3, #0
    19fa:	f04f 0202 	mov.w	r2, #2
    19fe:	9200      	str	r2, [sp, #0]
    1a00:	f04f 0200 	mov.w	r2, #0
    1a04:	9201      	str	r2, [sp, #4]
    1a06:	f04f 0200 	mov.w	r2, #0
    1a0a:	9202      	str	r2, [sp, #8]
    1a0c:	f04f 0200 	mov.w	r2, #0
    1a10:	9203      	str	r2, [sp, #12]
    1a12:	f241 5069 	movw	r0, #5481	; 0x1569
    1a16:	f2c0 0000 	movt	r0, #0
    1a1a:	4619      	mov	r1, r3
    1a1c:	f04f 02c8 	mov.w	r2, #200	; 0xc8
    1a20:	f44f 737a 	mov.w	r3, #1000	; 0x3e8
    1a24:	f001 faa0 	bl	2f68 <xTaskGenericCreate>
    1a28:	f64c 339c 	movw	r3, #52124	; 0xcb9c
    1a2c:	f2c0 0300 	movt	r3, #0
    1a30:	f04f 0205 	mov.w	r2, #5
    1a34:	9200      	str	r2, [sp, #0]
    1a36:	f04f 0200 	mov.w	r2, #0
    1a3a:	9201      	str	r2, [sp, #4]
    1a3c:	f04f 0200 	mov.w	r2, #0
    1a40:	9202      	str	r2, [sp, #8]
    1a42:	f04f 0200 	mov.w	r2, #0
    1a46:	9203      	str	r2, [sp, #12]
    1a48:	f643 3011 	movw	r0, #15121	; 0x3b11
    1a4c:	f2c0 0000 	movt	r0, #0
    1a50:	4619      	mov	r1, r3
    1a52:	f04f 02c8 	mov.w	r2, #200	; 0xc8
    1a56:	f44f 737a 	mov.w	r3, #1000	; 0x3e8
    1a5a:	f001 fa85 	bl	2f68 <xTaskGenericCreate>
    1a5e:	f64c 33ac 	movw	r3, #52140	; 0xcbac
    1a62:	f2c0 0300 	movt	r3, #0
    1a66:	f04f 0203 	mov.w	r2, #3
    1a6a:	9200      	str	r2, [sp, #0]
    1a6c:	f04f 0200 	mov.w	r2, #0
    1a70:	9201      	str	r2, [sp, #4]
    1a72:	f04f 0200 	mov.w	r2, #0
    1a76:	9202      	str	r2, [sp, #8]
    1a78:	f04f 0200 	mov.w	r2, #0
    1a7c:	9203      	str	r2, [sp, #12]
    1a7e:	f245 4045 	movw	r0, #21573	; 0x5445
    1a82:	f2c0 0000 	movt	r0, #0
    1a86:	4619      	mov	r1, r3
    1a88:	f04f 02c8 	mov.w	r2, #200	; 0xc8
    1a8c:	f04f 0301 	mov.w	r3, #1
    1a90:	f001 fa6a 	bl	2f68 <xTaskGenericCreate>
    1a94:	f641 4358 	movw	r3, #7256	; 0x1c58
    1a98:	f2c2 0300 	movt	r3, #8192	; 0x2000
    1a9c:	681b      	ldr	r3, [r3, #0]
    1a9e:	4618      	mov	r0, r3
    1aa0:	f001 fb90 	bl	31c4 <vTaskSuspend>
    1aa4:	f001 fc6c 	bl	3380 <vTaskStartScheduler>
    1aa8:	e7fe      	b.n	1aa8 <main+0x2a0>
    1aaa:	bf00      	nop

00001aac <pwm_init>:
    1aac:	b580      	push	{r7, lr}
    1aae:	af00      	add	r7, sp, #0
    1ab0:	f04f 0004 	mov.w	r0, #4
    1ab4:	f644 6120 	movw	r1, #20000	; 0x4e20
    1ab8:	f003 fbb6 	bl	5228 <PWM_GENERICO_salida_init>
    1abc:	f04f 0005 	mov.w	r0, #5
    1ac0:	f644 6120 	movw	r1, #20000	; 0x4e20
    1ac4:	f003 fbb0 	bl	5228 <PWM_GENERICO_salida_init>
    1ac8:	bd80      	pop	{r7, pc}
    1aca:	bf00      	nop

00001acc <FRAME_BUFFER_init>:
    1acc:	b580      	push	{r7, lr}
    1ace:	b082      	sub	sp, #8
    1ad0:	af00      	add	r7, sp, #0
    1ad2:	f04f 0300 	mov.w	r3, #0
    1ad6:	607b      	str	r3, [r7, #4]
    1ad8:	f001 fa3c 	bl	2f54 <DISPLAY_GENERICO_init>
    1adc:	f04f 0300 	mov.w	r3, #0
    1ae0:	607b      	str	r3, [r7, #4]
    1ae2:	e071      	b.n	1bc8 <FRAME_BUFFER_init+0xfc>
    1ae4:	f641 425c 	movw	r2, #7260	; 0x1c5c
    1ae8:	f2c2 0200 	movt	r2, #8192	; 0x2000
    1aec:	6879      	ldr	r1, [r7, #4]
    1aee:	460b      	mov	r3, r1
    1af0:	ea4f 03c3 	mov.w	r3, r3, lsl #3
    1af4:	185b      	adds	r3, r3, r1
    1af6:	ea4f 0383 	mov.w	r3, r3, lsl #2
    1afa:	18d3      	adds	r3, r2, r3
    1afc:	687a      	ldr	r2, [r7, #4]
    1afe:	601a      	str	r2, [r3, #0]
    1b00:	f641 425c 	movw	r2, #7260	; 0x1c5c
    1b04:	f2c2 0200 	movt	r2, #8192	; 0x2000
    1b08:	6879      	ldr	r1, [r7, #4]
    1b0a:	460b      	mov	r3, r1
    1b0c:	ea4f 03c3 	mov.w	r3, r3, lsl #3
    1b10:	185b      	adds	r3, r3, r1
    1b12:	ea4f 0383 	mov.w	r3, r3, lsl #2
    1b16:	18d3      	adds	r3, r2, r3
    1b18:	f103 0304 	add.w	r3, r3, #4
    1b1c:	687a      	ldr	r2, [r7, #4]
    1b1e:	601a      	str	r2, [r3, #0]
    1b20:	f641 425c 	movw	r2, #7260	; 0x1c5c
    1b24:	f2c2 0200 	movt	r2, #8192	; 0x2000
    1b28:	6879      	ldr	r1, [r7, #4]
    1b2a:	460b      	mov	r3, r1
    1b2c:	ea4f 03c3 	mov.w	r3, r3, lsl #3
    1b30:	185b      	adds	r3, r3, r1
    1b32:	ea4f 0383 	mov.w	r3, r3, lsl #2
    1b36:	18d3      	adds	r3, r2, r3
    1b38:	f103 0308 	add.w	r3, r3, #8
    1b3c:	687a      	ldr	r2, [r7, #4]
    1b3e:	601a      	str	r2, [r3, #0]
    1b40:	f641 425c 	movw	r2, #7260	; 0x1c5c
    1b44:	f2c2 0200 	movt	r2, #8192	; 0x2000
    1b48:	6879      	ldr	r1, [r7, #4]
    1b4a:	460b      	mov	r3, r1
    1b4c:	ea4f 03c3 	mov.w	r3, r3, lsl #3
    1b50:	185b      	adds	r3, r3, r1
    1b52:	ea4f 0383 	mov.w	r3, r3, lsl #2
    1b56:	18d3      	adds	r3, r2, r3
    1b58:	f103 0314 	add.w	r3, r3, #20
    1b5c:	687a      	ldr	r2, [r7, #4]
    1b5e:	601a      	str	r2, [r3, #0]
    1b60:	f641 425c 	movw	r2, #7260	; 0x1c5c
    1b64:	f2c2 0200 	movt	r2, #8192	; 0x2000
    1b68:	6879      	ldr	r1, [r7, #4]
    1b6a:	460b      	mov	r3, r1
    1b6c:	ea4f 03c3 	mov.w	r3, r3, lsl #3
    1b70:	185b      	adds	r3, r3, r1
    1b72:	ea4f 0383 	mov.w	r3, r3, lsl #2
    1b76:	18d3      	adds	r3, r2, r3
    1b78:	f103 0318 	add.w	r3, r3, #24
    1b7c:	687a      	ldr	r2, [r7, #4]
    1b7e:	601a      	str	r2, [r3, #0]
    1b80:	6878      	ldr	r0, [r7, #4]
    1b82:	f641 425c 	movw	r2, #7260	; 0x1c5c
    1b86:	f2c2 0200 	movt	r2, #8192	; 0x2000
    1b8a:	6879      	ldr	r1, [r7, #4]
    1b8c:	460b      	mov	r3, r1
    1b8e:	ea4f 03c3 	mov.w	r3, r3, lsl #3
    1b92:	185b      	adds	r3, r3, r1
    1b94:	ea4f 0383 	mov.w	r3, r3, lsl #2
    1b98:	18d3      	adds	r3, r2, r3
    1b9a:	f103 031c 	add.w	r3, r3, #28
    1b9e:	6018      	str	r0, [r3, #0]
    1ba0:	f641 425c 	movw	r2, #7260	; 0x1c5c
    1ba4:	f2c2 0200 	movt	r2, #8192	; 0x2000
    1ba8:	6879      	ldr	r1, [r7, #4]
    1baa:	460b      	mov	r3, r1
    1bac:	ea4f 03c3 	mov.w	r3, r3, lsl #3
    1bb0:	185b      	adds	r3, r3, r1
    1bb2:	ea4f 0383 	mov.w	r3, r3, lsl #2
    1bb6:	18d3      	adds	r3, r2, r3
    1bb8:	f103 0320 	add.w	r3, r3, #32
    1bbc:	687a      	ldr	r2, [r7, #4]
    1bbe:	601a      	str	r2, [r3, #0]
    1bc0:	687b      	ldr	r3, [r7, #4]
    1bc2:	f103 0301 	add.w	r3, r3, #1
    1bc6:	607b      	str	r3, [r7, #4]
    1bc8:	687b      	ldr	r3, [r7, #4]
    1bca:	2b13      	cmp	r3, #19
    1bcc:	dd8a      	ble.n	1ae4 <FRAME_BUFFER_init+0x18>
    1bce:	f107 0708 	add.w	r7, r7, #8
    1bd2:	46bd      	mov	sp, r7
    1bd4:	bd80      	pop	{r7, pc}
    1bd6:	bf00      	nop

00001bd8 <FRAME_BUFFER_insert_text>:
    1bd8:	b480      	push	{r7}
    1bda:	b085      	sub	sp, #20
    1bdc:	af00      	add	r7, sp, #0
    1bde:	60f8      	str	r0, [r7, #12]
    1be0:	60b9      	str	r1, [r7, #8]
    1be2:	607a      	str	r2, [r7, #4]
    1be4:	f240 6360 	movw	r3, #1632	; 0x660
    1be8:	f2c2 0300 	movt	r3, #8192	; 0x2000
    1bec:	681b      	ldr	r3, [r3, #0]
    1bee:	2b13      	cmp	r3, #19
    1bf0:	f300 809d 	bgt.w	1d2e <FRAME_BUFFER_insert_text+0x156>
    1bf4:	f240 6360 	movw	r3, #1632	; 0x660
    1bf8:	f2c2 0300 	movt	r3, #8192	; 0x2000
    1bfc:	6819      	ldr	r1, [r3, #0]
    1bfe:	f240 6360 	movw	r3, #1632	; 0x660
    1c02:	f2c2 0300 	movt	r3, #8192	; 0x2000
    1c06:	6818      	ldr	r0, [r3, #0]
    1c08:	f641 425c 	movw	r2, #7260	; 0x1c5c
    1c0c:	f2c2 0200 	movt	r2, #8192	; 0x2000
    1c10:	460b      	mov	r3, r1
    1c12:	ea4f 03c3 	mov.w	r3, r3, lsl #3
    1c16:	185b      	adds	r3, r3, r1
    1c18:	ea4f 0383 	mov.w	r3, r3, lsl #2
    1c1c:	18d3      	adds	r3, r2, r3
    1c1e:	6018      	str	r0, [r3, #0]
    1c20:	f240 6360 	movw	r3, #1632	; 0x660
    1c24:	f2c2 0300 	movt	r3, #8192	; 0x2000
    1c28:	6819      	ldr	r1, [r3, #0]
    1c2a:	f641 425c 	movw	r2, #7260	; 0x1c5c
    1c2e:	f2c2 0200 	movt	r2, #8192	; 0x2000
    1c32:	460b      	mov	r3, r1
    1c34:	ea4f 03c3 	mov.w	r3, r3, lsl #3
    1c38:	185b      	adds	r3, r3, r1
    1c3a:	ea4f 0383 	mov.w	r3, r3, lsl #2
    1c3e:	18d3      	adds	r3, r2, r3
    1c40:	f103 031c 	add.w	r3, r3, #28
    1c44:	68fa      	ldr	r2, [r7, #12]
    1c46:	601a      	str	r2, [r3, #0]
    1c48:	f240 6360 	movw	r3, #1632	; 0x660
    1c4c:	f2c2 0300 	movt	r3, #8192	; 0x2000
    1c50:	6819      	ldr	r1, [r3, #0]
    1c52:	f641 425c 	movw	r2, #7260	; 0x1c5c
    1c56:	f2c2 0200 	movt	r2, #8192	; 0x2000
    1c5a:	460b      	mov	r3, r1
    1c5c:	ea4f 03c3 	mov.w	r3, r3, lsl #3
    1c60:	185b      	adds	r3, r3, r1
    1c62:	ea4f 0383 	mov.w	r3, r3, lsl #2
    1c66:	18d3      	adds	r3, r2, r3
    1c68:	f103 0320 	add.w	r3, r3, #32
    1c6c:	f04f 0201 	mov.w	r2, #1
    1c70:	601a      	str	r2, [r3, #0]
    1c72:	f240 6360 	movw	r3, #1632	; 0x660
    1c76:	f2c2 0300 	movt	r3, #8192	; 0x2000
    1c7a:	6819      	ldr	r1, [r3, #0]
    1c7c:	f641 425c 	movw	r2, #7260	; 0x1c5c
    1c80:	f2c2 0200 	movt	r2, #8192	; 0x2000
    1c84:	460b      	mov	r3, r1
    1c86:	ea4f 03c3 	mov.w	r3, r3, lsl #3
    1c8a:	185b      	adds	r3, r3, r1
    1c8c:	ea4f 0383 	mov.w	r3, r3, lsl #2
    1c90:	18d3      	adds	r3, r2, r3
    1c92:	f103 0304 	add.w	r3, r3, #4
    1c96:	68ba      	ldr	r2, [r7, #8]
    1c98:	601a      	str	r2, [r3, #0]
    1c9a:	f240 6360 	movw	r3, #1632	; 0x660
    1c9e:	f2c2 0300 	movt	r3, #8192	; 0x2000
    1ca2:	6819      	ldr	r1, [r3, #0]
    1ca4:	f641 425c 	movw	r2, #7260	; 0x1c5c
    1ca8:	f2c2 0200 	movt	r2, #8192	; 0x2000
    1cac:	460b      	mov	r3, r1
    1cae:	ea4f 03c3 	mov.w	r3, r3, lsl #3
    1cb2:	185b      	adds	r3, r3, r1
    1cb4:	ea4f 0383 	mov.w	r3, r3, lsl #2
    1cb8:	18d3      	adds	r3, r2, r3
    1cba:	f103 0308 	add.w	r3, r3, #8
    1cbe:	687a      	ldr	r2, [r7, #4]
    1cc0:	601a      	str	r2, [r3, #0]
    1cc2:	f240 6360 	movw	r3, #1632	; 0x660
    1cc6:	f2c2 0300 	movt	r3, #8192	; 0x2000
    1cca:	6819      	ldr	r1, [r3, #0]
    1ccc:	f641 425c 	movw	r2, #7260	; 0x1c5c
    1cd0:	f2c2 0200 	movt	r2, #8192	; 0x2000
    1cd4:	460b      	mov	r3, r1
    1cd6:	ea4f 03c3 	mov.w	r3, r3, lsl #3
    1cda:	185b      	adds	r3, r3, r1
    1cdc:	ea4f 0383 	mov.w	r3, r3, lsl #2
    1ce0:	18d3      	adds	r3, r2, r3
    1ce2:	f103 0314 	add.w	r3, r3, #20
    1ce6:	f04f 0200 	mov.w	r2, #0
    1cea:	601a      	str	r2, [r3, #0]
    1cec:	f240 6360 	movw	r3, #1632	; 0x660
    1cf0:	f2c2 0300 	movt	r3, #8192	; 0x2000
    1cf4:	6819      	ldr	r1, [r3, #0]
    1cf6:	f641 425c 	movw	r2, #7260	; 0x1c5c
    1cfa:	f2c2 0200 	movt	r2, #8192	; 0x2000
    1cfe:	460b      	mov	r3, r1
    1d00:	ea4f 03c3 	mov.w	r3, r3, lsl #3
    1d04:	185b      	adds	r3, r3, r1
    1d06:	ea4f 0383 	mov.w	r3, r3, lsl #2
    1d0a:	18d3      	adds	r3, r2, r3
    1d0c:	f103 0318 	add.w	r3, r3, #24
    1d10:	f04f 0200 	mov.w	r2, #0
    1d14:	601a      	str	r2, [r3, #0]
    1d16:	f240 6360 	movw	r3, #1632	; 0x660
    1d1a:	f2c2 0300 	movt	r3, #8192	; 0x2000
    1d1e:	681b      	ldr	r3, [r3, #0]
    1d20:	f103 0201 	add.w	r2, r3, #1
    1d24:	f240 6360 	movw	r3, #1632	; 0x660
    1d28:	f2c2 0300 	movt	r3, #8192	; 0x2000
    1d2c:	601a      	str	r2, [r3, #0]
    1d2e:	f240 6360 	movw	r3, #1632	; 0x660
    1d32:	f2c2 0300 	movt	r3, #8192	; 0x2000
    1d36:	681b      	ldr	r3, [r3, #0]
    1d38:	4618      	mov	r0, r3
    1d3a:	f107 0714 	add.w	r7, r7, #20
    1d3e:	46bd      	mov	sp, r7
    1d40:	bc80      	pop	{r7}
    1d42:	4770      	bx	lr

00001d44 <FRAME_BUFFER_change_text>:
    1d44:	b480      	push	{r7}
    1d46:	b083      	sub	sp, #12
    1d48:	af00      	add	r7, sp, #0
    1d4a:	6078      	str	r0, [r7, #4]
    1d4c:	6039      	str	r1, [r7, #0]
    1d4e:	f641 425c 	movw	r2, #7260	; 0x1c5c
    1d52:	f2c2 0200 	movt	r2, #8192	; 0x2000
    1d56:	6839      	ldr	r1, [r7, #0]
    1d58:	460b      	mov	r3, r1
    1d5a:	ea4f 03c3 	mov.w	r3, r3, lsl #3
    1d5e:	185b      	adds	r3, r3, r1
    1d60:	ea4f 0383 	mov.w	r3, r3, lsl #2
    1d64:	18d3      	adds	r3, r2, r3
    1d66:	f103 031c 	add.w	r3, r3, #28
    1d6a:	687a      	ldr	r2, [r7, #4]
    1d6c:	601a      	str	r2, [r3, #0]
    1d6e:	f641 425c 	movw	r2, #7260	; 0x1c5c
    1d72:	f2c2 0200 	movt	r2, #8192	; 0x2000
    1d76:	6839      	ldr	r1, [r7, #0]
    1d78:	460b      	mov	r3, r1
    1d7a:	ea4f 03c3 	mov.w	r3, r3, lsl #3
    1d7e:	185b      	adds	r3, r3, r1
    1d80:	ea4f 0383 	mov.w	r3, r3, lsl #2
    1d84:	18d3      	adds	r3, r2, r3
    1d86:	f103 0320 	add.w	r3, r3, #32
    1d8a:	f04f 0201 	mov.w	r2, #1
    1d8e:	601a      	str	r2, [r3, #0]
    1d90:	f107 070c 	add.w	r7, r7, #12
    1d94:	46bd      	mov	sp, r7
    1d96:	bc80      	pop	{r7}
    1d98:	4770      	bx	lr
    1d9a:	bf00      	nop

00001d9c <FRAME_BUFFER_write_to_display>:
    1d9c:	b5f0      	push	{r4, r5, r6, r7, lr}
    1d9e:	b08f      	sub	sp, #60	; 0x3c
    1da0:	af02      	add	r7, sp, #8
    1da2:	f04f 0300 	mov.w	r3, #0
    1da6:	62fb      	str	r3, [r7, #44]	; 0x2c
    1da8:	f04f 0300 	mov.w	r3, #0
    1dac:	627b      	str	r3, [r7, #36]	; 0x24
    1dae:	f04f 0300 	mov.w	r3, #0
    1db2:	62bb      	str	r3, [r7, #40]	; 0x28
    1db4:	f04f 0300 	mov.w	r3, #0
    1db8:	62fb      	str	r3, [r7, #44]	; 0x2c
    1dba:	e155      	b.n	2068 <FRAME_BUFFER_write_to_display+0x2cc>
    1dbc:	f641 425c 	movw	r2, #7260	; 0x1c5c
    1dc0:	f2c2 0200 	movt	r2, #8192	; 0x2000
    1dc4:	6af9      	ldr	r1, [r7, #44]	; 0x2c
    1dc6:	460b      	mov	r3, r1
    1dc8:	ea4f 03c3 	mov.w	r3, r3, lsl #3
    1dcc:	185b      	adds	r3, r3, r1
    1dce:	ea4f 0383 	mov.w	r3, r3, lsl #2
    1dd2:	18d3      	adds	r3, r2, r3
    1dd4:	f103 030c 	add.w	r3, r3, #12
    1dd8:	6818      	ldr	r0, [r3, #0]
    1dda:	f641 425c 	movw	r2, #7260	; 0x1c5c
    1dde:	f2c2 0200 	movt	r2, #8192	; 0x2000
    1de2:	6af9      	ldr	r1, [r7, #44]	; 0x2c
    1de4:	460b      	mov	r3, r1
    1de6:	ea4f 03c3 	mov.w	r3, r3, lsl #3
    1dea:	185b      	adds	r3, r3, r1
    1dec:	ea4f 0383 	mov.w	r3, r3, lsl #2
    1df0:	18d3      	adds	r3, r2, r3
    1df2:	f103 0304 	add.w	r3, r3, #4
    1df6:	681b      	ldr	r3, [r3, #0]
    1df8:	4298      	cmp	r0, r3
    1dfa:	d120      	bne.n	1e3e <FRAME_BUFFER_write_to_display+0xa2>
    1dfc:	f641 425c 	movw	r2, #7260	; 0x1c5c
    1e00:	f2c2 0200 	movt	r2, #8192	; 0x2000
    1e04:	6af9      	ldr	r1, [r7, #44]	; 0x2c
    1e06:	460b      	mov	r3, r1
    1e08:	ea4f 03c3 	mov.w	r3, r3, lsl #3
    1e0c:	185b      	adds	r3, r3, r1
    1e0e:	ea4f 0383 	mov.w	r3, r3, lsl #2
    1e12:	18d3      	adds	r3, r2, r3
    1e14:	f103 0310 	add.w	r3, r3, #16
    1e18:	6818      	ldr	r0, [r3, #0]
    1e1a:	f641 425c 	movw	r2, #7260	; 0x1c5c
    1e1e:	f2c2 0200 	movt	r2, #8192	; 0x2000
    1e22:	6af9      	ldr	r1, [r7, #44]	; 0x2c
    1e24:	460b      	mov	r3, r1
    1e26:	ea4f 03c3 	mov.w	r3, r3, lsl #3
    1e2a:	185b      	adds	r3, r3, r1
    1e2c:	ea4f 0383 	mov.w	r3, r3, lsl #2
    1e30:	18d3      	adds	r3, r2, r3
    1e32:	f103 0308 	add.w	r3, r3, #8
    1e36:	681b      	ldr	r3, [r3, #0]
    1e38:	4298      	cmp	r0, r3
    1e3a:	f000 8111 	beq.w	2060 <FRAME_BUFFER_write_to_display+0x2c4>
    1e3e:	f641 425c 	movw	r2, #7260	; 0x1c5c
    1e42:	f2c2 0200 	movt	r2, #8192	; 0x2000
    1e46:	6af9      	ldr	r1, [r7, #44]	; 0x2c
    1e48:	460b      	mov	r3, r1
    1e4a:	ea4f 03c3 	mov.w	r3, r3, lsl #3
    1e4e:	185b      	adds	r3, r3, r1
    1e50:	ea4f 0383 	mov.w	r3, r3, lsl #2
    1e54:	18d3      	adds	r3, r2, r3
    1e56:	f103 0320 	add.w	r3, r3, #32
    1e5a:	681b      	ldr	r3, [r3, #0]
    1e5c:	2b01      	cmp	r3, #1
    1e5e:	d162      	bne.n	1f26 <FRAME_BUFFER_write_to_display+0x18a>
    1e60:	f641 425c 	movw	r2, #7260	; 0x1c5c
    1e64:	f2c2 0200 	movt	r2, #8192	; 0x2000
    1e68:	6af9      	ldr	r1, [r7, #44]	; 0x2c
    1e6a:	460b      	mov	r3, r1
    1e6c:	ea4f 03c3 	mov.w	r3, r3, lsl #3
    1e70:	185b      	adds	r3, r3, r1
    1e72:	ea4f 0383 	mov.w	r3, r3, lsl #2
    1e76:	18d3      	adds	r3, r2, r3
    1e78:	f103 031c 	add.w	r3, r3, #28
    1e7c:	681b      	ldr	r3, [r3, #0]
    1e7e:	4618      	mov	r0, r3
    1e80:	f004 ffe8 	bl	6e54 <strlen>
    1e84:	4603      	mov	r3, r0
    1e86:	627b      	str	r3, [r7, #36]	; 0x24
    1e88:	f04f 0300 	mov.w	r3, #0
    1e8c:	62bb      	str	r3, [r7, #40]	; 0x28
    1e8e:	e00a      	b.n	1ea6 <FRAME_BUFFER_write_to_display+0x10a>
    1e90:	f107 0204 	add.w	r2, r7, #4
    1e94:	6abb      	ldr	r3, [r7, #40]	; 0x28
    1e96:	18d3      	adds	r3, r2, r3
    1e98:	f04f 0220 	mov.w	r2, #32
    1e9c:	701a      	strb	r2, [r3, #0]
    1e9e:	6abb      	ldr	r3, [r7, #40]	; 0x28
    1ea0:	f103 0301 	add.w	r3, r3, #1
    1ea4:	62bb      	str	r3, [r7, #40]	; 0x28
    1ea6:	6aba      	ldr	r2, [r7, #40]	; 0x28
    1ea8:	6a7b      	ldr	r3, [r7, #36]	; 0x24
    1eaa:	429a      	cmp	r2, r3
    1eac:	dbf0      	blt.n	1e90 <FRAME_BUFFER_write_to_display+0xf4>
    1eae:	f107 0204 	add.w	r2, r7, #4
    1eb2:	6abb      	ldr	r3, [r7, #40]	; 0x28
    1eb4:	18d3      	adds	r3, r2, r3
    1eb6:	f04f 0200 	mov.w	r2, #0
    1eba:	701a      	strb	r2, [r3, #0]
    1ebc:	f641 425c 	movw	r2, #7260	; 0x1c5c
    1ec0:	f2c2 0200 	movt	r2, #8192	; 0x2000
    1ec4:	6af9      	ldr	r1, [r7, #44]	; 0x2c
    1ec6:	460b      	mov	r3, r1
    1ec8:	ea4f 03c3 	mov.w	r3, r3, lsl #3
    1ecc:	185b      	adds	r3, r3, r1
    1ece:	ea4f 0383 	mov.w	r3, r3, lsl #2
    1ed2:	18d3      	adds	r3, r2, r3
    1ed4:	f103 031c 	add.w	r3, r3, #28
    1ed8:	6818      	ldr	r0, [r3, #0]
    1eda:	f641 425c 	movw	r2, #7260	; 0x1c5c
    1ede:	f2c2 0200 	movt	r2, #8192	; 0x2000
    1ee2:	6af9      	ldr	r1, [r7, #44]	; 0x2c
    1ee4:	460b      	mov	r3, r1
    1ee6:	ea4f 03c3 	mov.w	r3, r3, lsl #3
    1eea:	185b      	adds	r3, r3, r1
    1eec:	ea4f 0383 	mov.w	r3, r3, lsl #2
    1ef0:	18d3      	adds	r3, r2, r3
    1ef2:	f103 0304 	add.w	r3, r3, #4
    1ef6:	681b      	ldr	r3, [r3, #0]
    1ef8:	461c      	mov	r4, r3
    1efa:	f641 425c 	movw	r2, #7260	; 0x1c5c
    1efe:	f2c2 0200 	movt	r2, #8192	; 0x2000
    1f02:	6af9      	ldr	r1, [r7, #44]	; 0x2c
    1f04:	460b      	mov	r3, r1
    1f06:	ea4f 03c3 	mov.w	r3, r3, lsl #3
    1f0a:	185b      	adds	r3, r3, r1
    1f0c:	ea4f 0383 	mov.w	r3, r3, lsl #2
    1f10:	18d3      	adds	r3, r2, r3
    1f12:	f103 0308 	add.w	r3, r3, #8
    1f16:	681b      	ldr	r3, [r3, #0]
    1f18:	4621      	mov	r1, r4
    1f1a:	461a      	mov	r2, r3
    1f1c:	f04f 030f 	mov.w	r3, #15
    1f20:	f000 fff2 	bl	2f08 <DISPLAY_GENERICO_dibuja_string>
    1f24:	e09c      	b.n	2060 <FRAME_BUFFER_write_to_display+0x2c4>
    1f26:	f641 425c 	movw	r2, #7260	; 0x1c5c
    1f2a:	f2c2 0200 	movt	r2, #8192	; 0x2000
    1f2e:	6af9      	ldr	r1, [r7, #44]	; 0x2c
    1f30:	460b      	mov	r3, r1
    1f32:	ea4f 03c3 	mov.w	r3, r3, lsl #3
    1f36:	185b      	adds	r3, r3, r1
    1f38:	ea4f 0383 	mov.w	r3, r3, lsl #2
    1f3c:	18d3      	adds	r3, r2, r3
    1f3e:	f103 030c 	add.w	r3, r3, #12
    1f42:	681b      	ldr	r3, [r3, #0]
    1f44:	461e      	mov	r6, r3
    1f46:	f641 425c 	movw	r2, #7260	; 0x1c5c
    1f4a:	f2c2 0200 	movt	r2, #8192	; 0x2000
    1f4e:	6af9      	ldr	r1, [r7, #44]	; 0x2c
    1f50:	460b      	mov	r3, r1
    1f52:	ea4f 03c3 	mov.w	r3, r3, lsl #3
    1f56:	185b      	adds	r3, r3, r1
    1f58:	ea4f 0383 	mov.w	r3, r3, lsl #2
    1f5c:	18d3      	adds	r3, r2, r3
    1f5e:	f103 0310 	add.w	r3, r3, #16
    1f62:	681b      	ldr	r3, [r3, #0]
    1f64:	461d      	mov	r5, r3
    1f66:	f641 425c 	movw	r2, #7260	; 0x1c5c
    1f6a:	f2c2 0200 	movt	r2, #8192	; 0x2000
    1f6e:	6af9      	ldr	r1, [r7, #44]	; 0x2c
    1f70:	460b      	mov	r3, r1
    1f72:	ea4f 03c3 	mov.w	r3, r3, lsl #3
    1f76:	185b      	adds	r3, r3, r1
    1f78:	ea4f 0383 	mov.w	r3, r3, lsl #2
    1f7c:	18d3      	adds	r3, r2, r3
    1f7e:	f103 0314 	add.w	r3, r3, #20
    1f82:	681b      	ldr	r3, [r3, #0]
    1f84:	461c      	mov	r4, r3
    1f86:	f641 425c 	movw	r2, #7260	; 0x1c5c
    1f8a:	f2c2 0200 	movt	r2, #8192	; 0x2000
    1f8e:	6af9      	ldr	r1, [r7, #44]	; 0x2c
    1f90:	460b      	mov	r3, r1
    1f92:	ea4f 03c3 	mov.w	r3, r3, lsl #3
    1f96:	185b      	adds	r3, r3, r1
    1f98:	ea4f 0383 	mov.w	r3, r3, lsl #2
    1f9c:	18d3      	adds	r3, r2, r3
    1f9e:	f103 0318 	add.w	r3, r3, #24
    1fa2:	681b      	ldr	r3, [r3, #0]
    1fa4:	9300      	str	r3, [sp, #0]
    1fa6:	f64c 30f8 	movw	r0, #52216	; 0xcbf8
    1faa:	f2c0 0000 	movt	r0, #0
    1fae:	4631      	mov	r1, r6
    1fb0:	462a      	mov	r2, r5
    1fb2:	4623      	mov	r3, r4
    1fb4:	f000 ffba 	bl	2f2c <DISPLAY_GENERICO_dibuja_imagen>
    1fb8:	f641 425c 	movw	r2, #7260	; 0x1c5c
    1fbc:	f2c2 0200 	movt	r2, #8192	; 0x2000
    1fc0:	6af9      	ldr	r1, [r7, #44]	; 0x2c
    1fc2:	460b      	mov	r3, r1
    1fc4:	ea4f 03c3 	mov.w	r3, r3, lsl #3
    1fc8:	185b      	adds	r3, r3, r1
    1fca:	ea4f 0383 	mov.w	r3, r3, lsl #2
    1fce:	18d3      	adds	r3, r2, r3
    1fd0:	f103 031c 	add.w	r3, r3, #28
    1fd4:	6818      	ldr	r0, [r3, #0]
    1fd6:	f641 425c 	movw	r2, #7260	; 0x1c5c
    1fda:	f2c2 0200 	movt	r2, #8192	; 0x2000
    1fde:	6af9      	ldr	r1, [r7, #44]	; 0x2c
    1fe0:	460b      	mov	r3, r1
    1fe2:	ea4f 03c3 	mov.w	r3, r3, lsl #3
    1fe6:	185b      	adds	r3, r3, r1
    1fe8:	ea4f 0383 	mov.w	r3, r3, lsl #2
    1fec:	18d3      	adds	r3, r2, r3
    1fee:	f103 0304 	add.w	r3, r3, #4
    1ff2:	681b      	ldr	r3, [r3, #0]
    1ff4:	461e      	mov	r6, r3
    1ff6:	f641 425c 	movw	r2, #7260	; 0x1c5c
    1ffa:	f2c2 0200 	movt	r2, #8192	; 0x2000
    1ffe:	6af9      	ldr	r1, [r7, #44]	; 0x2c
    2000:	460b      	mov	r3, r1
    2002:	ea4f 03c3 	mov.w	r3, r3, lsl #3
    2006:	185b      	adds	r3, r3, r1
    2008:	ea4f 0383 	mov.w	r3, r3, lsl #2
    200c:	18d3      	adds	r3, r2, r3
    200e:	f103 0308 	add.w	r3, r3, #8
    2012:	681b      	ldr	r3, [r3, #0]
    2014:	461d      	mov	r5, r3
    2016:	f641 425c 	movw	r2, #7260	; 0x1c5c
    201a:	f2c2 0200 	movt	r2, #8192	; 0x2000
    201e:	6af9      	ldr	r1, [r7, #44]	; 0x2c
    2020:	460b      	mov	r3, r1
    2022:	ea4f 03c3 	mov.w	r3, r3, lsl #3
    2026:	185b      	adds	r3, r3, r1
    2028:	ea4f 0383 	mov.w	r3, r3, lsl #2
    202c:	18d3      	adds	r3, r2, r3
    202e:	f103 0314 	add.w	r3, r3, #20
    2032:	681b      	ldr	r3, [r3, #0]
    2034:	461c      	mov	r4, r3
    2036:	f641 425c 	movw	r2, #7260	; 0x1c5c
    203a:	f2c2 0200 	movt	r2, #8192	; 0x2000
    203e:	6af9      	ldr	r1, [r7, #44]	; 0x2c
    2040:	460b      	mov	r3, r1
    2042:	ea4f 03c3 	mov.w	r3, r3, lsl #3
    2046:	185b      	adds	r3, r3, r1
    2048:	ea4f 0383 	mov.w	r3, r3, lsl #2
    204c:	18d3      	adds	r3, r2, r3
    204e:	f103 0318 	add.w	r3, r3, #24
    2052:	681b      	ldr	r3, [r3, #0]
    2054:	9300      	str	r3, [sp, #0]
    2056:	4631      	mov	r1, r6
    2058:	462a      	mov	r2, r5
    205a:	4623      	mov	r3, r4
    205c:	f000 ff66 	bl	2f2c <DISPLAY_GENERICO_dibuja_imagen>
    2060:	6afb      	ldr	r3, [r7, #44]	; 0x2c
    2062:	f103 0301 	add.w	r3, r3, #1
    2066:	62fb      	str	r3, [r7, #44]	; 0x2c
    2068:	f240 6360 	movw	r3, #1632	; 0x660
    206c:	f2c2 0300 	movt	r3, #8192	; 0x2000
    2070:	681b      	ldr	r3, [r3, #0]
    2072:	6afa      	ldr	r2, [r7, #44]	; 0x2c
    2074:	429a      	cmp	r2, r3
    2076:	f6ff aea1 	blt.w	1dbc <FRAME_BUFFER_write_to_display+0x20>
    207a:	f107 0734 	add.w	r7, r7, #52	; 0x34
    207e:	46bd      	mov	sp, r7
    2080:	bdf0      	pop	{r4, r5, r6, r7, pc}
    2082:	bf00      	nop

00002084 <SysCtlPeripheralEnable>:
    2084:	b480      	push	{r7}
    2086:	b083      	sub	sp, #12
    2088:	af00      	add	r7, sp, #0
    208a:	6078      	str	r0, [r7, #4]
    208c:	687b      	ldr	r3, [r7, #4]
    208e:	ea4f 7213 	mov.w	r2, r3, lsr #28
    2092:	f64c 4350 	movw	r3, #52304	; 0xcc50
    2096:	f2c0 0300 	movt	r3, #0
    209a:	f853 3022 	ldr.w	r3, [r3, r2, lsl #2]
    209e:	461a      	mov	r2, r3
    20a0:	687b      	ldr	r3, [r7, #4]
    20a2:	ea4f 7113 	mov.w	r1, r3, lsr #28
    20a6:	f64c 4350 	movw	r3, #52304	; 0xcc50
    20aa:	f2c0 0300 	movt	r3, #0
    20ae:	f853 3021 	ldr.w	r3, [r3, r1, lsl #2]
    20b2:	6819      	ldr	r1, [r3, #0]
    20b4:	687b      	ldr	r3, [r7, #4]
    20b6:	ea4f 4303 	mov.w	r3, r3, lsl #16
    20ba:	ea4f 4313 	mov.w	r3, r3, lsr #16
    20be:	6878      	ldr	r0, [r7, #4]
    20c0:	f400 10f8 	and.w	r0, r0, #2031616	; 0x1f0000
    20c4:	ea4f 4010 	mov.w	r0, r0, lsr #16
    20c8:	fa03 f300 	lsl.w	r3, r3, r0
    20cc:	ea41 0303 	orr.w	r3, r1, r3
    20d0:	6013      	str	r3, [r2, #0]
    20d2:	f107 070c 	add.w	r7, r7, #12
    20d6:	46bd      	mov	sp, r7
    20d8:	bc80      	pop	{r7}
    20da:	4770      	bx	lr

000020dc <SysCtlDelay>:
    20dc:	3801      	subs	r0, #1
    20de:	d1fd      	bne.n	20dc <SysCtlDelay>
    20e0:	4770      	bx	lr
    20e2:	bf00      	nop

000020e4 <SysCtlClockSet>:
    20e4:	b580      	push	{r7, lr}
    20e6:	b086      	sub	sp, #24
    20e8:	af00      	add	r7, sp, #0
    20ea:	6078      	str	r0, [r7, #4]
    20ec:	f44f 4360 	mov.w	r3, #57344	; 0xe000
    20f0:	f2c4 030f 	movt	r3, #16399	; 0x400f
    20f4:	681b      	ldr	r3, [r3, #0]
    20f6:	f003 43e0 	and.w	r3, r3, #1879048192	; 0x70000000
    20fa:	2b00      	cmp	r3, #0
    20fc:	d00d      	beq.n	211a <SysCtlClockSet+0x36>
    20fe:	f44f 4360 	mov.w	r3, #57344	; 0xe000
    2102:	f2c4 030f 	movt	r3, #16399	; 0x400f
    2106:	681a      	ldr	r2, [r3, #0]
    2108:	f04f 0300 	mov.w	r3, #0
    210c:	f2c7 03ff 	movt	r3, #28927	; 0x70ff
    2110:	ea02 0303 	and.w	r3, r2, r3
    2114:	f1b3 5f80 	cmp.w	r3, #268435456	; 0x10000000
    2118:	d103      	bne.n	2122 <SysCtlClockSet+0x3e>
    211a:	687b      	ldr	r3, [r7, #4]
    211c:	2b00      	cmp	r3, #0
    211e:	f2c0 8123 	blt.w	2368 <SysCtlClockSet+0x284>
    2122:	f24e 0360 	movw	r3, #57440	; 0xe060
    2126:	f2c4 030f 	movt	r3, #16399	; 0x400f
    212a:	681b      	ldr	r3, [r3, #0]
    212c:	613b      	str	r3, [r7, #16]
    212e:	f24e 0370 	movw	r3, #57456	; 0xe070
    2132:	f2c4 030f 	movt	r3, #16399	; 0x400f
    2136:	681b      	ldr	r3, [r3, #0]
    2138:	60fb      	str	r3, [r7, #12]
    213a:	693b      	ldr	r3, [r7, #16]
    213c:	f443 6300 	orr.w	r3, r3, #2048	; 0x800
    2140:	613b      	str	r3, [r7, #16]
    2142:	693b      	ldr	r3, [r7, #16]
    2144:	f423 0380 	bic.w	r3, r3, #4194304	; 0x400000
    2148:	613b      	str	r3, [r7, #16]
    214a:	68fb      	ldr	r3, [r7, #12]
    214c:	f443 6300 	orr.w	r3, r3, #2048	; 0x800
    2150:	60fb      	str	r3, [r7, #12]
    2152:	f24e 0360 	movw	r3, #57440	; 0xe060
    2156:	f2c4 030f 	movt	r3, #16399	; 0x400f
    215a:	693a      	ldr	r2, [r7, #16]
    215c:	601a      	str	r2, [r3, #0]
    215e:	f24e 0370 	movw	r3, #57456	; 0xe070
    2162:	f2c4 030f 	movt	r3, #16399	; 0x400f
    2166:	68fa      	ldr	r2, [r7, #12]
    2168:	601a      	str	r2, [r3, #0]
    216a:	693b      	ldr	r3, [r7, #16]
    216c:	f003 0302 	and.w	r3, r3, #2
    2170:	2b00      	cmp	r3, #0
    2172:	d004      	beq.n	217e <SysCtlClockSet+0x9a>
    2174:	687b      	ldr	r3, [r7, #4]
    2176:	f003 0302 	and.w	r3, r3, #2
    217a:	2b00      	cmp	r3, #0
    217c:	d00a      	beq.n	2194 <SysCtlClockSet+0xb0>
    217e:	693b      	ldr	r3, [r7, #16]
    2180:	f003 0301 	and.w	r3, r3, #1
    2184:	b2db      	uxtb	r3, r3
    2186:	2b00      	cmp	r3, #0
    2188:	d02f      	beq.n	21ea <SysCtlClockSet+0x106>
    218a:	687b      	ldr	r3, [r7, #4]
    218c:	f003 0301 	and.w	r3, r3, #1
    2190:	2b00      	cmp	r3, #0
    2192:	d12a      	bne.n	21ea <SysCtlClockSet+0x106>
    2194:	687b      	ldr	r3, [r7, #4]
    2196:	f063 0303 	orn	r3, r3, #3
    219a:	693a      	ldr	r2, [r7, #16]
    219c:	ea02 0303 	and.w	r3, r2, r3
    21a0:	613b      	str	r3, [r7, #16]
    21a2:	f24e 0360 	movw	r3, #57440	; 0xe060
    21a6:	f2c4 030f 	movt	r3, #16399	; 0x400f
    21aa:	693a      	ldr	r2, [r7, #16]
    21ac:	601a      	str	r2, [r3, #0]
    21ae:	68fb      	ldr	r3, [r7, #12]
    21b0:	2b00      	cmp	r3, #0
    21b2:	da09      	bge.n	21c8 <SysCtlClockSet+0xe4>
    21b4:	68fb      	ldr	r3, [r7, #12]
    21b6:	f003 0370 	and.w	r3, r3, #112	; 0x70
    21ba:	2b30      	cmp	r3, #48	; 0x30
    21bc:	d00c      	beq.n	21d8 <SysCtlClockSet+0xf4>
    21be:	68fb      	ldr	r3, [r7, #12]
    21c0:	f003 0370 	and.w	r3, r3, #112	; 0x70
    21c4:	2b70      	cmp	r3, #112	; 0x70
    21c6:	d007      	beq.n	21d8 <SysCtlClockSet+0xf4>
    21c8:	68fb      	ldr	r3, [r7, #12]
    21ca:	2b00      	cmp	r3, #0
    21cc:	db09      	blt.n	21e2 <SysCtlClockSet+0xfe>
    21ce:	693b      	ldr	r3, [r7, #16]
    21d0:	f003 0330 	and.w	r3, r3, #48	; 0x30
    21d4:	2b30      	cmp	r3, #48	; 0x30
    21d6:	d104      	bne.n	21e2 <SysCtlClockSet+0xfe>
    21d8:	f44f 5080 	mov.w	r0, #4096	; 0x1000
    21dc:	f7ff ff7e 	bl	20dc <SysCtlDelay>
    21e0:	e003      	b.n	21ea <SysCtlClockSet+0x106>
    21e2:	f44f 2000 	mov.w	r0, #524288	; 0x80000
    21e6:	f7ff ff79 	bl	20dc <SysCtlDelay>
    21ea:	693b      	ldr	r3, [r7, #16]
    21ec:	f423 535e 	bic.w	r3, r3, #14208	; 0x3780
    21f0:	f023 0370 	bic.w	r3, r3, #112	; 0x70
    21f4:	613b      	str	r3, [r7, #16]
    21f6:	687a      	ldr	r2, [r7, #4]
    21f8:	f243 73f0 	movw	r3, #14320	; 0x37f0
    21fc:	ea02 0303 	and.w	r3, r2, r3
    2200:	693a      	ldr	r2, [r7, #16]
    2202:	ea42 0303 	orr.w	r3, r2, r3
    2206:	613b      	str	r3, [r7, #16]
    2208:	68fa      	ldr	r2, [r7, #12]
    220a:	f64d 738f 	movw	r3, #57231	; 0xdf8f
    220e:	f6c7 73ff 	movt	r3, #32767	; 0x7fff
    2212:	ea02 0303 	and.w	r3, r2, r3
    2216:	60fb      	str	r3, [r7, #12]
    2218:	687a      	ldr	r2, [r7, #4]
    221a:	f242 0330 	movw	r3, #8240	; 0x2030
    221e:	f2c8 0300 	movt	r3, #32768	; 0x8000
    2222:	ea02 0303 	and.w	r3, r2, r3
    2226:	68fa      	ldr	r2, [r7, #12]
    2228:	ea42 0303 	orr.w	r3, r2, r3
    222c:	60fb      	str	r3, [r7, #12]
    222e:	687b      	ldr	r3, [r7, #4]
    2230:	f003 0308 	and.w	r3, r3, #8
    2234:	ea4f 03c3 	mov.w	r3, r3, lsl #3
    2238:	68fa      	ldr	r2, [r7, #12]
    223a:	ea42 0303 	orr.w	r3, r2, r3
    223e:	60fb      	str	r3, [r7, #12]
    2240:	f24e 0358 	movw	r3, #57432	; 0xe058
    2244:	f2c4 030f 	movt	r3, #16399	; 0x400f
    2248:	f04f 0240 	mov.w	r2, #64	; 0x40
    224c:	601a      	str	r2, [r3, #0]
    224e:	68fb      	ldr	r3, [r7, #12]
    2250:	2b00      	cmp	r3, #0
    2252:	da0c      	bge.n	226e <SysCtlClockSet+0x18a>
    2254:	f24e 0370 	movw	r3, #57456	; 0xe070
    2258:	f2c4 030f 	movt	r3, #16399	; 0x400f
    225c:	68fa      	ldr	r2, [r7, #12]
    225e:	601a      	str	r2, [r3, #0]
    2260:	f24e 0360 	movw	r3, #57440	; 0xe060
    2264:	f2c4 030f 	movt	r3, #16399	; 0x400f
    2268:	693a      	ldr	r2, [r7, #16]
    226a:	601a      	str	r2, [r3, #0]
    226c:	e00b      	b.n	2286 <SysCtlClockSet+0x1a2>
    226e:	f24e 0360 	movw	r3, #57440	; 0xe060
    2272:	f2c4 030f 	movt	r3, #16399	; 0x400f
    2276:	693a      	ldr	r2, [r7, #16]
    2278:	601a      	str	r2, [r3, #0]
    227a:	f24e 0370 	movw	r3, #57456	; 0xe070
    227e:	f2c4 030f 	movt	r3, #16399	; 0x400f
    2282:	68fa      	ldr	r2, [r7, #12]
    2284:	601a      	str	r2, [r3, #0]
    2286:	f04f 0010 	mov.w	r0, #16
    228a:	f7ff ff27 	bl	20dc <SysCtlDelay>
    228e:	693b      	ldr	r3, [r7, #16]
    2290:	f023 63f8 	bic.w	r3, r3, #130023424	; 0x7c00000
    2294:	f023 0303 	bic.w	r3, r3, #3
    2298:	613b      	str	r3, [r7, #16]
    229a:	687a      	ldr	r2, [r7, #4]
    229c:	f04f 0303 	mov.w	r3, #3
    22a0:	f2c0 73c0 	movt	r3, #1984	; 0x7c0
    22a4:	ea02 0303 	and.w	r3, r2, r3
    22a8:	693a      	ldr	r2, [r7, #16]
    22aa:	ea42 0303 	orr.w	r3, r2, r3
    22ae:	613b      	str	r3, [r7, #16]
    22b0:	68fb      	ldr	r3, [r7, #12]
    22b2:	f023 53fc 	bic.w	r3, r3, #528482304	; 0x1f800000
    22b6:	60fb      	str	r3, [r7, #12]
    22b8:	687b      	ldr	r3, [r7, #4]
    22ba:	f003 53fc 	and.w	r3, r3, #528482304	; 0x1f800000
    22be:	68fa      	ldr	r2, [r7, #12]
    22c0:	ea42 0303 	orr.w	r3, r2, r3
    22c4:	60fb      	str	r3, [r7, #12]
    22c6:	687b      	ldr	r3, [r7, #4]
    22c8:	f003 4380 	and.w	r3, r3, #1073741824	; 0x40000000
    22cc:	2b00      	cmp	r3, #0
    22ce:	d013      	beq.n	22f8 <SysCtlClockSet+0x214>
    22d0:	693b      	ldr	r3, [r7, #16]
    22d2:	f443 0380 	orr.w	r3, r3, #4194304	; 0x400000
    22d6:	613b      	str	r3, [r7, #16]
    22d8:	68fb      	ldr	r3, [r7, #12]
    22da:	f423 0380 	bic.w	r3, r3, #4194304	; 0x400000
    22de:	60fb      	str	r3, [r7, #12]
    22e0:	687a      	ldr	r2, [r7, #4]
    22e2:	f04f 0300 	mov.w	r3, #0
    22e6:	f2c4 0340 	movt	r3, #16448	; 0x4040
    22ea:	ea02 0303 	and.w	r3, r2, r3
    22ee:	68fa      	ldr	r2, [r7, #12]
    22f0:	ea42 0303 	orr.w	r3, r2, r3
    22f4:	60fb      	str	r3, [r7, #12]
    22f6:	e003      	b.n	2300 <SysCtlClockSet+0x21c>
    22f8:	68fb      	ldr	r3, [r7, #12]
    22fa:	f023 4380 	bic.w	r3, r3, #1073741824	; 0x40000000
    22fe:	60fb      	str	r3, [r7, #12]
    2300:	687b      	ldr	r3, [r7, #4]
    2302:	f403 6300 	and.w	r3, r3, #2048	; 0x800
    2306:	2b00      	cmp	r3, #0
    2308:	d11d      	bne.n	2346 <SysCtlClockSet+0x262>
    230a:	f44f 4300 	mov.w	r3, #32768	; 0x8000
    230e:	617b      	str	r3, [r7, #20]
    2310:	e00c      	b.n	232c <SysCtlClockSet+0x248>
    2312:	f24e 0350 	movw	r3, #57424	; 0xe050
    2316:	f2c4 030f 	movt	r3, #16399	; 0x400f
    231a:	681b      	ldr	r3, [r3, #0]
    231c:	f003 0340 	and.w	r3, r3, #64	; 0x40
    2320:	2b00      	cmp	r3, #0
    2322:	d107      	bne.n	2334 <SysCtlClockSet+0x250>
    2324:	697b      	ldr	r3, [r7, #20]
    2326:	f103 33ff 	add.w	r3, r3, #4294967295
    232a:	617b      	str	r3, [r7, #20]
    232c:	697b      	ldr	r3, [r7, #20]
    232e:	2b00      	cmp	r3, #0
    2330:	d1ef      	bne.n	2312 <SysCtlClockSet+0x22e>
    2332:	e000      	b.n	2336 <SysCtlClockSet+0x252>
    2334:	bf00      	nop
    2336:	693b      	ldr	r3, [r7, #16]
    2338:	f423 6300 	bic.w	r3, r3, #2048	; 0x800
    233c:	613b      	str	r3, [r7, #16]
    233e:	68fb      	ldr	r3, [r7, #12]
    2340:	f423 6300 	bic.w	r3, r3, #2048	; 0x800
    2344:	60fb      	str	r3, [r7, #12]
    2346:	f24e 0360 	movw	r3, #57440	; 0xe060
    234a:	f2c4 030f 	movt	r3, #16399	; 0x400f
    234e:	693a      	ldr	r2, [r7, #16]
    2350:	601a      	str	r2, [r3, #0]
    2352:	f24e 0370 	movw	r3, #57456	; 0xe070
    2356:	f2c4 030f 	movt	r3, #16399	; 0x400f
    235a:	68fa      	ldr	r2, [r7, #12]
    235c:	601a      	str	r2, [r3, #0]
    235e:	f04f 0010 	mov.w	r0, #16
    2362:	f7ff febb 	bl	20dc <SysCtlDelay>
    2366:	e000      	b.n	236a <SysCtlClockSet+0x286>
    2368:	bf00      	nop
    236a:	f107 0718 	add.w	r7, r7, #24
    236e:	46bd      	mov	sp, r7
    2370:	bd80      	pop	{r7, pc}
    2372:	bf00      	nop

00002374 <SysCtlClockGet>:
    2374:	b480      	push	{r7}
    2376:	b085      	sub	sp, #20
    2378:	af00      	add	r7, sp, #0
    237a:	f24e 0360 	movw	r3, #57440	; 0xe060
    237e:	f2c4 030f 	movt	r3, #16399	; 0x400f
    2382:	681b      	ldr	r3, [r3, #0]
    2384:	60fb      	str	r3, [r7, #12]
    2386:	f24e 0370 	movw	r3, #57456	; 0xe070
    238a:	f2c4 030f 	movt	r3, #16399	; 0x400f
    238e:	681b      	ldr	r3, [r3, #0]
    2390:	607b      	str	r3, [r7, #4]
    2392:	687b      	ldr	r3, [r7, #4]
    2394:	2b00      	cmp	r3, #0
    2396:	da03      	bge.n	23a0 <SysCtlClockGet+0x2c>
    2398:	687b      	ldr	r3, [r7, #4]
    239a:	f003 0370 	and.w	r3, r3, #112	; 0x70
    239e:	e002      	b.n	23a6 <SysCtlClockGet+0x32>
    23a0:	68fb      	ldr	r3, [r7, #12]
    23a2:	f003 0330 	and.w	r3, r3, #48	; 0x30
    23a6:	2b20      	cmp	r3, #32
    23a8:	d07f      	beq.n	24aa <SysCtlClockGet+0x136>
    23aa:	2b20      	cmp	r3, #32
    23ac:	d804      	bhi.n	23b8 <SysCtlClockGet+0x44>
    23ae:	2b00      	cmp	r3, #0
    23b0:	d00c      	beq.n	23cc <SysCtlClockGet+0x58>
    23b2:	2b10      	cmp	r3, #16
    23b4:	d017      	beq.n	23e6 <SysCtlClockGet+0x72>
    23b6:	e0e6      	b.n	2586 <SysCtlClockGet+0x212>
    23b8:	2b60      	cmp	r3, #96	; 0x60
    23ba:	f000 80dc 	beq.w	2576 <SysCtlClockGet+0x202>
    23be:	2b70      	cmp	r3, #112	; 0x70
    23c0:	f000 80dd 	beq.w	257e <SysCtlClockGet+0x20a>
    23c4:	2b30      	cmp	r3, #48	; 0x30
    23c6:	f000 80d2 	beq.w	256e <SysCtlClockGet+0x1fa>
    23ca:	e0dc      	b.n	2586 <SysCtlClockGet+0x212>
    23cc:	68fb      	ldr	r3, [r7, #12]
    23ce:	f403 63f8 	and.w	r3, r3, #1984	; 0x7c0
    23d2:	ea4f 1293 	mov.w	r2, r3, lsr #6
    23d6:	f64c 4374 	movw	r3, #52340	; 0xcc74
    23da:	f2c0 0300 	movt	r3, #0
    23de:	f853 3022 	ldr.w	r3, [r3, r2, lsl #2]
    23e2:	60bb      	str	r3, [r7, #8]
    23e4:	e0d2      	b.n	258c <SysCtlClockGet+0x218>
    23e6:	f44f 4360 	mov.w	r3, #57344	; 0xe000
    23ea:	f2c4 030f 	movt	r3, #16399	; 0x400f
    23ee:	681b      	ldr	r3, [r3, #0]
    23f0:	f003 43e0 	and.w	r3, r3, #1879048192	; 0x70000000
    23f4:	2b00      	cmp	r3, #0
    23f6:	d00d      	beq.n	2414 <SysCtlClockGet+0xa0>
    23f8:	f44f 4360 	mov.w	r3, #57344	; 0xe000
    23fc:	f2c4 030f 	movt	r3, #16399	; 0x400f
    2400:	681a      	ldr	r2, [r3, #0]
    2402:	f04f 0300 	mov.w	r3, #0
    2406:	f2c7 03ff 	movt	r3, #28927	; 0x70ff
    240a:	ea02 0303 	and.w	r3, r2, r3
    240e:	f1b3 5f80 	cmp.w	r3, #268435456	; 0x10000000
    2412:	d105      	bne.n	2420 <SysCtlClockGet+0xac>
    2414:	f24e 13c0 	movw	r3, #57792	; 0xe1c0
    2418:	f2c0 03e4 	movt	r3, #228	; 0xe4
    241c:	60bb      	str	r3, [r7, #8]
    241e:	e043      	b.n	24a8 <SysCtlClockGet+0x134>
    2420:	f44f 4360 	mov.w	r3, #57344	; 0xe000
    2424:	f2c4 030f 	movt	r3, #16399	; 0x400f
    2428:	681a      	ldr	r2, [r3, #0]
    242a:	f04f 0300 	mov.w	r3, #0
    242e:	f2c7 03ff 	movt	r3, #28927	; 0x70ff
    2432:	ea02 0303 	and.w	r3, r2, r3
    2436:	f04f 0200 	mov.w	r2, #0
    243a:	f2c1 0201 	movt	r2, #4097	; 0x1001
    243e:	4293      	cmp	r3, r2
    2440:	d10a      	bne.n	2458 <SysCtlClockGet+0xe4>
    2442:	f44f 4360 	mov.w	r3, #57344	; 0xe000
    2446:	f2c4 030f 	movt	r3, #16399	; 0x400f
    244a:	681b      	ldr	r3, [r3, #0]
    244c:	ea4f 4303 	mov.w	r3, r3, lsl #16
    2450:	ea4f 4313 	mov.w	r3, r3, lsr #16
    2454:	2b02      	cmp	r3, #2
    2456:	d01b      	beq.n	2490 <SysCtlClockGet+0x11c>
    2458:	f44f 4360 	mov.w	r3, #57344	; 0xe000
    245c:	f2c4 030f 	movt	r3, #16399	; 0x400f
    2460:	681a      	ldr	r2, [r3, #0]
    2462:	f04f 0300 	mov.w	r3, #0
    2466:	f2c7 03ff 	movt	r3, #28927	; 0x70ff
    246a:	ea02 0303 	and.w	r3, r2, r3
    246e:	f04f 0200 	mov.w	r2, #0
    2472:	f2c1 0203 	movt	r2, #4099	; 0x1003
    2476:	4293      	cmp	r3, r2
    2478:	d110      	bne.n	249c <SysCtlClockGet+0x128>
    247a:	f44f 4360 	mov.w	r3, #57344	; 0xe000
    247e:	f2c4 030f 	movt	r3, #16399	; 0x400f
    2482:	681b      	ldr	r3, [r3, #0]
    2484:	ea4f 4303 	mov.w	r3, r3, lsl #16
    2488:	ea4f 4313 	mov.w	r3, r3, lsr #16
    248c:	2b00      	cmp	r3, #0
    248e:	d105      	bne.n	249c <SysCtlClockGet+0x128>
    2490:	f44f 53d8 	mov.w	r3, #6912	; 0x1b00
    2494:	f2c0 03b7 	movt	r3, #183	; 0xb7
    2498:	60bb      	str	r3, [r7, #8]
    249a:	e005      	b.n	24a8 <SysCtlClockGet+0x134>
    249c:	f44f 5310 	mov.w	r3, #9216	; 0x2400
    24a0:	f2c0 03f4 	movt	r3, #244	; 0xf4
    24a4:	60bb      	str	r3, [r7, #8]
    24a6:	e071      	b.n	258c <SysCtlClockGet+0x218>
    24a8:	e070      	b.n	258c <SysCtlClockGet+0x218>
    24aa:	f44f 4360 	mov.w	r3, #57344	; 0xe000
    24ae:	f2c4 030f 	movt	r3, #16399	; 0x400f
    24b2:	681b      	ldr	r3, [r3, #0]
    24b4:	f003 43e0 	and.w	r3, r3, #1879048192	; 0x70000000
    24b8:	2b00      	cmp	r3, #0
    24ba:	d00d      	beq.n	24d8 <SysCtlClockGet+0x164>
    24bc:	f44f 4360 	mov.w	r3, #57344	; 0xe000
    24c0:	f2c4 030f 	movt	r3, #16399	; 0x400f
    24c4:	681a      	ldr	r2, [r3, #0]
    24c6:	f04f 0300 	mov.w	r3, #0
    24ca:	f2c7 03ff 	movt	r3, #28927	; 0x70ff
    24ce:	ea02 0303 	and.w	r3, r2, r3
    24d2:	f1b3 5f80 	cmp.w	r3, #268435456	; 0x10000000
    24d6:	d105      	bne.n	24e4 <SysCtlClockGet+0x170>
    24d8:	f643 0370 	movw	r3, #14448	; 0x3870
    24dc:	f2c0 0339 	movt	r3, #57	; 0x39
    24e0:	60bb      	str	r3, [r7, #8]
    24e2:	e043      	b.n	256c <SysCtlClockGet+0x1f8>
    24e4:	f44f 4360 	mov.w	r3, #57344	; 0xe000
    24e8:	f2c4 030f 	movt	r3, #16399	; 0x400f
    24ec:	681a      	ldr	r2, [r3, #0]
    24ee:	f04f 0300 	mov.w	r3, #0
    24f2:	f2c7 03ff 	movt	r3, #28927	; 0x70ff
    24f6:	ea02 0303 	and.w	r3, r2, r3
    24fa:	f04f 0200 	mov.w	r2, #0
    24fe:	f2c1 0201 	movt	r2, #4097	; 0x1001
    2502:	4293      	cmp	r3, r2
    2504:	d10a      	bne.n	251c <SysCtlClockGet+0x1a8>
    2506:	f44f 4360 	mov.w	r3, #57344	; 0xe000
    250a:	f2c4 030f 	movt	r3, #16399	; 0x400f
    250e:	681b      	ldr	r3, [r3, #0]
    2510:	ea4f 4303 	mov.w	r3, r3, lsl #16
    2514:	ea4f 4313 	mov.w	r3, r3, lsr #16
    2518:	2b02      	cmp	r3, #2
    251a:	d01b      	beq.n	2554 <SysCtlClockGet+0x1e0>
    251c:	f44f 4360 	mov.w	r3, #57344	; 0xe000
    2520:	f2c4 030f 	movt	r3, #16399	; 0x400f
    2524:	681a      	ldr	r2, [r3, #0]
    2526:	f04f 0300 	mov.w	r3, #0
    252a:	f2c7 03ff 	movt	r3, #28927	; 0x70ff
    252e:	ea02 0303 	and.w	r3, r2, r3
    2532:	f04f 0200 	mov.w	r2, #0
    2536:	f2c1 0203 	movt	r2, #4099	; 0x1003
    253a:	4293      	cmp	r3, r2
    253c:	d110      	bne.n	2560 <SysCtlClockGet+0x1ec>
    253e:	f44f 4360 	mov.w	r3, #57344	; 0xe000
    2542:	f2c4 030f 	movt	r3, #16399	; 0x400f
    2546:	681b      	ldr	r3, [r3, #0]
    2548:	ea4f 4303 	mov.w	r3, r3, lsl #16
    254c:	ea4f 4313 	mov.w	r3, r3, lsr #16
    2550:	2b00      	cmp	r3, #0
    2552:	d105      	bne.n	2560 <SysCtlClockGet+0x1ec>
    2554:	f24c 63c0 	movw	r3, #50880	; 0xc6c0
    2558:	f2c0 032d 	movt	r3, #45	; 0x2d
    255c:	60bb      	str	r3, [r7, #8]
    255e:	e005      	b.n	256c <SysCtlClockGet+0x1f8>
    2560:	f44f 6310 	mov.w	r3, #2304	; 0x900
    2564:	f2c0 033d 	movt	r3, #61	; 0x3d
    2568:	60bb      	str	r3, [r7, #8]
    256a:	e00f      	b.n	258c <SysCtlClockGet+0x218>
    256c:	e00e      	b.n	258c <SysCtlClockGet+0x218>
    256e:	f247 5330 	movw	r3, #30000	; 0x7530
    2572:	60bb      	str	r3, [r7, #8]
    2574:	e00a      	b.n	258c <SysCtlClockGet+0x218>
    2576:	f44f 0380 	mov.w	r3, #4194304	; 0x400000
    257a:	60bb      	str	r3, [r7, #8]
    257c:	e006      	b.n	258c <SysCtlClockGet+0x218>
    257e:	f44f 4300 	mov.w	r3, #32768	; 0x8000
    2582:	60bb      	str	r3, [r7, #8]
    2584:	e002      	b.n	258c <SysCtlClockGet+0x218>
    2586:	f04f 0300 	mov.w	r3, #0
    258a:	e0ae      	b.n	26ea <SysCtlClockGet+0x376>
    258c:	687b      	ldr	r3, [r7, #4]
    258e:	2b00      	cmp	r3, #0
    2590:	da04      	bge.n	259c <SysCtlClockGet+0x228>
    2592:	687b      	ldr	r3, [r7, #4]
    2594:	f403 6300 	and.w	r3, r3, #2048	; 0x800
    2598:	2b00      	cmp	r3, #0
    259a:	d007      	beq.n	25ac <SysCtlClockGet+0x238>
    259c:	687b      	ldr	r3, [r7, #4]
    259e:	2b00      	cmp	r3, #0
    25a0:	db60      	blt.n	2664 <SysCtlClockGet+0x2f0>
    25a2:	68fb      	ldr	r3, [r7, #12]
    25a4:	f403 6300 	and.w	r3, r3, #2048	; 0x800
    25a8:	2b00      	cmp	r3, #0
    25aa:	d15b      	bne.n	2664 <SysCtlClockGet+0x2f0>
    25ac:	f24e 0364 	movw	r3, #57444	; 0xe064
    25b0:	f2c4 030f 	movt	r3, #16399	; 0x400f
    25b4:	681b      	ldr	r3, [r3, #0]
    25b6:	603b      	str	r3, [r7, #0]
    25b8:	f44f 4360 	mov.w	r3, #57344	; 0xe000
    25bc:	f2c4 030f 	movt	r3, #16399	; 0x400f
    25c0:	681b      	ldr	r3, [r3, #0]
    25c2:	f003 43e0 	and.w	r3, r3, #1879048192	; 0x70000000
    25c6:	2b00      	cmp	r3, #0
    25c8:	d00d      	beq.n	25e6 <SysCtlClockGet+0x272>
    25ca:	f44f 4360 	mov.w	r3, #57344	; 0xe000
    25ce:	f2c4 030f 	movt	r3, #16399	; 0x400f
    25d2:	681a      	ldr	r2, [r3, #0]
    25d4:	f04f 0300 	mov.w	r3, #0
    25d8:	f2c7 03ff 	movt	r3, #28927	; 0x70ff
    25dc:	ea02 0303 	and.w	r3, r2, r3
    25e0:	f1b3 5f80 	cmp.w	r3, #268435456	; 0x10000000
    25e4:	d114      	bne.n	2610 <SysCtlClockGet+0x29c>
    25e6:	683a      	ldr	r2, [r7, #0]
    25e8:	f643 73e0 	movw	r3, #16352	; 0x3fe0
    25ec:	ea02 0303 	and.w	r3, r2, r3
    25f0:	ea4f 1353 	mov.w	r3, r3, lsr #5
    25f4:	f103 0302 	add.w	r3, r3, #2
    25f8:	68ba      	ldr	r2, [r7, #8]
    25fa:	fb02 f203 	mul.w	r2, r2, r3
    25fe:	683b      	ldr	r3, [r7, #0]
    2600:	f003 031f 	and.w	r3, r3, #31
    2604:	f103 0302 	add.w	r3, r3, #2
    2608:	fbb2 f3f3 	udiv	r3, r2, r3
    260c:	60bb      	str	r3, [r7, #8]
    260e:	e013      	b.n	2638 <SysCtlClockGet+0x2c4>
    2610:	683a      	ldr	r2, [r7, #0]
    2612:	f643 73e0 	movw	r3, #16352	; 0x3fe0
    2616:	ea02 0303 	and.w	r3, r2, r3
    261a:	ea4f 1353 	mov.w	r3, r3, lsr #5
    261e:	68ba      	ldr	r2, [r7, #8]
    2620:	fb02 f203 	mul.w	r2, r2, r3
    2624:	683b      	ldr	r3, [r7, #0]
    2626:	f003 031f 	and.w	r3, r3, #31
    262a:	f103 0301 	add.w	r3, r3, #1
    262e:	ea4f 0343 	mov.w	r3, r3, lsl #1
    2632:	fbb2 f3f3 	udiv	r3, r2, r3
    2636:	60bb      	str	r3, [r7, #8]
    2638:	683b      	ldr	r3, [r7, #0]
    263a:	f403 4380 	and.w	r3, r3, #16384	; 0x4000
    263e:	2b00      	cmp	r3, #0
    2640:	d003      	beq.n	264a <SysCtlClockGet+0x2d6>
    2642:	68bb      	ldr	r3, [r7, #8]
    2644:	ea4f 0353 	mov.w	r3, r3, lsr #1
    2648:	60bb      	str	r3, [r7, #8]
    264a:	683b      	ldr	r3, [r7, #0]
    264c:	f403 4300 	and.w	r3, r3, #32768	; 0x8000
    2650:	2b00      	cmp	r3, #0
    2652:	d003      	beq.n	265c <SysCtlClockGet+0x2e8>
    2654:	68bb      	ldr	r3, [r7, #8]
    2656:	ea4f 0393 	mov.w	r3, r3, lsr #2
    265a:	60bb      	str	r3, [r7, #8]
    265c:	68fb      	ldr	r3, [r7, #12]
    265e:	f443 0380 	orr.w	r3, r3, #4194304	; 0x400000
    2662:	60fb      	str	r3, [r7, #12]
    2664:	68fb      	ldr	r3, [r7, #12]
    2666:	f403 0380 	and.w	r3, r3, #4194304	; 0x400000
    266a:	2b00      	cmp	r3, #0
    266c:	d03c      	beq.n	26e8 <SysCtlClockGet+0x374>
    266e:	687b      	ldr	r3, [r7, #4]
    2670:	2b00      	cmp	r3, #0
    2672:	da2e      	bge.n	26d2 <SysCtlClockGet+0x35e>
    2674:	687b      	ldr	r3, [r7, #4]
    2676:	f003 4380 	and.w	r3, r3, #1073741824	; 0x40000000
    267a:	2b00      	cmp	r3, #0
    267c:	d01d      	beq.n	26ba <SysCtlClockGet+0x346>
    267e:	687b      	ldr	r3, [r7, #4]
    2680:	2b00      	cmp	r3, #0
    2682:	da04      	bge.n	268e <SysCtlClockGet+0x31a>
    2684:	687b      	ldr	r3, [r7, #4]
    2686:	f403 6300 	and.w	r3, r3, #2048	; 0x800
    268a:	2b00      	cmp	r3, #0
    268c:	d007      	beq.n	269e <SysCtlClockGet+0x32a>
    268e:	687b      	ldr	r3, [r7, #4]
    2690:	2b00      	cmp	r3, #0
    2692:	db12      	blt.n	26ba <SysCtlClockGet+0x346>
    2694:	68fb      	ldr	r3, [r7, #12]
    2696:	f403 6300 	and.w	r3, r3, #2048	; 0x800
    269a:	2b00      	cmp	r3, #0
    269c:	d10d      	bne.n	26ba <SysCtlClockGet+0x346>
    269e:	68bb      	ldr	r3, [r7, #8]
    26a0:	ea4f 0243 	mov.w	r2, r3, lsl #1
    26a4:	687b      	ldr	r3, [r7, #4]
    26a6:	f003 53fe 	and.w	r3, r3, #532676608	; 0x1fc00000
    26aa:	ea4f 5393 	mov.w	r3, r3, lsr #22
    26ae:	f103 0301 	add.w	r3, r3, #1
    26b2:	fbb2 f3f3 	udiv	r3, r2, r3
    26b6:	60bb      	str	r3, [r7, #8]
    26b8:	e016      	b.n	26e8 <SysCtlClockGet+0x374>
    26ba:	687b      	ldr	r3, [r7, #4]
    26bc:	f003 53fc 	and.w	r3, r3, #528482304	; 0x1f800000
    26c0:	ea4f 53d3 	mov.w	r3, r3, lsr #23
    26c4:	f103 0301 	add.w	r3, r3, #1
    26c8:	68ba      	ldr	r2, [r7, #8]
    26ca:	fbb2 f3f3 	udiv	r3, r2, r3
    26ce:	60bb      	str	r3, [r7, #8]
    26d0:	e00a      	b.n	26e8 <SysCtlClockGet+0x374>
    26d2:	68fb      	ldr	r3, [r7, #12]
    26d4:	f003 63f0 	and.w	r3, r3, #125829120	; 0x7800000
    26d8:	ea4f 53d3 	mov.w	r3, r3, lsr #23
    26dc:	f103 0301 	add.w	r3, r3, #1
    26e0:	68ba      	ldr	r2, [r7, #8]
    26e2:	fbb2 f3f3 	udiv	r3, r2, r3
    26e6:	60bb      	str	r3, [r7, #8]
    26e8:	68bb      	ldr	r3, [r7, #8]
    26ea:	4618      	mov	r0, r3
    26ec:	f107 0714 	add.w	r7, r7, #20
    26f0:	46bd      	mov	sp, r7
    26f2:	bc80      	pop	{r7}
    26f4:	4770      	bx	lr
    26f6:	bf00      	nop

000026f8 <SysCtlPWMClockSet>:
    26f8:	b480      	push	{r7}
    26fa:	b083      	sub	sp, #12
    26fc:	af00      	add	r7, sp, #0
    26fe:	6078      	str	r0, [r7, #4]
    2700:	f24e 0360 	movw	r3, #57440	; 0xe060
    2704:	f2c4 030f 	movt	r3, #16399	; 0x400f
    2708:	f24e 0260 	movw	r2, #57440	; 0xe060
    270c:	f2c4 020f 	movt	r2, #16399	; 0x400f
    2710:	6812      	ldr	r2, [r2, #0]
    2712:	f422 11f0 	bic.w	r1, r2, #1966080	; 0x1e0000
    2716:	687a      	ldr	r2, [r7, #4]
    2718:	ea41 0202 	orr.w	r2, r1, r2
    271c:	601a      	str	r2, [r3, #0]
    271e:	f107 070c 	add.w	r7, r7, #12
    2722:	46bd      	mov	sp, r7
    2724:	bc80      	pop	{r7}
    2726:	4770      	bx	lr

00002728 <SysCtlADCSpeedSet>:
    2728:	b480      	push	{r7}
    272a:	b083      	sub	sp, #12
    272c:	af00      	add	r7, sp, #0
    272e:	6078      	str	r0, [r7, #4]
    2730:	f44f 4361 	mov.w	r3, #57600	; 0xe100
    2734:	f2c4 030f 	movt	r3, #16399	; 0x400f
    2738:	f44f 4261 	mov.w	r2, #57600	; 0xe100
    273c:	f2c4 020f 	movt	r2, #16399	; 0x400f
    2740:	6812      	ldr	r2, [r2, #0]
    2742:	f422 6170 	bic.w	r1, r2, #3840	; 0xf00
    2746:	687a      	ldr	r2, [r7, #4]
    2748:	ea41 0202 	orr.w	r2, r1, r2
    274c:	601a      	str	r2, [r3, #0]
    274e:	f24e 1310 	movw	r3, #57616	; 0xe110
    2752:	f2c4 030f 	movt	r3, #16399	; 0x400f
    2756:	f24e 1210 	movw	r2, #57616	; 0xe110
    275a:	f2c4 020f 	movt	r2, #16399	; 0x400f
    275e:	6812      	ldr	r2, [r2, #0]
    2760:	f422 6170 	bic.w	r1, r2, #3840	; 0xf00
    2764:	687a      	ldr	r2, [r7, #4]
    2766:	ea41 0202 	orr.w	r2, r1, r2
    276a:	601a      	str	r2, [r3, #0]
    276c:	f107 070c 	add.w	r7, r7, #12
    2770:	46bd      	mov	sp, r7
    2772:	bc80      	pop	{r7}
    2774:	4770      	bx	lr
    2776:	bf00      	nop

00002778 <GPIODirModeSet>:
    2778:	b480      	push	{r7}
    277a:	b085      	sub	sp, #20
    277c:	af00      	add	r7, sp, #0
    277e:	60f8      	str	r0, [r7, #12]
    2780:	460b      	mov	r3, r1
    2782:	607a      	str	r2, [r7, #4]
    2784:	72fb      	strb	r3, [r7, #11]
    2786:	68fb      	ldr	r3, [r7, #12]
    2788:	f503 6380 	add.w	r3, r3, #1024	; 0x400
    278c:	461a      	mov	r2, r3
    278e:	687b      	ldr	r3, [r7, #4]
    2790:	f003 0301 	and.w	r3, r3, #1
    2794:	b2db      	uxtb	r3, r3
    2796:	2b00      	cmp	r3, #0
    2798:	d007      	beq.n	27aa <GPIODirModeSet+0x32>
    279a:	68fb      	ldr	r3, [r7, #12]
    279c:	f503 6380 	add.w	r3, r3, #1024	; 0x400
    27a0:	6819      	ldr	r1, [r3, #0]
    27a2:	7afb      	ldrb	r3, [r7, #11]
    27a4:	ea41 0303 	orr.w	r3, r1, r3
    27a8:	e008      	b.n	27bc <GPIODirModeSet+0x44>
    27aa:	68fb      	ldr	r3, [r7, #12]
    27ac:	f503 6380 	add.w	r3, r3, #1024	; 0x400
    27b0:	6819      	ldr	r1, [r3, #0]
    27b2:	7afb      	ldrb	r3, [r7, #11]
    27b4:	ea6f 0303 	mvn.w	r3, r3
    27b8:	ea01 0303 	and.w	r3, r1, r3
    27bc:	6013      	str	r3, [r2, #0]
    27be:	68fb      	ldr	r3, [r7, #12]
    27c0:	f503 6384 	add.w	r3, r3, #1056	; 0x420
    27c4:	461a      	mov	r2, r3
    27c6:	687b      	ldr	r3, [r7, #4]
    27c8:	f003 0302 	and.w	r3, r3, #2
    27cc:	2b00      	cmp	r3, #0
    27ce:	d007      	beq.n	27e0 <GPIODirModeSet+0x68>
    27d0:	68fb      	ldr	r3, [r7, #12]
    27d2:	f503 6384 	add.w	r3, r3, #1056	; 0x420
    27d6:	6819      	ldr	r1, [r3, #0]
    27d8:	7afb      	ldrb	r3, [r7, #11]
    27da:	ea41 0303 	orr.w	r3, r1, r3
    27de:	e008      	b.n	27f2 <GPIODirModeSet+0x7a>
    27e0:	68fb      	ldr	r3, [r7, #12]
    27e2:	f503 6384 	add.w	r3, r3, #1056	; 0x420
    27e6:	6819      	ldr	r1, [r3, #0]
    27e8:	7afb      	ldrb	r3, [r7, #11]
    27ea:	ea6f 0303 	mvn.w	r3, r3
    27ee:	ea01 0303 	and.w	r3, r1, r3
    27f2:	6013      	str	r3, [r2, #0]
    27f4:	f107 0714 	add.w	r7, r7, #20
    27f8:	46bd      	mov	sp, r7
    27fa:	bc80      	pop	{r7}
    27fc:	4770      	bx	lr
    27fe:	bf00      	nop

00002800 <GPIOIntTypeSet>:
    2800:	b480      	push	{r7}
    2802:	b085      	sub	sp, #20
    2804:	af00      	add	r7, sp, #0
    2806:	60f8      	str	r0, [r7, #12]
    2808:	460b      	mov	r3, r1
    280a:	607a      	str	r2, [r7, #4]
    280c:	72fb      	strb	r3, [r7, #11]
    280e:	68fb      	ldr	r3, [r7, #12]
    2810:	f503 6381 	add.w	r3, r3, #1032	; 0x408
    2814:	461a      	mov	r2, r3
    2816:	687b      	ldr	r3, [r7, #4]
    2818:	f003 0301 	and.w	r3, r3, #1
    281c:	b2db      	uxtb	r3, r3
    281e:	2b00      	cmp	r3, #0
    2820:	d007      	beq.n	2832 <GPIOIntTypeSet+0x32>
    2822:	68fb      	ldr	r3, [r7, #12]
    2824:	f503 6381 	add.w	r3, r3, #1032	; 0x408
    2828:	6819      	ldr	r1, [r3, #0]
    282a:	7afb      	ldrb	r3, [r7, #11]
    282c:	ea41 0303 	orr.w	r3, r1, r3
    2830:	e008      	b.n	2844 <GPIOIntTypeSet+0x44>
    2832:	68fb      	ldr	r3, [r7, #12]
    2834:	f503 6381 	add.w	r3, r3, #1032	; 0x408
    2838:	6819      	ldr	r1, [r3, #0]
    283a:	7afb      	ldrb	r3, [r7, #11]
    283c:	ea6f 0303 	mvn.w	r3, r3
    2840:	ea01 0303 	and.w	r3, r1, r3
    2844:	6013      	str	r3, [r2, #0]
    2846:	68fb      	ldr	r3, [r7, #12]
    2848:	f503 6380 	add.w	r3, r3, #1024	; 0x400
    284c:	f103 0304 	add.w	r3, r3, #4
    2850:	461a      	mov	r2, r3
    2852:	687b      	ldr	r3, [r7, #4]
    2854:	f003 0302 	and.w	r3, r3, #2
    2858:	2b00      	cmp	r3, #0
    285a:	d009      	beq.n	2870 <GPIOIntTypeSet+0x70>
    285c:	68fb      	ldr	r3, [r7, #12]
    285e:	f503 6380 	add.w	r3, r3, #1024	; 0x400
    2862:	f103 0304 	add.w	r3, r3, #4
    2866:	6819      	ldr	r1, [r3, #0]
    2868:	7afb      	ldrb	r3, [r7, #11]
    286a:	ea41 0303 	orr.w	r3, r1, r3
    286e:	e00a      	b.n	2886 <GPIOIntTypeSet+0x86>
    2870:	68fb      	ldr	r3, [r7, #12]
    2872:	f503 6380 	add.w	r3, r3, #1024	; 0x400
    2876:	f103 0304 	add.w	r3, r3, #4
    287a:	6819      	ldr	r1, [r3, #0]
    287c:	7afb      	ldrb	r3, [r7, #11]
    287e:	ea6f 0303 	mvn.w	r3, r3
    2882:	ea01 0303 	and.w	r3, r1, r3
    2886:	6013      	str	r3, [r2, #0]
    2888:	68fb      	ldr	r3, [r7, #12]
    288a:	f503 6380 	add.w	r3, r3, #1024	; 0x400
    288e:	f103 030c 	add.w	r3, r3, #12
    2892:	461a      	mov	r2, r3
    2894:	687b      	ldr	r3, [r7, #4]
    2896:	f003 0304 	and.w	r3, r3, #4
    289a:	2b00      	cmp	r3, #0
    289c:	d009      	beq.n	28b2 <GPIOIntTypeSet+0xb2>
    289e:	68fb      	ldr	r3, [r7, #12]
    28a0:	f503 6380 	add.w	r3, r3, #1024	; 0x400
    28a4:	f103 030c 	add.w	r3, r3, #12
    28a8:	6819      	ldr	r1, [r3, #0]
    28aa:	7afb      	ldrb	r3, [r7, #11]
    28ac:	ea41 0303 	orr.w	r3, r1, r3
    28b0:	e00a      	b.n	28c8 <GPIOIntTypeSet+0xc8>
    28b2:	68fb      	ldr	r3, [r7, #12]
    28b4:	f503 6380 	add.w	r3, r3, #1024	; 0x400
    28b8:	f103 030c 	add.w	r3, r3, #12
    28bc:	6819      	ldr	r1, [r3, #0]
    28be:	7afb      	ldrb	r3, [r7, #11]
    28c0:	ea6f 0303 	mvn.w	r3, r3
    28c4:	ea01 0303 	and.w	r3, r1, r3
    28c8:	6013      	str	r3, [r2, #0]
    28ca:	f107 0714 	add.w	r7, r7, #20
    28ce:	46bd      	mov	sp, r7
    28d0:	bc80      	pop	{r7}
    28d2:	4770      	bx	lr

000028d4 <GPIOPadConfigSet>:
    28d4:	b480      	push	{r7}
    28d6:	b085      	sub	sp, #20
    28d8:	af00      	add	r7, sp, #0
    28da:	60f8      	str	r0, [r7, #12]
    28dc:	607a      	str	r2, [r7, #4]
    28de:	603b      	str	r3, [r7, #0]
    28e0:	460b      	mov	r3, r1
    28e2:	72fb      	strb	r3, [r7, #11]
    28e4:	68fb      	ldr	r3, [r7, #12]
    28e6:	f503 63a0 	add.w	r3, r3, #1280	; 0x500
    28ea:	461a      	mov	r2, r3
    28ec:	687b      	ldr	r3, [r7, #4]
    28ee:	f003 0301 	and.w	r3, r3, #1
    28f2:	b2db      	uxtb	r3, r3
    28f4:	2b00      	cmp	r3, #0
    28f6:	d007      	beq.n	2908 <GPIOPadConfigSet+0x34>
    28f8:	68fb      	ldr	r3, [r7, #12]
    28fa:	f503 63a0 	add.w	r3, r3, #1280	; 0x500
    28fe:	6819      	ldr	r1, [r3, #0]
    2900:	7afb      	ldrb	r3, [r7, #11]
    2902:	ea41 0303 	orr.w	r3, r1, r3
    2906:	e008      	b.n	291a <GPIOPadConfigSet+0x46>
    2908:	68fb      	ldr	r3, [r7, #12]
    290a:	f503 63a0 	add.w	r3, r3, #1280	; 0x500
    290e:	6819      	ldr	r1, [r3, #0]
    2910:	7afb      	ldrb	r3, [r7, #11]
    2912:	ea6f 0303 	mvn.w	r3, r3
    2916:	ea01 0303 	and.w	r3, r1, r3
    291a:	6013      	str	r3, [r2, #0]
    291c:	68fb      	ldr	r3, [r7, #12]
    291e:	f503 63a0 	add.w	r3, r3, #1280	; 0x500
    2922:	f103 0304 	add.w	r3, r3, #4
    2926:	461a      	mov	r2, r3
    2928:	687b      	ldr	r3, [r7, #4]
    292a:	f003 0302 	and.w	r3, r3, #2
    292e:	2b00      	cmp	r3, #0
    2930:	d009      	beq.n	2946 <GPIOPadConfigSet+0x72>
    2932:	68fb      	ldr	r3, [r7, #12]
    2934:	f503 63a0 	add.w	r3, r3, #1280	; 0x500
    2938:	f103 0304 	add.w	r3, r3, #4
    293c:	6819      	ldr	r1, [r3, #0]
    293e:	7afb      	ldrb	r3, [r7, #11]
    2940:	ea41 0303 	orr.w	r3, r1, r3
    2944:	e00a      	b.n	295c <GPIOPadConfigSet+0x88>
    2946:	68fb      	ldr	r3, [r7, #12]
    2948:	f503 63a0 	add.w	r3, r3, #1280	; 0x500
    294c:	f103 0304 	add.w	r3, r3, #4
    2950:	6819      	ldr	r1, [r3, #0]
    2952:	7afb      	ldrb	r3, [r7, #11]
    2954:	ea6f 0303 	mvn.w	r3, r3
    2958:	ea01 0303 	and.w	r3, r1, r3
    295c:	6013      	str	r3, [r2, #0]
    295e:	68fb      	ldr	r3, [r7, #12]
    2960:	f503 63a1 	add.w	r3, r3, #1288	; 0x508
    2964:	461a      	mov	r2, r3
    2966:	687b      	ldr	r3, [r7, #4]
    2968:	f003 0304 	and.w	r3, r3, #4
    296c:	2b00      	cmp	r3, #0
    296e:	d007      	beq.n	2980 <GPIOPadConfigSet+0xac>
    2970:	68fb      	ldr	r3, [r7, #12]
    2972:	f503 63a1 	add.w	r3, r3, #1288	; 0x508
    2976:	6819      	ldr	r1, [r3, #0]
    2978:	7afb      	ldrb	r3, [r7, #11]
    297a:	ea41 0303 	orr.w	r3, r1, r3
    297e:	e008      	b.n	2992 <GPIOPadConfigSet+0xbe>
    2980:	68fb      	ldr	r3, [r7, #12]
    2982:	f503 63a1 	add.w	r3, r3, #1288	; 0x508
    2986:	6819      	ldr	r1, [r3, #0]
    2988:	7afb      	ldrb	r3, [r7, #11]
    298a:	ea6f 0303 	mvn.w	r3, r3
    298e:	ea01 0303 	and.w	r3, r1, r3
    2992:	6013      	str	r3, [r2, #0]
    2994:	68fb      	ldr	r3, [r7, #12]
    2996:	f503 63a3 	add.w	r3, r3, #1304	; 0x518
    299a:	461a      	mov	r2, r3
    299c:	687b      	ldr	r3, [r7, #4]
    299e:	f003 0308 	and.w	r3, r3, #8
    29a2:	2b00      	cmp	r3, #0
    29a4:	d007      	beq.n	29b6 <GPIOPadConfigSet+0xe2>
    29a6:	68fb      	ldr	r3, [r7, #12]
    29a8:	f503 63a3 	add.w	r3, r3, #1304	; 0x518
    29ac:	6819      	ldr	r1, [r3, #0]
    29ae:	7afb      	ldrb	r3, [r7, #11]
    29b0:	ea41 0303 	orr.w	r3, r1, r3
    29b4:	e008      	b.n	29c8 <GPIOPadConfigSet+0xf4>
    29b6:	68fb      	ldr	r3, [r7, #12]
    29b8:	f503 63a3 	add.w	r3, r3, #1304	; 0x518
    29bc:	6819      	ldr	r1, [r3, #0]
    29be:	7afb      	ldrb	r3, [r7, #11]
    29c0:	ea6f 0303 	mvn.w	r3, r3
    29c4:	ea01 0303 	and.w	r3, r1, r3
    29c8:	6013      	str	r3, [r2, #0]
    29ca:	68fb      	ldr	r3, [r7, #12]
    29cc:	f503 63a0 	add.w	r3, r3, #1280	; 0x500
    29d0:	f103 030c 	add.w	r3, r3, #12
    29d4:	461a      	mov	r2, r3
    29d6:	683b      	ldr	r3, [r7, #0]
    29d8:	f003 0301 	and.w	r3, r3, #1
    29dc:	b2db      	uxtb	r3, r3
    29de:	2b00      	cmp	r3, #0
    29e0:	d009      	beq.n	29f6 <GPIOPadConfigSet+0x122>
    29e2:	68fb      	ldr	r3, [r7, #12]
    29e4:	f503 63a0 	add.w	r3, r3, #1280	; 0x500
    29e8:	f103 030c 	add.w	r3, r3, #12
    29ec:	6819      	ldr	r1, [r3, #0]
    29ee:	7afb      	ldrb	r3, [r7, #11]
    29f0:	ea41 0303 	orr.w	r3, r1, r3
    29f4:	e00a      	b.n	2a0c <GPIOPadConfigSet+0x138>
    29f6:	68fb      	ldr	r3, [r7, #12]
    29f8:	f503 63a0 	add.w	r3, r3, #1280	; 0x500
    29fc:	f103 030c 	add.w	r3, r3, #12
    2a00:	6819      	ldr	r1, [r3, #0]
    2a02:	7afb      	ldrb	r3, [r7, #11]
    2a04:	ea6f 0303 	mvn.w	r3, r3
    2a08:	ea01 0303 	and.w	r3, r1, r3
    2a0c:	6013      	str	r3, [r2, #0]
    2a0e:	68fb      	ldr	r3, [r7, #12]
    2a10:	f503 63a2 	add.w	r3, r3, #1296	; 0x510
    2a14:	461a      	mov	r2, r3
    2a16:	683b      	ldr	r3, [r7, #0]
    2a18:	f003 0302 	and.w	r3, r3, #2
    2a1c:	2b00      	cmp	r3, #0
    2a1e:	d007      	beq.n	2a30 <GPIOPadConfigSet+0x15c>
    2a20:	68fb      	ldr	r3, [r7, #12]
    2a22:	f503 63a2 	add.w	r3, r3, #1296	; 0x510
    2a26:	6819      	ldr	r1, [r3, #0]
    2a28:	7afb      	ldrb	r3, [r7, #11]
    2a2a:	ea41 0303 	orr.w	r3, r1, r3
    2a2e:	e008      	b.n	2a42 <GPIOPadConfigSet+0x16e>
    2a30:	68fb      	ldr	r3, [r7, #12]
    2a32:	f503 63a2 	add.w	r3, r3, #1296	; 0x510
    2a36:	6819      	ldr	r1, [r3, #0]
    2a38:	7afb      	ldrb	r3, [r7, #11]
    2a3a:	ea6f 0303 	mvn.w	r3, r3
    2a3e:	ea01 0303 	and.w	r3, r1, r3
    2a42:	6013      	str	r3, [r2, #0]
    2a44:	68fb      	ldr	r3, [r7, #12]
    2a46:	f503 63a2 	add.w	r3, r3, #1296	; 0x510
    2a4a:	f103 0304 	add.w	r3, r3, #4
    2a4e:	461a      	mov	r2, r3
    2a50:	683b      	ldr	r3, [r7, #0]
    2a52:	f003 0304 	and.w	r3, r3, #4
    2a56:	2b00      	cmp	r3, #0
    2a58:	d009      	beq.n	2a6e <GPIOPadConfigSet+0x19a>
    2a5a:	68fb      	ldr	r3, [r7, #12]
    2a5c:	f503 63a2 	add.w	r3, r3, #1296	; 0x510
    2a60:	f103 0304 	add.w	r3, r3, #4
    2a64:	6819      	ldr	r1, [r3, #0]
    2a66:	7afb      	ldrb	r3, [r7, #11]
    2a68:	ea41 0303 	orr.w	r3, r1, r3
    2a6c:	e00a      	b.n	2a84 <GPIOPadConfigSet+0x1b0>
    2a6e:	68fb      	ldr	r3, [r7, #12]
    2a70:	f503 63a2 	add.w	r3, r3, #1296	; 0x510
    2a74:	f103 0304 	add.w	r3, r3, #4
    2a78:	6819      	ldr	r1, [r3, #0]
    2a7a:	7afb      	ldrb	r3, [r7, #11]
    2a7c:	ea6f 0303 	mvn.w	r3, r3
    2a80:	ea01 0303 	and.w	r3, r1, r3
    2a84:	6013      	str	r3, [r2, #0]
    2a86:	68fb      	ldr	r3, [r7, #12]
    2a88:	f503 63a2 	add.w	r3, r3, #1296	; 0x510
    2a8c:	f103 030c 	add.w	r3, r3, #12
    2a90:	461a      	mov	r2, r3
    2a92:	683b      	ldr	r3, [r7, #0]
    2a94:	f003 0308 	and.w	r3, r3, #8
    2a98:	2b00      	cmp	r3, #0
    2a9a:	d009      	beq.n	2ab0 <GPIOPadConfigSet+0x1dc>
    2a9c:	68fb      	ldr	r3, [r7, #12]
    2a9e:	f503 63a2 	add.w	r3, r3, #1296	; 0x510
    2aa2:	f103 030c 	add.w	r3, r3, #12
    2aa6:	6819      	ldr	r1, [r3, #0]
    2aa8:	7afb      	ldrb	r3, [r7, #11]
    2aaa:	ea41 0303 	orr.w	r3, r1, r3
    2aae:	e00a      	b.n	2ac6 <GPIOPadConfigSet+0x1f2>
    2ab0:	68fb      	ldr	r3, [r7, #12]
    2ab2:	f503 63a2 	add.w	r3, r3, #1296	; 0x510
    2ab6:	f103 030c 	add.w	r3, r3, #12
    2aba:	6819      	ldr	r1, [r3, #0]
    2abc:	7afb      	ldrb	r3, [r7, #11]
    2abe:	ea6f 0303 	mvn.w	r3, r3
    2ac2:	ea01 0303 	and.w	r3, r1, r3
    2ac6:	6013      	str	r3, [r2, #0]
    2ac8:	68fb      	ldr	r3, [r7, #12]
    2aca:	f503 63a5 	add.w	r3, r3, #1320	; 0x528
    2ace:	461a      	mov	r2, r3
    2ad0:	683b      	ldr	r3, [r7, #0]
    2ad2:	2b00      	cmp	r3, #0
    2ad4:	d107      	bne.n	2ae6 <GPIOPadConfigSet+0x212>
    2ad6:	68fb      	ldr	r3, [r7, #12]
    2ad8:	f503 63a5 	add.w	r3, r3, #1320	; 0x528
    2adc:	6819      	ldr	r1, [r3, #0]
    2ade:	7afb      	ldrb	r3, [r7, #11]
    2ae0:	ea41 0303 	orr.w	r3, r1, r3
    2ae4:	e008      	b.n	2af8 <GPIOPadConfigSet+0x224>
    2ae6:	68fb      	ldr	r3, [r7, #12]
    2ae8:	f503 63a5 	add.w	r3, r3, #1320	; 0x528
    2aec:	6819      	ldr	r1, [r3, #0]
    2aee:	7afb      	ldrb	r3, [r7, #11]
    2af0:	ea6f 0303 	mvn.w	r3, r3
    2af4:	ea01 0303 	and.w	r3, r1, r3
    2af8:	6013      	str	r3, [r2, #0]
    2afa:	f107 0714 	add.w	r7, r7, #20
    2afe:	46bd      	mov	sp, r7
    2b00:	bc80      	pop	{r7}
    2b02:	4770      	bx	lr

00002b04 <GPIOPinIntEnable>:
    2b04:	b480      	push	{r7}
    2b06:	b083      	sub	sp, #12
    2b08:	af00      	add	r7, sp, #0
    2b0a:	6078      	str	r0, [r7, #4]
    2b0c:	460b      	mov	r3, r1
    2b0e:	70fb      	strb	r3, [r7, #3]
    2b10:	687b      	ldr	r3, [r7, #4]
    2b12:	f503 6382 	add.w	r3, r3, #1040	; 0x410
    2b16:	687a      	ldr	r2, [r7, #4]
    2b18:	f502 6282 	add.w	r2, r2, #1040	; 0x410
    2b1c:	6811      	ldr	r1, [r2, #0]
    2b1e:	78fa      	ldrb	r2, [r7, #3]
    2b20:	ea41 0202 	orr.w	r2, r1, r2
    2b24:	601a      	str	r2, [r3, #0]
    2b26:	f107 070c 	add.w	r7, r7, #12
    2b2a:	46bd      	mov	sp, r7
    2b2c:	bc80      	pop	{r7}
    2b2e:	4770      	bx	lr

00002b30 <GPIOPinIntStatus>:
    2b30:	b480      	push	{r7}
    2b32:	b083      	sub	sp, #12
    2b34:	af00      	add	r7, sp, #0
    2b36:	6078      	str	r0, [r7, #4]
    2b38:	460b      	mov	r3, r1
    2b3a:	70fb      	strb	r3, [r7, #3]
    2b3c:	78fb      	ldrb	r3, [r7, #3]
    2b3e:	2b00      	cmp	r3, #0
    2b40:	d004      	beq.n	2b4c <GPIOPinIntStatus+0x1c>
    2b42:	687b      	ldr	r3, [r7, #4]
    2b44:	f503 6383 	add.w	r3, r3, #1048	; 0x418
    2b48:	681b      	ldr	r3, [r3, #0]
    2b4a:	e005      	b.n	2b58 <GPIOPinIntStatus+0x28>
    2b4c:	687b      	ldr	r3, [r7, #4]
    2b4e:	f503 6382 	add.w	r3, r3, #1040	; 0x410
    2b52:	f103 0304 	add.w	r3, r3, #4
    2b56:	681b      	ldr	r3, [r3, #0]
    2b58:	4618      	mov	r0, r3
    2b5a:	f107 070c 	add.w	r7, r7, #12
    2b5e:	46bd      	mov	sp, r7
    2b60:	bc80      	pop	{r7}
    2b62:	4770      	bx	lr

00002b64 <GPIOPinIntClear>:
    2b64:	b480      	push	{r7}
    2b66:	b083      	sub	sp, #12
    2b68:	af00      	add	r7, sp, #0
    2b6a:	6078      	str	r0, [r7, #4]
    2b6c:	460b      	mov	r3, r1
    2b6e:	70fb      	strb	r3, [r7, #3]
    2b70:	687b      	ldr	r3, [r7, #4]
    2b72:	f503 6382 	add.w	r3, r3, #1040	; 0x410
    2b76:	f103 030c 	add.w	r3, r3, #12
    2b7a:	78fa      	ldrb	r2, [r7, #3]
    2b7c:	601a      	str	r2, [r3, #0]
    2b7e:	f107 070c 	add.w	r7, r7, #12
    2b82:	46bd      	mov	sp, r7
    2b84:	bc80      	pop	{r7}
    2b86:	4770      	bx	lr

00002b88 <GPIOPinRead>:
    2b88:	b480      	push	{r7}
    2b8a:	b083      	sub	sp, #12
    2b8c:	af00      	add	r7, sp, #0
    2b8e:	6078      	str	r0, [r7, #4]
    2b90:	460b      	mov	r3, r1
    2b92:	70fb      	strb	r3, [r7, #3]
    2b94:	78fb      	ldrb	r3, [r7, #3]
    2b96:	ea4f 0383 	mov.w	r3, r3, lsl #2
    2b9a:	461a      	mov	r2, r3
    2b9c:	687b      	ldr	r3, [r7, #4]
    2b9e:	18d3      	adds	r3, r2, r3
    2ba0:	681b      	ldr	r3, [r3, #0]
    2ba2:	4618      	mov	r0, r3
    2ba4:	f107 070c 	add.w	r7, r7, #12
    2ba8:	46bd      	mov	sp, r7
    2baa:	bc80      	pop	{r7}
    2bac:	4770      	bx	lr
    2bae:	bf00      	nop

00002bb0 <GPIOPinWrite>:
    2bb0:	b480      	push	{r7}
    2bb2:	b083      	sub	sp, #12
    2bb4:	af00      	add	r7, sp, #0
    2bb6:	6078      	str	r0, [r7, #4]
    2bb8:	4613      	mov	r3, r2
    2bba:	460a      	mov	r2, r1
    2bbc:	70fa      	strb	r2, [r7, #3]
    2bbe:	70bb      	strb	r3, [r7, #2]
    2bc0:	78fb      	ldrb	r3, [r7, #3]
    2bc2:	ea4f 0383 	mov.w	r3, r3, lsl #2
    2bc6:	461a      	mov	r2, r3
    2bc8:	687b      	ldr	r3, [r7, #4]
    2bca:	18d3      	adds	r3, r2, r3
    2bcc:	78ba      	ldrb	r2, [r7, #2]
    2bce:	601a      	str	r2, [r3, #0]
    2bd0:	f107 070c 	add.w	r7, r7, #12
    2bd4:	46bd      	mov	sp, r7
    2bd6:	bc80      	pop	{r7}
    2bd8:	4770      	bx	lr
    2bda:	bf00      	nop

00002bdc <GPIOPinTypeADC>:
    2bdc:	b580      	push	{r7, lr}
    2bde:	b082      	sub	sp, #8
    2be0:	af00      	add	r7, sp, #0
    2be2:	6078      	str	r0, [r7, #4]
    2be4:	460b      	mov	r3, r1
    2be6:	70fb      	strb	r3, [r7, #3]
    2be8:	78fb      	ldrb	r3, [r7, #3]
    2bea:	6878      	ldr	r0, [r7, #4]
    2bec:	4619      	mov	r1, r3
    2bee:	f04f 0200 	mov.w	r2, #0
    2bf2:	f7ff fdc1 	bl	2778 <GPIODirModeSet>
    2bf6:	78fb      	ldrb	r3, [r7, #3]
    2bf8:	6878      	ldr	r0, [r7, #4]
    2bfa:	4619      	mov	r1, r3
    2bfc:	f04f 0201 	mov.w	r2, #1
    2c00:	f04f 0300 	mov.w	r3, #0
    2c04:	f7ff fe66 	bl	28d4 <GPIOPadConfigSet>
    2c08:	f107 0708 	add.w	r7, r7, #8
    2c0c:	46bd      	mov	sp, r7
    2c0e:	bd80      	pop	{r7, pc}

00002c10 <GPIOPinTypeGPIOInput>:
    2c10:	b580      	push	{r7, lr}
    2c12:	b082      	sub	sp, #8
    2c14:	af00      	add	r7, sp, #0
    2c16:	6078      	str	r0, [r7, #4]
    2c18:	460b      	mov	r3, r1
    2c1a:	70fb      	strb	r3, [r7, #3]
    2c1c:	78fb      	ldrb	r3, [r7, #3]
    2c1e:	6878      	ldr	r0, [r7, #4]
    2c20:	4619      	mov	r1, r3
    2c22:	f04f 0200 	mov.w	r2, #0
    2c26:	f7ff fda7 	bl	2778 <GPIODirModeSet>
    2c2a:	78fb      	ldrb	r3, [r7, #3]
    2c2c:	6878      	ldr	r0, [r7, #4]
    2c2e:	4619      	mov	r1, r3
    2c30:	f04f 0201 	mov.w	r2, #1
    2c34:	f04f 0308 	mov.w	r3, #8
    2c38:	f7ff fe4c 	bl	28d4 <GPIOPadConfigSet>
    2c3c:	f107 0708 	add.w	r7, r7, #8
    2c40:	46bd      	mov	sp, r7
    2c42:	bd80      	pop	{r7, pc}

00002c44 <GPIOPinTypeGPIOOutput>:
    2c44:	b580      	push	{r7, lr}
    2c46:	b082      	sub	sp, #8
    2c48:	af00      	add	r7, sp, #0
    2c4a:	6078      	str	r0, [r7, #4]
    2c4c:	460b      	mov	r3, r1
    2c4e:	70fb      	strb	r3, [r7, #3]
    2c50:	78fb      	ldrb	r3, [r7, #3]
    2c52:	6878      	ldr	r0, [r7, #4]
    2c54:	4619      	mov	r1, r3
    2c56:	f04f 0201 	mov.w	r2, #1
    2c5a:	f7ff fd8d 	bl	2778 <GPIODirModeSet>
    2c5e:	78fb      	ldrb	r3, [r7, #3]
    2c60:	6878      	ldr	r0, [r7, #4]
    2c62:	4619      	mov	r1, r3
    2c64:	f04f 0201 	mov.w	r2, #1
    2c68:	f04f 0308 	mov.w	r3, #8
    2c6c:	f7ff fe32 	bl	28d4 <GPIOPadConfigSet>
    2c70:	f107 0708 	add.w	r7, r7, #8
    2c74:	46bd      	mov	sp, r7
    2c76:	bd80      	pop	{r7, pc}

00002c78 <GPIOPinTypePWM>:
    2c78:	b580      	push	{r7, lr}
    2c7a:	b082      	sub	sp, #8
    2c7c:	af00      	add	r7, sp, #0
    2c7e:	6078      	str	r0, [r7, #4]
    2c80:	460b      	mov	r3, r1
    2c82:	70fb      	strb	r3, [r7, #3]
    2c84:	78fb      	ldrb	r3, [r7, #3]
    2c86:	6878      	ldr	r0, [r7, #4]
    2c88:	4619      	mov	r1, r3
    2c8a:	f04f 0202 	mov.w	r2, #2
    2c8e:	f7ff fd73 	bl	2778 <GPIODirModeSet>
    2c92:	78fb      	ldrb	r3, [r7, #3]
    2c94:	6878      	ldr	r0, [r7, #4]
    2c96:	4619      	mov	r1, r3
    2c98:	f04f 0201 	mov.w	r2, #1
    2c9c:	f04f 0308 	mov.w	r3, #8
    2ca0:	f7ff fe18 	bl	28d4 <GPIOPadConfigSet>
    2ca4:	f107 0708 	add.w	r7, r7, #8
    2ca8:	46bd      	mov	sp, r7
    2caa:	bd80      	pop	{r7, pc}

00002cac <GPIOPinTypeSSI>:
    2cac:	b580      	push	{r7, lr}
    2cae:	b082      	sub	sp, #8
    2cb0:	af00      	add	r7, sp, #0
    2cb2:	6078      	str	r0, [r7, #4]
    2cb4:	460b      	mov	r3, r1
    2cb6:	70fb      	strb	r3, [r7, #3]
    2cb8:	78fb      	ldrb	r3, [r7, #3]
    2cba:	6878      	ldr	r0, [r7, #4]
    2cbc:	4619      	mov	r1, r3
    2cbe:	f04f 0202 	mov.w	r2, #2
    2cc2:	f7ff fd59 	bl	2778 <GPIODirModeSet>
    2cc6:	78fb      	ldrb	r3, [r7, #3]
    2cc8:	6878      	ldr	r0, [r7, #4]
    2cca:	4619      	mov	r1, r3
    2ccc:	f04f 0201 	mov.w	r2, #1
    2cd0:	f04f 0308 	mov.w	r3, #8
    2cd4:	f7ff fdfe 	bl	28d4 <GPIOPadConfigSet>
    2cd8:	f107 0708 	add.w	r7, r7, #8
    2cdc:	46bd      	mov	sp, r7
    2cde:	bd80      	pop	{r7, pc}

00002ce0 <DISPLAY_inicializar>:
    2ce0:	b580      	push	{r7, lr}
    2ce2:	af00      	add	r7, sp, #0
    2ce4:	f7fe fef2 	bl	1acc <FRAME_BUFFER_init>
    2ce8:	f64c 40d0 	movw	r0, #52432	; 0xccd0
    2cec:	f2c0 0000 	movt	r0, #0
    2cf0:	f04f 0119 	mov.w	r1, #25
    2cf4:	f04f 0201 	mov.w	r2, #1
    2cf8:	f7fe ff6e 	bl	1bd8 <FRAME_BUFFER_insert_text>
    2cfc:	f64c 40dc 	movw	r0, #52444	; 0xccdc
    2d00:	f2c0 0000 	movt	r0, #0
    2d04:	f04f 0101 	mov.w	r1, #1
    2d08:	f04f 020a 	mov.w	r2, #10
    2d0c:	f7fe ff64 	bl	1bd8 <FRAME_BUFFER_insert_text>
    2d10:	f64c 40e0 	movw	r0, #52448	; 0xcce0
    2d14:	f2c0 0000 	movt	r0, #0
    2d18:	f04f 0101 	mov.w	r1, #1
    2d1c:	f04f 0214 	mov.w	r2, #20
    2d20:	f7fe ff5a 	bl	1bd8 <FRAME_BUFFER_insert_text>
    2d24:	f64c 40e0 	movw	r0, #52448	; 0xcce0
    2d28:	f2c0 0000 	movt	r0, #0
    2d2c:	f04f 0101 	mov.w	r1, #1
    2d30:	f04f 021e 	mov.w	r2, #30
    2d34:	f7fe ff50 	bl	1bd8 <FRAME_BUFFER_insert_text>
    2d38:	f64c 40e0 	movw	r0, #52448	; 0xcce0
    2d3c:	f2c0 0000 	movt	r0, #0
    2d40:	f04f 0101 	mov.w	r1, #1
    2d44:	f04f 0228 	mov.w	r2, #40	; 0x28
    2d48:	f7fe ff46 	bl	1bd8 <FRAME_BUFFER_insert_text>
    2d4c:	f64c 40e4 	movw	r0, #52452	; 0xcce4
    2d50:	f2c0 0000 	movt	r0, #0
    2d54:	f04f 0101 	mov.w	r1, #1
    2d58:	f04f 0232 	mov.w	r2, #50	; 0x32
    2d5c:	f7fe ff3c 	bl	1bd8 <FRAME_BUFFER_insert_text>
    2d60:	f64c 40e4 	movw	r0, #52452	; 0xcce4
    2d64:	f2c0 0000 	movt	r0, #0
    2d68:	f04f 0101 	mov.w	r1, #1
    2d6c:	f04f 023c 	mov.w	r2, #60	; 0x3c
    2d70:	f7fe ff32 	bl	1bd8 <FRAME_BUFFER_insert_text>
    2d74:	f64c 40e4 	movw	r0, #52452	; 0xcce4
    2d78:	f2c0 0000 	movt	r0, #0
    2d7c:	f04f 0101 	mov.w	r1, #1
    2d80:	f04f 0246 	mov.w	r2, #70	; 0x46
    2d84:	f7fe ff28 	bl	1bd8 <FRAME_BUFFER_insert_text>
    2d88:	f64c 40ec 	movw	r0, #52460	; 0xccec
    2d8c:	f2c0 0000 	movt	r0, #0
    2d90:	f04f 0141 	mov.w	r1, #65	; 0x41
    2d94:	f04f 0232 	mov.w	r2, #50	; 0x32
    2d98:	f7fe ff1e 	bl	1bd8 <FRAME_BUFFER_insert_text>
    2d9c:	f64c 40ec 	movw	r0, #52460	; 0xccec
    2da0:	f2c0 0000 	movt	r0, #0
    2da4:	f04f 0141 	mov.w	r1, #65	; 0x41
    2da8:	f04f 023c 	mov.w	r2, #60	; 0x3c
    2dac:	f7fe ff14 	bl	1bd8 <FRAME_BUFFER_insert_text>
    2db0:	f64c 40ec 	movw	r0, #52460	; 0xccec
    2db4:	f2c0 0000 	movt	r0, #0
    2db8:	f04f 0141 	mov.w	r1, #65	; 0x41
    2dbc:	f04f 0246 	mov.w	r2, #70	; 0x46
    2dc0:	f7fe ff0a 	bl	1bd8 <FRAME_BUFFER_insert_text>
    2dc4:	f64c 40ec 	movw	r0, #52460	; 0xccec
    2dc8:	f2c0 0000 	movt	r0, #0
    2dcc:	f04f 0101 	mov.w	r1, #1
    2dd0:	f04f 0250 	mov.w	r2, #80	; 0x50
    2dd4:	f7fe ff00 	bl	1bd8 <FRAME_BUFFER_insert_text>
    2dd8:	f64c 40ec 	movw	r0, #52460	; 0xccec
    2ddc:	f2c0 0000 	movt	r0, #0
    2de0:	f04f 0141 	mov.w	r1, #65	; 0x41
    2de4:	f04f 0250 	mov.w	r2, #80	; 0x50
    2de8:	f7fe fef6 	bl	1bd8 <FRAME_BUFFER_insert_text>
    2dec:	f7fe ffd6 	bl	1d9c <FRAME_BUFFER_write_to_display>
    2df0:	bd80      	pop	{r7, pc}
    2df2:	bf00      	nop

00002df4 <DISPLAY_indicar_estado>:
    2df4:	b580      	push	{r7, lr}
    2df6:	b084      	sub	sp, #16
    2df8:	af00      	add	r7, sp, #0
    2dfa:	6078      	str	r0, [r7, #4]
    2dfc:	687b      	ldr	r3, [r7, #4]
    2dfe:	2b0a      	cmp	r3, #10
    2e00:	d85a      	bhi.n	2eb8 <DISPLAY_indicar_estado+0xc4>
    2e02:	a201      	add	r2, pc, #4	; (adr r2, 2e08 <DISPLAY_indicar_estado+0x14>)
    2e04:	f852 f023 	ldr.w	pc, [r2, r3, lsl #2]
    2e08:	00002e35 	.word	0x00002e35
    2e0c:	00002e41 	.word	0x00002e41
    2e10:	00002e4d 	.word	0x00002e4d
    2e14:	00002e59 	.word	0x00002e59
    2e18:	00002e65 	.word	0x00002e65
    2e1c:	00002e71 	.word	0x00002e71
    2e20:	00002e7d 	.word	0x00002e7d
    2e24:	00002e89 	.word	0x00002e89
    2e28:	00002e95 	.word	0x00002e95
    2e2c:	00002ea1 	.word	0x00002ea1
    2e30:	00002ead 	.word	0x00002ead
    2e34:	f64c 43f4 	movw	r3, #52468	; 0xccf4
    2e38:	f2c0 0300 	movt	r3, #0
    2e3c:	60fb      	str	r3, [r7, #12]
    2e3e:	e03b      	b.n	2eb8 <DISPLAY_indicar_estado+0xc4>
    2e40:	f64c 5308 	movw	r3, #52488	; 0xcd08
    2e44:	f2c0 0300 	movt	r3, #0
    2e48:	60fb      	str	r3, [r7, #12]
    2e4a:	e035      	b.n	2eb8 <DISPLAY_indicar_estado+0xc4>
    2e4c:	f64c 531c 	movw	r3, #52508	; 0xcd1c
    2e50:	f2c0 0300 	movt	r3, #0
    2e54:	60fb      	str	r3, [r7, #12]
    2e56:	e02f      	b.n	2eb8 <DISPLAY_indicar_estado+0xc4>
    2e58:	f64c 5330 	movw	r3, #52528	; 0xcd30
    2e5c:	f2c0 0300 	movt	r3, #0
    2e60:	60fb      	str	r3, [r7, #12]
    2e62:	e029      	b.n	2eb8 <DISPLAY_indicar_estado+0xc4>
    2e64:	f64c 5344 	movw	r3, #52548	; 0xcd44
    2e68:	f2c0 0300 	movt	r3, #0
    2e6c:	60fb      	str	r3, [r7, #12]
    2e6e:	e023      	b.n	2eb8 <DISPLAY_indicar_estado+0xc4>
    2e70:	f64c 5358 	movw	r3, #52568	; 0xcd58
    2e74:	f2c0 0300 	movt	r3, #0
    2e78:	60fb      	str	r3, [r7, #12]
    2e7a:	e01d      	b.n	2eb8 <DISPLAY_indicar_estado+0xc4>
    2e7c:	f64c 5368 	movw	r3, #52584	; 0xcd68
    2e80:	f2c0 0300 	movt	r3, #0
    2e84:	60fb      	str	r3, [r7, #12]
    2e86:	e017      	b.n	2eb8 <DISPLAY_indicar_estado+0xc4>
    2e88:	f64c 5378 	movw	r3, #52600	; 0xcd78
    2e8c:	f2c0 0300 	movt	r3, #0
    2e90:	60fb      	str	r3, [r7, #12]
    2e92:	e011      	b.n	2eb8 <DISPLAY_indicar_estado+0xc4>
    2e94:	f64c 538c 	movw	r3, #52620	; 0xcd8c
    2e98:	f2c0 0300 	movt	r3, #0
    2e9c:	60fb      	str	r3, [r7, #12]
    2e9e:	e00b      	b.n	2eb8 <DISPLAY_indicar_estado+0xc4>
    2ea0:	f64c 53a0 	movw	r3, #52640	; 0xcda0
    2ea4:	f2c0 0300 	movt	r3, #0
    2ea8:	60fb      	str	r3, [r7, #12]
    2eaa:	e005      	b.n	2eb8 <DISPLAY_indicar_estado+0xc4>
    2eac:	f64c 53b4 	movw	r3, #52660	; 0xcdb4
    2eb0:	f2c0 0300 	movt	r3, #0
    2eb4:	60fb      	str	r3, [r7, #12]
    2eb6:	bf00      	nop
    2eb8:	68f8      	ldr	r0, [r7, #12]
    2eba:	f04f 0101 	mov.w	r1, #1
    2ebe:	f7fe ff41 	bl	1d44 <FRAME_BUFFER_change_text>
    2ec2:	f7fe ff6b 	bl	1d9c <FRAME_BUFFER_write_to_display>
    2ec6:	f107 0710 	add.w	r7, r7, #16
    2eca:	46bd      	mov	sp, r7
    2ecc:	bd80      	pop	{r7, pc}
    2ece:	bf00      	nop

00002ed0 <DISPLAY_peticion_seguimiento>:
    2ed0:	b580      	push	{r7, lr}
    2ed2:	af00      	add	r7, sp, #0
    2ed4:	f64c 50c8 	movw	r0, #52680	; 0xcdc8
    2ed8:	f2c0 0000 	movt	r0, #0
    2edc:	f04f 0102 	mov.w	r1, #2
    2ee0:	f7fe ff30 	bl	1d44 <FRAME_BUFFER_change_text>
    2ee4:	f64c 50e0 	movw	r0, #52704	; 0xcde0
    2ee8:	f2c0 0000 	movt	r0, #0
    2eec:	f04f 0103 	mov.w	r1, #3
    2ef0:	f7fe ff28 	bl	1d44 <FRAME_BUFFER_change_text>
    2ef4:	f64c 50f8 	movw	r0, #52728	; 0xcdf8
    2ef8:	f2c0 0000 	movt	r0, #0
    2efc:	f04f 0104 	mov.w	r1, #4
    2f00:	f7fe ff20 	bl	1d44 <FRAME_BUFFER_change_text>
    2f04:	bd80      	pop	{r7, pc}
    2f06:	bf00      	nop

00002f08 <DISPLAY_GENERICO_dibuja_string>:
    2f08:	b580      	push	{r7, lr}
    2f0a:	b084      	sub	sp, #16
    2f0c:	af00      	add	r7, sp, #0
    2f0e:	60f8      	str	r0, [r7, #12]
    2f10:	60b9      	str	r1, [r7, #8]
    2f12:	607a      	str	r2, [r7, #4]
    2f14:	70fb      	strb	r3, [r7, #3]
    2f16:	78fb      	ldrb	r3, [r7, #3]
    2f18:	68f8      	ldr	r0, [r7, #12]
    2f1a:	68b9      	ldr	r1, [r7, #8]
    2f1c:	687a      	ldr	r2, [r7, #4]
    2f1e:	f001 f8a1 	bl	4064 <RIT128x96x4StringDraw>
    2f22:	f107 0710 	add.w	r7, r7, #16
    2f26:	46bd      	mov	sp, r7
    2f28:	bd80      	pop	{r7, pc}
    2f2a:	bf00      	nop

00002f2c <DISPLAY_GENERICO_dibuja_imagen>:
    2f2c:	b580      	push	{r7, lr}
    2f2e:	b086      	sub	sp, #24
    2f30:	af02      	add	r7, sp, #8
    2f32:	60f8      	str	r0, [r7, #12]
    2f34:	60b9      	str	r1, [r7, #8]
    2f36:	607a      	str	r2, [r7, #4]
    2f38:	603b      	str	r3, [r7, #0]
    2f3a:	69bb      	ldr	r3, [r7, #24]
    2f3c:	9300      	str	r3, [sp, #0]
    2f3e:	68f8      	ldr	r0, [r7, #12]
    2f40:	68b9      	ldr	r1, [r7, #8]
    2f42:	687a      	ldr	r2, [r7, #4]
    2f44:	683b      	ldr	r3, [r7, #0]
    2f46:	f001 f97d 	bl	4244 <RIT128x96x4ImageDraw>
    2f4a:	f107 0710 	add.w	r7, r7, #16
    2f4e:	46bd      	mov	sp, r7
    2f50:	bd80      	pop	{r7, pc}
    2f52:	bf00      	nop

00002f54 <DISPLAY_GENERICO_init>:
    2f54:	b580      	push	{r7, lr}
    2f56:	af00      	add	r7, sp, #0
    2f58:	f244 2040 	movw	r0, #16960	; 0x4240
    2f5c:	f2c0 000f 	movt	r0, #15
    2f60:	f001 fa38 	bl	43d4 <RIT128x96x4Init>
    2f64:	bd80      	pop	{r7, pc}
    2f66:	bf00      	nop

00002f68 <xTaskGenericCreate>:
    2f68:	b580      	push	{r7, lr}
    2f6a:	b08a      	sub	sp, #40	; 0x28
    2f6c:	af02      	add	r7, sp, #8
    2f6e:	60f8      	str	r0, [r7, #12]
    2f70:	60b9      	str	r1, [r7, #8]
    2f72:	603b      	str	r3, [r7, #0]
    2f74:	4613      	mov	r3, r2
    2f76:	80fb      	strh	r3, [r7, #6]
    2f78:	88fb      	ldrh	r3, [r7, #6]
    2f7a:	4618      	mov	r0, r3
    2f7c:	6b39      	ldr	r1, [r7, #48]	; 0x30
    2f7e:	f000 fd29 	bl	39d4 <prvAllocateTCBAndStack>
    2f82:	61b8      	str	r0, [r7, #24]
    2f84:	69bb      	ldr	r3, [r7, #24]
    2f86:	2b00      	cmp	r3, #0
    2f88:	f000 80a6 	beq.w	30d8 <xTaskGenericCreate+0x170>
    2f8c:	69bb      	ldr	r3, [r7, #24]
    2f8e:	6b1a      	ldr	r2, [r3, #48]	; 0x30
    2f90:	88fb      	ldrh	r3, [r7, #6]
    2f92:	f103 33ff 	add.w	r3, r3, #4294967295
    2f96:	ea4f 0383 	mov.w	r3, r3, lsl #2
    2f9a:	18d3      	adds	r3, r2, r3
    2f9c:	617b      	str	r3, [r7, #20]
    2f9e:	697b      	ldr	r3, [r7, #20]
    2fa0:	f023 0307 	bic.w	r3, r3, #7
    2fa4:	617b      	str	r3, [r7, #20]
    2fa6:	88fb      	ldrh	r3, [r7, #6]
    2fa8:	9300      	str	r3, [sp, #0]
    2faa:	69b8      	ldr	r0, [r7, #24]
    2fac:	68b9      	ldr	r1, [r7, #8]
    2fae:	6aba      	ldr	r2, [r7, #40]	; 0x28
    2fb0:	6b7b      	ldr	r3, [r7, #52]	; 0x34
    2fb2:	f000 fc3b 	bl	382c <prvInitialiseTCBVariables>
    2fb6:	6978      	ldr	r0, [r7, #20]
    2fb8:	68f9      	ldr	r1, [r7, #12]
    2fba:	683a      	ldr	r2, [r7, #0]
    2fbc:	f002 f81c 	bl	4ff8 <pxPortInitialiseStack>
    2fc0:	4603      	mov	r3, r0
    2fc2:	461a      	mov	r2, r3
    2fc4:	69bb      	ldr	r3, [r7, #24]
    2fc6:	601a      	str	r2, [r3, #0]
    2fc8:	6afb      	ldr	r3, [r7, #44]	; 0x2c
    2fca:	2b00      	cmp	r3, #0
    2fcc:	d002      	beq.n	2fd4 <xTaskGenericCreate+0x6c>
    2fce:	6afb      	ldr	r3, [r7, #44]	; 0x2c
    2fd0:	69ba      	ldr	r2, [r7, #24]
    2fd2:	601a      	str	r2, [r3, #0]
    2fd4:	f002 f890 	bl	50f8 <vPortEnterCritical>
    2fd8:	f240 7338 	movw	r3, #1848	; 0x738
    2fdc:	f2c2 0300 	movt	r3, #8192	; 0x2000
    2fe0:	681b      	ldr	r3, [r3, #0]
    2fe2:	f103 0201 	add.w	r2, r3, #1
    2fe6:	f240 7338 	movw	r3, #1848	; 0x738
    2fea:	f2c2 0300 	movt	r3, #8192	; 0x2000
    2fee:	601a      	str	r2, [r3, #0]
    2ff0:	f240 6364 	movw	r3, #1636	; 0x664
    2ff4:	f2c2 0300 	movt	r3, #8192	; 0x2000
    2ff8:	681b      	ldr	r3, [r3, #0]
    2ffa:	2b00      	cmp	r3, #0
    2ffc:	d10f      	bne.n	301e <xTaskGenericCreate+0xb6>
    2ffe:	f240 6364 	movw	r3, #1636	; 0x664
    3002:	f2c2 0300 	movt	r3, #8192	; 0x2000
    3006:	69ba      	ldr	r2, [r7, #24]
    3008:	601a      	str	r2, [r3, #0]
    300a:	f240 7338 	movw	r3, #1848	; 0x738
    300e:	f2c2 0300 	movt	r3, #8192	; 0x2000
    3012:	681b      	ldr	r3, [r3, #0]
    3014:	2b01      	cmp	r3, #1
    3016:	d118      	bne.n	304a <xTaskGenericCreate+0xe2>
    3018:	f000 fc44 	bl	38a4 <prvInitialiseTaskLists>
    301c:	e015      	b.n	304a <xTaskGenericCreate+0xe2>
    301e:	f240 7348 	movw	r3, #1864	; 0x748
    3022:	f2c2 0300 	movt	r3, #8192	; 0x2000
    3026:	681b      	ldr	r3, [r3, #0]
    3028:	2b00      	cmp	r3, #0
    302a:	d10e      	bne.n	304a <xTaskGenericCreate+0xe2>
    302c:	f240 6364 	movw	r3, #1636	; 0x664
    3030:	f2c2 0300 	movt	r3, #8192	; 0x2000
    3034:	681b      	ldr	r3, [r3, #0]
    3036:	6ada      	ldr	r2, [r3, #44]	; 0x2c
    3038:	6abb      	ldr	r3, [r7, #40]	; 0x28
    303a:	429a      	cmp	r2, r3
    303c:	d805      	bhi.n	304a <xTaskGenericCreate+0xe2>
    303e:	f240 6364 	movw	r3, #1636	; 0x664
    3042:	f2c2 0300 	movt	r3, #8192	; 0x2000
    3046:	69ba      	ldr	r2, [r7, #24]
    3048:	601a      	str	r2, [r3, #0]
    304a:	69bb      	ldr	r3, [r7, #24]
    304c:	6ada      	ldr	r2, [r3, #44]	; 0x2c
    304e:	f240 7340 	movw	r3, #1856	; 0x740
    3052:	f2c2 0300 	movt	r3, #8192	; 0x2000
    3056:	681b      	ldr	r3, [r3, #0]
    3058:	429a      	cmp	r2, r3
    305a:	d906      	bls.n	306a <xTaskGenericCreate+0x102>
    305c:	69bb      	ldr	r3, [r7, #24]
    305e:	6ada      	ldr	r2, [r3, #44]	; 0x2c
    3060:	f240 7340 	movw	r3, #1856	; 0x740
    3064:	f2c2 0300 	movt	r3, #8192	; 0x2000
    3068:	601a      	str	r2, [r3, #0]
    306a:	f240 735c 	movw	r3, #1884	; 0x75c
    306e:	f2c2 0300 	movt	r3, #8192	; 0x2000
    3072:	681b      	ldr	r3, [r3, #0]
    3074:	f103 0201 	add.w	r2, r3, #1
    3078:	f240 735c 	movw	r3, #1884	; 0x75c
    307c:	f2c2 0300 	movt	r3, #8192	; 0x2000
    3080:	601a      	str	r2, [r3, #0]
    3082:	69bb      	ldr	r3, [r7, #24]
    3084:	6ada      	ldr	r2, [r3, #44]	; 0x2c
    3086:	f240 7344 	movw	r3, #1860	; 0x744
    308a:	f2c2 0300 	movt	r3, #8192	; 0x2000
    308e:	681b      	ldr	r3, [r3, #0]
    3090:	429a      	cmp	r2, r3
    3092:	d906      	bls.n	30a2 <xTaskGenericCreate+0x13a>
    3094:	69bb      	ldr	r3, [r7, #24]
    3096:	6ada      	ldr	r2, [r3, #44]	; 0x2c
    3098:	f240 7344 	movw	r3, #1860	; 0x744
    309c:	f2c2 0300 	movt	r3, #8192	; 0x2000
    30a0:	601a      	str	r2, [r3, #0]
    30a2:	69bb      	ldr	r3, [r7, #24]
    30a4:	6ada      	ldr	r2, [r3, #44]	; 0x2c
    30a6:	4613      	mov	r3, r2
    30a8:	ea4f 0383 	mov.w	r3, r3, lsl #2
    30ac:	189b      	adds	r3, r3, r2
    30ae:	ea4f 0383 	mov.w	r3, r3, lsl #2
    30b2:	461a      	mov	r2, r3
    30b4:	f240 6368 	movw	r3, #1640	; 0x668
    30b8:	f2c2 0300 	movt	r3, #8192	; 0x2000
    30bc:	18d2      	adds	r2, r2, r3
    30be:	69bb      	ldr	r3, [r7, #24]
    30c0:	f103 0304 	add.w	r3, r3, #4
    30c4:	4610      	mov	r0, r2
    30c6:	4619      	mov	r1, r3
    30c8:	f001 fca2 	bl	4a10 <vListInsertEnd>
    30cc:	f04f 0301 	mov.w	r3, #1
    30d0:	61fb      	str	r3, [r7, #28]
    30d2:	f002 f827 	bl	5124 <vPortExitCritical>
    30d6:	e002      	b.n	30de <xTaskGenericCreate+0x176>
    30d8:	f04f 33ff 	mov.w	r3, #4294967295
    30dc:	61fb      	str	r3, [r7, #28]
    30de:	69fb      	ldr	r3, [r7, #28]
    30e0:	2b01      	cmp	r3, #1
    30e2:	d111      	bne.n	3108 <xTaskGenericCreate+0x1a0>
    30e4:	f240 7348 	movw	r3, #1864	; 0x748
    30e8:	f2c2 0300 	movt	r3, #8192	; 0x2000
    30ec:	681b      	ldr	r3, [r3, #0]
    30ee:	2b00      	cmp	r3, #0
    30f0:	d00a      	beq.n	3108 <xTaskGenericCreate+0x1a0>
    30f2:	f240 6364 	movw	r3, #1636	; 0x664
    30f6:	f2c2 0300 	movt	r3, #8192	; 0x2000
    30fa:	681b      	ldr	r3, [r3, #0]
    30fc:	6ada      	ldr	r2, [r3, #44]	; 0x2c
    30fe:	6abb      	ldr	r3, [r7, #40]	; 0x28
    3100:	429a      	cmp	r2, r3
    3102:	d201      	bcs.n	3108 <xTaskGenericCreate+0x1a0>
    3104:	f001 ffec 	bl	50e0 <vPortYieldFromISR>
    3108:	69fb      	ldr	r3, [r7, #28]
    310a:	4618      	mov	r0, r3
    310c:	f107 0720 	add.w	r7, r7, #32
    3110:	46bd      	mov	sp, r7
    3112:	bd80      	pop	{r7, pc}

00003114 <vTaskDelayUntil>:
    3114:	b580      	push	{r7, lr}
    3116:	b086      	sub	sp, #24
    3118:	af00      	add	r7, sp, #0
    311a:	6078      	str	r0, [r7, #4]
    311c:	6039      	str	r1, [r7, #0]
    311e:	f04f 0300 	mov.w	r3, #0
    3122:	617b      	str	r3, [r7, #20]
    3124:	f000 f966 	bl	33f4 <vTaskSuspendAll>
    3128:	687b      	ldr	r3, [r7, #4]
    312a:	681a      	ldr	r2, [r3, #0]
    312c:	683b      	ldr	r3, [r7, #0]
    312e:	18d3      	adds	r3, r2, r3
    3130:	613b      	str	r3, [r7, #16]
    3132:	687b      	ldr	r3, [r7, #4]
    3134:	681a      	ldr	r2, [r3, #0]
    3136:	f240 733c 	movw	r3, #1852	; 0x73c
    313a:	f2c2 0300 	movt	r3, #8192	; 0x2000
    313e:	681b      	ldr	r3, [r3, #0]
    3140:	429a      	cmp	r2, r3
    3142:	d910      	bls.n	3166 <vTaskDelayUntil+0x52>
    3144:	687b      	ldr	r3, [r7, #4]
    3146:	681a      	ldr	r2, [r3, #0]
    3148:	693b      	ldr	r3, [r7, #16]
    314a:	429a      	cmp	r2, r3
    314c:	d91b      	bls.n	3186 <vTaskDelayUntil+0x72>
    314e:	f240 733c 	movw	r3, #1852	; 0x73c
    3152:	f2c2 0300 	movt	r3, #8192	; 0x2000
    3156:	681b      	ldr	r3, [r3, #0]
    3158:	693a      	ldr	r2, [r7, #16]
    315a:	429a      	cmp	r2, r3
    315c:	d913      	bls.n	3186 <vTaskDelayUntil+0x72>
    315e:	f04f 0301 	mov.w	r3, #1
    3162:	617b      	str	r3, [r7, #20]
    3164:	e00f      	b.n	3186 <vTaskDelayUntil+0x72>
    3166:	687b      	ldr	r3, [r7, #4]
    3168:	681a      	ldr	r2, [r3, #0]
    316a:	693b      	ldr	r3, [r7, #16]
    316c:	429a      	cmp	r2, r3
    316e:	d807      	bhi.n	3180 <vTaskDelayUntil+0x6c>
    3170:	f240 733c 	movw	r3, #1852	; 0x73c
    3174:	f2c2 0300 	movt	r3, #8192	; 0x2000
    3178:	681b      	ldr	r3, [r3, #0]
    317a:	693a      	ldr	r2, [r7, #16]
    317c:	429a      	cmp	r2, r3
    317e:	d902      	bls.n	3186 <vTaskDelayUntil+0x72>
    3180:	f04f 0301 	mov.w	r3, #1
    3184:	617b      	str	r3, [r7, #20]
    3186:	687b      	ldr	r3, [r7, #4]
    3188:	693a      	ldr	r2, [r7, #16]
    318a:	601a      	str	r2, [r3, #0]
    318c:	697b      	ldr	r3, [r7, #20]
    318e:	2b00      	cmp	r3, #0
    3190:	d00c      	beq.n	31ac <vTaskDelayUntil+0x98>
    3192:	f240 6364 	movw	r3, #1636	; 0x664
    3196:	f2c2 0300 	movt	r3, #8192	; 0x2000
    319a:	681b      	ldr	r3, [r3, #0]
    319c:	f103 0304 	add.w	r3, r3, #4
    31a0:	4618      	mov	r0, r3
    31a2:	f001 fc9b 	bl	4adc <vListRemove>
    31a6:	6938      	ldr	r0, [r7, #16]
    31a8:	f000 fbce 	bl	3948 <prvAddCurrentTaskToDelayedList>
    31ac:	f000 f934 	bl	3418 <xTaskResumeAll>
    31b0:	60f8      	str	r0, [r7, #12]
    31b2:	68fb      	ldr	r3, [r7, #12]
    31b4:	2b00      	cmp	r3, #0
    31b6:	d101      	bne.n	31bc <vTaskDelayUntil+0xa8>
    31b8:	f001 ff92 	bl	50e0 <vPortYieldFromISR>
    31bc:	f107 0718 	add.w	r7, r7, #24
    31c0:	46bd      	mov	sp, r7
    31c2:	bd80      	pop	{r7, pc}

000031c4 <vTaskSuspend>:
    31c4:	b580      	push	{r7, lr}
    31c6:	b084      	sub	sp, #16
    31c8:	af00      	add	r7, sp, #0
    31ca:	6078      	str	r0, [r7, #4]
    31cc:	f001 ff94 	bl	50f8 <vPortEnterCritical>
    31d0:	f240 6364 	movw	r3, #1636	; 0x664
    31d4:	f2c2 0300 	movt	r3, #8192	; 0x2000
    31d8:	681b      	ldr	r3, [r3, #0]
    31da:	687a      	ldr	r2, [r7, #4]
    31dc:	429a      	cmp	r2, r3
    31de:	d102      	bne.n	31e6 <vTaskSuspend+0x22>
    31e0:	f04f 0300 	mov.w	r3, #0
    31e4:	607b      	str	r3, [r7, #4]
    31e6:	687b      	ldr	r3, [r7, #4]
    31e8:	2b00      	cmp	r3, #0
    31ea:	d105      	bne.n	31f8 <vTaskSuspend+0x34>
    31ec:	f240 6364 	movw	r3, #1636	; 0x664
    31f0:	f2c2 0300 	movt	r3, #8192	; 0x2000
    31f4:	681b      	ldr	r3, [r3, #0]
    31f6:	e000      	b.n	31fa <vTaskSuspend+0x36>
    31f8:	687b      	ldr	r3, [r7, #4]
    31fa:	60fb      	str	r3, [r7, #12]
    31fc:	68fb      	ldr	r3, [r7, #12]
    31fe:	f103 0304 	add.w	r3, r3, #4
    3202:	4618      	mov	r0, r3
    3204:	f001 fc6a 	bl	4adc <vListRemove>
    3208:	68fb      	ldr	r3, [r7, #12]
    320a:	6a9b      	ldr	r3, [r3, #40]	; 0x28
    320c:	2b00      	cmp	r3, #0
    320e:	d005      	beq.n	321c <vTaskSuspend+0x58>
    3210:	68fb      	ldr	r3, [r7, #12]
    3212:	f103 0318 	add.w	r3, r3, #24
    3216:	4618      	mov	r0, r3
    3218:	f001 fc60 	bl	4adc <vListRemove>
    321c:	68fb      	ldr	r3, [r7, #12]
    321e:	f103 0304 	add.w	r3, r3, #4
    3222:	f240 7024 	movw	r0, #1828	; 0x724
    3226:	f2c2 0000 	movt	r0, #8192	; 0x2000
    322a:	4619      	mov	r1, r3
    322c:	f001 fbf0 	bl	4a10 <vListInsertEnd>
    3230:	f001 ff78 	bl	5124 <vPortExitCritical>
    3234:	687b      	ldr	r3, [r7, #4]
    3236:	2b00      	cmp	r3, #0
    3238:	d120      	bne.n	327c <vTaskSuspend+0xb8>
    323a:	f240 7348 	movw	r3, #1864	; 0x748
    323e:	f2c2 0300 	movt	r3, #8192	; 0x2000
    3242:	681b      	ldr	r3, [r3, #0]
    3244:	2b00      	cmp	r3, #0
    3246:	d002      	beq.n	324e <vTaskSuspend+0x8a>
    3248:	f001 ff4a 	bl	50e0 <vPortYieldFromISR>
    324c:	e016      	b.n	327c <vTaskSuspend+0xb8>
    324e:	f240 7324 	movw	r3, #1828	; 0x724
    3252:	f2c2 0300 	movt	r3, #8192	; 0x2000
    3256:	681b      	ldr	r3, [r3, #0]
    3258:	461a      	mov	r2, r3
    325a:	f240 7338 	movw	r3, #1848	; 0x738
    325e:	f2c2 0300 	movt	r3, #8192	; 0x2000
    3262:	681b      	ldr	r3, [r3, #0]
    3264:	429a      	cmp	r2, r3
    3266:	d107      	bne.n	3278 <vTaskSuspend+0xb4>
    3268:	f240 6364 	movw	r3, #1636	; 0x664
    326c:	f2c2 0300 	movt	r3, #8192	; 0x2000
    3270:	f04f 0200 	mov.w	r2, #0
    3274:	601a      	str	r2, [r3, #0]
    3276:	e001      	b.n	327c <vTaskSuspend+0xb8>
    3278:	f000 fa68 	bl	374c <vTaskSwitchContext>
    327c:	f107 0710 	add.w	r7, r7, #16
    3280:	46bd      	mov	sp, r7
    3282:	bd80      	pop	{r7, pc}

00003284 <xTaskIsTaskSuspended>:
    3284:	b480      	push	{r7}
    3286:	b085      	sub	sp, #20
    3288:	af00      	add	r7, sp, #0
    328a:	6078      	str	r0, [r7, #4]
    328c:	f04f 0300 	mov.w	r3, #0
    3290:	60fb      	str	r3, [r7, #12]
    3292:	687b      	ldr	r3, [r7, #4]
    3294:	60bb      	str	r3, [r7, #8]
    3296:	68bb      	ldr	r3, [r7, #8]
    3298:	695a      	ldr	r2, [r3, #20]
    329a:	f240 7324 	movw	r3, #1828	; 0x724
    329e:	f2c2 0300 	movt	r3, #8192	; 0x2000
    32a2:	429a      	cmp	r2, r3
    32a4:	d10e      	bne.n	32c4 <xTaskIsTaskSuspended+0x40>
    32a6:	68bb      	ldr	r3, [r7, #8]
    32a8:	6a9a      	ldr	r2, [r3, #40]	; 0x28
    32aa:	f240 7310 	movw	r3, #1808	; 0x710
    32ae:	f2c2 0300 	movt	r3, #8192	; 0x2000
    32b2:	429a      	cmp	r2, r3
    32b4:	d006      	beq.n	32c4 <xTaskIsTaskSuspended+0x40>
    32b6:	68bb      	ldr	r3, [r7, #8]
    32b8:	6a9b      	ldr	r3, [r3, #40]	; 0x28
    32ba:	2b00      	cmp	r3, #0
    32bc:	d102      	bne.n	32c4 <xTaskIsTaskSuspended+0x40>
    32be:	f04f 0301 	mov.w	r3, #1
    32c2:	60fb      	str	r3, [r7, #12]
    32c4:	68fb      	ldr	r3, [r7, #12]
    32c6:	4618      	mov	r0, r3
    32c8:	f107 0714 	add.w	r7, r7, #20
    32cc:	46bd      	mov	sp, r7
    32ce:	bc80      	pop	{r7}
    32d0:	4770      	bx	lr
    32d2:	bf00      	nop

000032d4 <vTaskResume>:
    32d4:	b580      	push	{r7, lr}
    32d6:	b084      	sub	sp, #16
    32d8:	af00      	add	r7, sp, #0
    32da:	6078      	str	r0, [r7, #4]
    32dc:	687b      	ldr	r3, [r7, #4]
    32de:	60fb      	str	r3, [r7, #12]
    32e0:	68fb      	ldr	r3, [r7, #12]
    32e2:	2b00      	cmp	r3, #0
    32e4:	d048      	beq.n	3378 <vTaskResume+0xa4>
    32e6:	f240 6364 	movw	r3, #1636	; 0x664
    32ea:	f2c2 0300 	movt	r3, #8192	; 0x2000
    32ee:	681b      	ldr	r3, [r3, #0]
    32f0:	68fa      	ldr	r2, [r7, #12]
    32f2:	429a      	cmp	r2, r3
    32f4:	d040      	beq.n	3378 <vTaskResume+0xa4>
    32f6:	f001 feff 	bl	50f8 <vPortEnterCritical>
    32fa:	68f8      	ldr	r0, [r7, #12]
    32fc:	f7ff ffc2 	bl	3284 <xTaskIsTaskSuspended>
    3300:	4603      	mov	r3, r0
    3302:	2b01      	cmp	r3, #1
    3304:	d136      	bne.n	3374 <vTaskResume+0xa0>
    3306:	68fb      	ldr	r3, [r7, #12]
    3308:	f103 0304 	add.w	r3, r3, #4
    330c:	4618      	mov	r0, r3
    330e:	f001 fbe5 	bl	4adc <vListRemove>
    3312:	68fb      	ldr	r3, [r7, #12]
    3314:	6ada      	ldr	r2, [r3, #44]	; 0x2c
    3316:	f240 7344 	movw	r3, #1860	; 0x744
    331a:	f2c2 0300 	movt	r3, #8192	; 0x2000
    331e:	681b      	ldr	r3, [r3, #0]
    3320:	429a      	cmp	r2, r3
    3322:	d906      	bls.n	3332 <vTaskResume+0x5e>
    3324:	68fb      	ldr	r3, [r7, #12]
    3326:	6ada      	ldr	r2, [r3, #44]	; 0x2c
    3328:	f240 7344 	movw	r3, #1860	; 0x744
    332c:	f2c2 0300 	movt	r3, #8192	; 0x2000
    3330:	601a      	str	r2, [r3, #0]
    3332:	68fb      	ldr	r3, [r7, #12]
    3334:	6ada      	ldr	r2, [r3, #44]	; 0x2c
    3336:	4613      	mov	r3, r2
    3338:	ea4f 0383 	mov.w	r3, r3, lsl #2
    333c:	189b      	adds	r3, r3, r2
    333e:	ea4f 0383 	mov.w	r3, r3, lsl #2
    3342:	461a      	mov	r2, r3
    3344:	f240 6368 	movw	r3, #1640	; 0x668
    3348:	f2c2 0300 	movt	r3, #8192	; 0x2000
    334c:	18d2      	adds	r2, r2, r3
    334e:	68fb      	ldr	r3, [r7, #12]
    3350:	f103 0304 	add.w	r3, r3, #4
    3354:	4610      	mov	r0, r2
    3356:	4619      	mov	r1, r3
    3358:	f001 fb5a 	bl	4a10 <vListInsertEnd>
    335c:	68fb      	ldr	r3, [r7, #12]
    335e:	6ada      	ldr	r2, [r3, #44]	; 0x2c
    3360:	f240 6364 	movw	r3, #1636	; 0x664
    3364:	f2c2 0300 	movt	r3, #8192	; 0x2000
    3368:	681b      	ldr	r3, [r3, #0]
    336a:	6adb      	ldr	r3, [r3, #44]	; 0x2c
    336c:	429a      	cmp	r2, r3
    336e:	d301      	bcc.n	3374 <vTaskResume+0xa0>
    3370:	f001 feb6 	bl	50e0 <vPortYieldFromISR>
    3374:	f001 fed6 	bl	5124 <vPortExitCritical>
    3378:	f107 0710 	add.w	r7, r7, #16
    337c:	46bd      	mov	sp, r7
    337e:	bd80      	pop	{r7, pc}

00003380 <vTaskStartScheduler>:
    3380:	b580      	push	{r7, lr}
    3382:	b086      	sub	sp, #24
    3384:	af04      	add	r7, sp, #16
    3386:	f64c 6310 	movw	r3, #52752	; 0xce10
    338a:	f2c0 0300 	movt	r3, #0
    338e:	f04f 0200 	mov.w	r2, #0
    3392:	9200      	str	r2, [sp, #0]
    3394:	f04f 0200 	mov.w	r2, #0
    3398:	9201      	str	r2, [sp, #4]
    339a:	f04f 0200 	mov.w	r2, #0
    339e:	9202      	str	r2, [sp, #8]
    33a0:	f04f 0200 	mov.w	r2, #0
    33a4:	9203      	str	r2, [sp, #12]
    33a6:	f643 001d 	movw	r0, #14365	; 0x381d
    33aa:	f2c0 0000 	movt	r0, #0
    33ae:	4619      	mov	r1, r3
    33b0:	f04f 0264 	mov.w	r2, #100	; 0x64
    33b4:	f04f 0300 	mov.w	r3, #0
    33b8:	f7ff fdd6 	bl	2f68 <xTaskGenericCreate>
    33bc:	6078      	str	r0, [r7, #4]
    33be:	687b      	ldr	r3, [r7, #4]
    33c0:	2b01      	cmp	r3, #1
    33c2:	d113      	bne.n	33ec <vTaskStartScheduler+0x6c>
    33c4:	f04f 00a0 	mov.w	r0, #160	; 0xa0
    33c8:	f380 8811 	msr	BASEPRI, r0
    33cc:	f240 7348 	movw	r3, #1864	; 0x748
    33d0:	f2c2 0300 	movt	r3, #8192	; 0x2000
    33d4:	f04f 0201 	mov.w	r2, #1
    33d8:	601a      	str	r2, [r3, #0]
    33da:	f240 733c 	movw	r3, #1852	; 0x73c
    33de:	f2c2 0300 	movt	r3, #8192	; 0x2000
    33e2:	f04f 0200 	mov.w	r2, #0
    33e6:	601a      	str	r2, [r3, #0]
    33e8:	f001 fe50 	bl	508c <xPortStartScheduler>
    33ec:	f107 0708 	add.w	r7, r7, #8
    33f0:	46bd      	mov	sp, r7
    33f2:	bd80      	pop	{r7, pc}

000033f4 <vTaskSuspendAll>:
    33f4:	b480      	push	{r7}
    33f6:	af00      	add	r7, sp, #0
    33f8:	f240 734c 	movw	r3, #1868	; 0x74c
    33fc:	f2c2 0300 	movt	r3, #8192	; 0x2000
    3400:	681b      	ldr	r3, [r3, #0]
    3402:	f103 0201 	add.w	r2, r3, #1
    3406:	f240 734c 	movw	r3, #1868	; 0x74c
    340a:	f2c2 0300 	movt	r3, #8192	; 0x2000
    340e:	601a      	str	r2, [r3, #0]
    3410:	46bd      	mov	sp, r7
    3412:	bc80      	pop	{r7}
    3414:	4770      	bx	lr
    3416:	bf00      	nop

00003418 <xTaskResumeAll>:
    3418:	b590      	push	{r4, r7, lr}
    341a:	b083      	sub	sp, #12
    341c:	af00      	add	r7, sp, #0
    341e:	f04f 0300 	mov.w	r3, #0
    3422:	607b      	str	r3, [r7, #4]
    3424:	f001 fe68 	bl	50f8 <vPortEnterCritical>
    3428:	f240 734c 	movw	r3, #1868	; 0x74c
    342c:	f2c2 0300 	movt	r3, #8192	; 0x2000
    3430:	681b      	ldr	r3, [r3, #0]
    3432:	f103 32ff 	add.w	r2, r3, #4294967295
    3436:	f240 734c 	movw	r3, #1868	; 0x74c
    343a:	f2c2 0300 	movt	r3, #8192	; 0x2000
    343e:	601a      	str	r2, [r3, #0]
    3440:	f240 734c 	movw	r3, #1868	; 0x74c
    3444:	f2c2 0300 	movt	r3, #8192	; 0x2000
    3448:	681b      	ldr	r3, [r3, #0]
    344a:	2b00      	cmp	r3, #0
    344c:	f040 8086 	bne.w	355c <xTaskResumeAll+0x144>
    3450:	f240 7338 	movw	r3, #1848	; 0x738
    3454:	f2c2 0300 	movt	r3, #8192	; 0x2000
    3458:	681b      	ldr	r3, [r3, #0]
    345a:	2b00      	cmp	r3, #0
    345c:	d07e      	beq.n	355c <xTaskResumeAll+0x144>
    345e:	f04f 0300 	mov.w	r3, #0
    3462:	603b      	str	r3, [r7, #0]
    3464:	e03d      	b.n	34e2 <xTaskResumeAll+0xca>
    3466:	f240 7310 	movw	r3, #1808	; 0x710
    346a:	f2c2 0300 	movt	r3, #8192	; 0x2000
    346e:	68db      	ldr	r3, [r3, #12]
    3470:	68db      	ldr	r3, [r3, #12]
    3472:	461c      	mov	r4, r3
    3474:	f104 0318 	add.w	r3, r4, #24
    3478:	4618      	mov	r0, r3
    347a:	f001 fb2f 	bl	4adc <vListRemove>
    347e:	f104 0304 	add.w	r3, r4, #4
    3482:	4618      	mov	r0, r3
    3484:	f001 fb2a 	bl	4adc <vListRemove>
    3488:	6ae2      	ldr	r2, [r4, #44]	; 0x2c
    348a:	f240 7344 	movw	r3, #1860	; 0x744
    348e:	f2c2 0300 	movt	r3, #8192	; 0x2000
    3492:	681b      	ldr	r3, [r3, #0]
    3494:	429a      	cmp	r2, r3
    3496:	d905      	bls.n	34a4 <xTaskResumeAll+0x8c>
    3498:	6ae2      	ldr	r2, [r4, #44]	; 0x2c
    349a:	f240 7344 	movw	r3, #1860	; 0x744
    349e:	f2c2 0300 	movt	r3, #8192	; 0x2000
    34a2:	601a      	str	r2, [r3, #0]
    34a4:	6ae2      	ldr	r2, [r4, #44]	; 0x2c
    34a6:	4613      	mov	r3, r2
    34a8:	ea4f 0383 	mov.w	r3, r3, lsl #2
    34ac:	189b      	adds	r3, r3, r2
    34ae:	ea4f 0383 	mov.w	r3, r3, lsl #2
    34b2:	461a      	mov	r2, r3
    34b4:	f240 6368 	movw	r3, #1640	; 0x668
    34b8:	f2c2 0300 	movt	r3, #8192	; 0x2000
    34bc:	18d2      	adds	r2, r2, r3
    34be:	f104 0304 	add.w	r3, r4, #4
    34c2:	4610      	mov	r0, r2
    34c4:	4619      	mov	r1, r3
    34c6:	f001 faa3 	bl	4a10 <vListInsertEnd>
    34ca:	6ae2      	ldr	r2, [r4, #44]	; 0x2c
    34cc:	f240 6364 	movw	r3, #1636	; 0x664
    34d0:	f2c2 0300 	movt	r3, #8192	; 0x2000
    34d4:	681b      	ldr	r3, [r3, #0]
    34d6:	6adb      	ldr	r3, [r3, #44]	; 0x2c
    34d8:	429a      	cmp	r2, r3
    34da:	d302      	bcc.n	34e2 <xTaskResumeAll+0xca>
    34dc:	f04f 0301 	mov.w	r3, #1
    34e0:	603b      	str	r3, [r7, #0]
    34e2:	f240 7310 	movw	r3, #1808	; 0x710
    34e6:	f2c2 0300 	movt	r3, #8192	; 0x2000
    34ea:	681b      	ldr	r3, [r3, #0]
    34ec:	2b00      	cmp	r3, #0
    34ee:	d1ba      	bne.n	3466 <xTaskResumeAll+0x4e>
    34f0:	f240 7350 	movw	r3, #1872	; 0x750
    34f4:	f2c2 0300 	movt	r3, #8192	; 0x2000
    34f8:	681b      	ldr	r3, [r3, #0]
    34fa:	2b00      	cmp	r3, #0
    34fc:	d018      	beq.n	3530 <xTaskResumeAll+0x118>
    34fe:	e00d      	b.n	351c <xTaskResumeAll+0x104>
    3500:	f000 f848 	bl	3594 <vTaskIncrementTick>
    3504:	f240 7350 	movw	r3, #1872	; 0x750
    3508:	f2c2 0300 	movt	r3, #8192	; 0x2000
    350c:	681b      	ldr	r3, [r3, #0]
    350e:	f103 32ff 	add.w	r2, r3, #4294967295
    3512:	f240 7350 	movw	r3, #1872	; 0x750
    3516:	f2c2 0300 	movt	r3, #8192	; 0x2000
    351a:	601a      	str	r2, [r3, #0]
    351c:	f240 7350 	movw	r3, #1872	; 0x750
    3520:	f2c2 0300 	movt	r3, #8192	; 0x2000
    3524:	681b      	ldr	r3, [r3, #0]
    3526:	2b00      	cmp	r3, #0
    3528:	d1ea      	bne.n	3500 <xTaskResumeAll+0xe8>
    352a:	f04f 0301 	mov.w	r3, #1
    352e:	603b      	str	r3, [r7, #0]
    3530:	683b      	ldr	r3, [r7, #0]
    3532:	2b01      	cmp	r3, #1
    3534:	d006      	beq.n	3544 <xTaskResumeAll+0x12c>
    3536:	f240 7354 	movw	r3, #1876	; 0x754
    353a:	f2c2 0300 	movt	r3, #8192	; 0x2000
    353e:	681b      	ldr	r3, [r3, #0]
    3540:	2b01      	cmp	r3, #1
    3542:	d10b      	bne.n	355c <xTaskResumeAll+0x144>
    3544:	f04f 0301 	mov.w	r3, #1
    3548:	607b      	str	r3, [r7, #4]
    354a:	f240 7354 	movw	r3, #1876	; 0x754
    354e:	f2c2 0300 	movt	r3, #8192	; 0x2000
    3552:	f04f 0200 	mov.w	r2, #0
    3556:	601a      	str	r2, [r3, #0]
    3558:	f001 fdc2 	bl	50e0 <vPortYieldFromISR>
    355c:	f001 fde2 	bl	5124 <vPortExitCritical>
    3560:	687b      	ldr	r3, [r7, #4]
    3562:	4618      	mov	r0, r3
    3564:	f107 070c 	add.w	r7, r7, #12
    3568:	46bd      	mov	sp, r7
    356a:	bd90      	pop	{r4, r7, pc}

0000356c <xTaskGetTickCount>:
    356c:	b580      	push	{r7, lr}
    356e:	b082      	sub	sp, #8
    3570:	af00      	add	r7, sp, #0
    3572:	f001 fdc1 	bl	50f8 <vPortEnterCritical>
    3576:	f240 733c 	movw	r3, #1852	; 0x73c
    357a:	f2c2 0300 	movt	r3, #8192	; 0x2000
    357e:	681b      	ldr	r3, [r3, #0]
    3580:	607b      	str	r3, [r7, #4]
    3582:	f001 fdcf 	bl	5124 <vPortExitCritical>
    3586:	687b      	ldr	r3, [r7, #4]
    3588:	4618      	mov	r0, r3
    358a:	f107 0708 	add.w	r7, r7, #8
    358e:	46bd      	mov	sp, r7
    3590:	bd80      	pop	{r7, pc}
    3592:	bf00      	nop

00003594 <vTaskIncrementTick>:
    3594:	b580      	push	{r7, lr}
    3596:	b084      	sub	sp, #16
    3598:	af00      	add	r7, sp, #0
    359a:	f240 734c 	movw	r3, #1868	; 0x74c
    359e:	f2c2 0300 	movt	r3, #8192	; 0x2000
    35a2:	681b      	ldr	r3, [r3, #0]
    35a4:	2b00      	cmp	r3, #0
    35a6:	f040 80c0 	bne.w	372a <vTaskIncrementTick+0x196>
    35aa:	f240 733c 	movw	r3, #1852	; 0x73c
    35ae:	f2c2 0300 	movt	r3, #8192	; 0x2000
    35b2:	681b      	ldr	r3, [r3, #0]
    35b4:	f103 0201 	add.w	r2, r3, #1
    35b8:	f240 733c 	movw	r3, #1852	; 0x73c
    35bc:	f2c2 0300 	movt	r3, #8192	; 0x2000
    35c0:	601a      	str	r2, [r3, #0]
    35c2:	f240 733c 	movw	r3, #1852	; 0x73c
    35c6:	f2c2 0300 	movt	r3, #8192	; 0x2000
    35ca:	681b      	ldr	r3, [r3, #0]
    35cc:	2b00      	cmp	r3, #0
    35ce:	d140      	bne.n	3652 <vTaskIncrementTick+0xbe>
    35d0:	f240 7308 	movw	r3, #1800	; 0x708
    35d4:	f2c2 0300 	movt	r3, #8192	; 0x2000
    35d8:	681b      	ldr	r3, [r3, #0]
    35da:	60fb      	str	r3, [r7, #12]
    35dc:	f240 730c 	movw	r3, #1804	; 0x70c
    35e0:	f2c2 0300 	movt	r3, #8192	; 0x2000
    35e4:	681a      	ldr	r2, [r3, #0]
    35e6:	f240 7308 	movw	r3, #1800	; 0x708
    35ea:	f2c2 0300 	movt	r3, #8192	; 0x2000
    35ee:	601a      	str	r2, [r3, #0]
    35f0:	f240 730c 	movw	r3, #1804	; 0x70c
    35f4:	f2c2 0300 	movt	r3, #8192	; 0x2000
    35f8:	68fa      	ldr	r2, [r7, #12]
    35fa:	601a      	str	r2, [r3, #0]
    35fc:	f240 7358 	movw	r3, #1880	; 0x758
    3600:	f2c2 0300 	movt	r3, #8192	; 0x2000
    3604:	681b      	ldr	r3, [r3, #0]
    3606:	f103 0201 	add.w	r2, r3, #1
    360a:	f240 7358 	movw	r3, #1880	; 0x758
    360e:	f2c2 0300 	movt	r3, #8192	; 0x2000
    3612:	601a      	str	r2, [r3, #0]
    3614:	f240 7308 	movw	r3, #1800	; 0x708
    3618:	f2c2 0300 	movt	r3, #8192	; 0x2000
    361c:	681b      	ldr	r3, [r3, #0]
    361e:	681b      	ldr	r3, [r3, #0]
    3620:	2b00      	cmp	r3, #0
    3622:	d107      	bne.n	3634 <vTaskIncrementTick+0xa0>
    3624:	f240 0354 	movw	r3, #84	; 0x54
    3628:	f2c2 0300 	movt	r3, #8192	; 0x2000
    362c:	f04f 32ff 	mov.w	r2, #4294967295
    3630:	601a      	str	r2, [r3, #0]
    3632:	e00e      	b.n	3652 <vTaskIncrementTick+0xbe>
    3634:	f240 7308 	movw	r3, #1800	; 0x708
    3638:	f2c2 0300 	movt	r3, #8192	; 0x2000
    363c:	681b      	ldr	r3, [r3, #0]
    363e:	68db      	ldr	r3, [r3, #12]
    3640:	68db      	ldr	r3, [r3, #12]
    3642:	60bb      	str	r3, [r7, #8]
    3644:	68bb      	ldr	r3, [r7, #8]
    3646:	685a      	ldr	r2, [r3, #4]
    3648:	f240 0354 	movw	r3, #84	; 0x54
    364c:	f2c2 0300 	movt	r3, #8192	; 0x2000
    3650:	601a      	str	r2, [r3, #0]
    3652:	f240 733c 	movw	r3, #1852	; 0x73c
    3656:	f2c2 0300 	movt	r3, #8192	; 0x2000
    365a:	681a      	ldr	r2, [r3, #0]
    365c:	f240 0354 	movw	r3, #84	; 0x54
    3660:	f2c2 0300 	movt	r3, #8192	; 0x2000
    3664:	681b      	ldr	r3, [r3, #0]
    3666:	429a      	cmp	r2, r3
    3668:	d36b      	bcc.n	3742 <vTaskIncrementTick+0x1ae>
    366a:	f240 7308 	movw	r3, #1800	; 0x708
    366e:	f2c2 0300 	movt	r3, #8192	; 0x2000
    3672:	681b      	ldr	r3, [r3, #0]
    3674:	681b      	ldr	r3, [r3, #0]
    3676:	2b00      	cmp	r3, #0
    3678:	d107      	bne.n	368a <vTaskIncrementTick+0xf6>
    367a:	f240 0354 	movw	r3, #84	; 0x54
    367e:	f2c2 0300 	movt	r3, #8192	; 0x2000
    3682:	f04f 32ff 	mov.w	r2, #4294967295
    3686:	601a      	str	r2, [r3, #0]
    3688:	e05b      	b.n	3742 <vTaskIncrementTick+0x1ae>
    368a:	f240 7308 	movw	r3, #1800	; 0x708
    368e:	f2c2 0300 	movt	r3, #8192	; 0x2000
    3692:	681b      	ldr	r3, [r3, #0]
    3694:	68db      	ldr	r3, [r3, #12]
    3696:	68db      	ldr	r3, [r3, #12]
    3698:	60bb      	str	r3, [r7, #8]
    369a:	68bb      	ldr	r3, [r7, #8]
    369c:	685b      	ldr	r3, [r3, #4]
    369e:	607b      	str	r3, [r7, #4]
    36a0:	f240 733c 	movw	r3, #1852	; 0x73c
    36a4:	f2c2 0300 	movt	r3, #8192	; 0x2000
    36a8:	681a      	ldr	r2, [r3, #0]
    36aa:	687b      	ldr	r3, [r7, #4]
    36ac:	429a      	cmp	r2, r3
    36ae:	d206      	bcs.n	36be <vTaskIncrementTick+0x12a>
    36b0:	f240 0354 	movw	r3, #84	; 0x54
    36b4:	f2c2 0300 	movt	r3, #8192	; 0x2000
    36b8:	687a      	ldr	r2, [r7, #4]
    36ba:	601a      	str	r2, [r3, #0]
    36bc:	e041      	b.n	3742 <vTaskIncrementTick+0x1ae>
    36be:	68bb      	ldr	r3, [r7, #8]
    36c0:	f103 0304 	add.w	r3, r3, #4
    36c4:	4618      	mov	r0, r3
    36c6:	f001 fa09 	bl	4adc <vListRemove>
    36ca:	68bb      	ldr	r3, [r7, #8]
    36cc:	6a9b      	ldr	r3, [r3, #40]	; 0x28
    36ce:	2b00      	cmp	r3, #0
    36d0:	d005      	beq.n	36de <vTaskIncrementTick+0x14a>
    36d2:	68bb      	ldr	r3, [r7, #8]
    36d4:	f103 0318 	add.w	r3, r3, #24
    36d8:	4618      	mov	r0, r3
    36da:	f001 f9ff 	bl	4adc <vListRemove>
    36de:	68bb      	ldr	r3, [r7, #8]
    36e0:	6ada      	ldr	r2, [r3, #44]	; 0x2c
    36e2:	f240 7344 	movw	r3, #1860	; 0x744
    36e6:	f2c2 0300 	movt	r3, #8192	; 0x2000
    36ea:	681b      	ldr	r3, [r3, #0]
    36ec:	429a      	cmp	r2, r3
    36ee:	d906      	bls.n	36fe <vTaskIncrementTick+0x16a>
    36f0:	68bb      	ldr	r3, [r7, #8]
    36f2:	6ada      	ldr	r2, [r3, #44]	; 0x2c
    36f4:	f240 7344 	movw	r3, #1860	; 0x744
    36f8:	f2c2 0300 	movt	r3, #8192	; 0x2000
    36fc:	601a      	str	r2, [r3, #0]
    36fe:	68bb      	ldr	r3, [r7, #8]
    3700:	6ada      	ldr	r2, [r3, #44]	; 0x2c
    3702:	4613      	mov	r3, r2
    3704:	ea4f 0383 	mov.w	r3, r3, lsl #2
    3708:	189b      	adds	r3, r3, r2
    370a:	ea4f 0383 	mov.w	r3, r3, lsl #2
    370e:	461a      	mov	r2, r3
    3710:	f240 6368 	movw	r3, #1640	; 0x668
    3714:	f2c2 0300 	movt	r3, #8192	; 0x2000
    3718:	18d2      	adds	r2, r2, r3
    371a:	68bb      	ldr	r3, [r7, #8]
    371c:	f103 0304 	add.w	r3, r3, #4
    3720:	4610      	mov	r0, r2
    3722:	4619      	mov	r1, r3
    3724:	f001 f974 	bl	4a10 <vListInsertEnd>
    3728:	e79f      	b.n	366a <vTaskIncrementTick+0xd6>
    372a:	f240 7350 	movw	r3, #1872	; 0x750
    372e:	f2c2 0300 	movt	r3, #8192	; 0x2000
    3732:	681b      	ldr	r3, [r3, #0]
    3734:	f103 0201 	add.w	r2, r3, #1
    3738:	f240 7350 	movw	r3, #1872	; 0x750
    373c:	f2c2 0300 	movt	r3, #8192	; 0x2000
    3740:	601a      	str	r2, [r3, #0]
    3742:	f107 0710 	add.w	r7, r7, #16
    3746:	46bd      	mov	sp, r7
    3748:	bd80      	pop	{r7, pc}
    374a:	bf00      	nop

0000374c <vTaskSwitchContext>:
    374c:	b480      	push	{r7}
    374e:	b083      	sub	sp, #12
    3750:	af00      	add	r7, sp, #0
    3752:	f240 734c 	movw	r3, #1868	; 0x74c
    3756:	f2c2 0300 	movt	r3, #8192	; 0x2000
    375a:	681b      	ldr	r3, [r3, #0]
    375c:	2b00      	cmp	r3, #0
    375e:	d014      	beq.n	378a <vTaskSwitchContext+0x3e>
    3760:	f240 7354 	movw	r3, #1876	; 0x754
    3764:	f2c2 0300 	movt	r3, #8192	; 0x2000
    3768:	f04f 0201 	mov.w	r2, #1
    376c:	601a      	str	r2, [r3, #0]
    376e:	e04f      	b.n	3810 <vTaskSwitchContext+0xc4>
    3770:	f240 7344 	movw	r3, #1860	; 0x744
    3774:	f2c2 0300 	movt	r3, #8192	; 0x2000
    3778:	681b      	ldr	r3, [r3, #0]
    377a:	f103 32ff 	add.w	r2, r3, #4294967295
    377e:	f240 7344 	movw	r3, #1860	; 0x744
    3782:	f2c2 0300 	movt	r3, #8192	; 0x2000
    3786:	601a      	str	r2, [r3, #0]
    3788:	e000      	b.n	378c <vTaskSwitchContext+0x40>
    378a:	bf00      	nop
    378c:	f240 7344 	movw	r3, #1860	; 0x744
    3790:	f2c2 0300 	movt	r3, #8192	; 0x2000
    3794:	681a      	ldr	r2, [r3, #0]
    3796:	4613      	mov	r3, r2
    3798:	ea4f 0383 	mov.w	r3, r3, lsl #2
    379c:	189b      	adds	r3, r3, r2
    379e:	ea4f 0383 	mov.w	r3, r3, lsl #2
    37a2:	461a      	mov	r2, r3
    37a4:	f240 6368 	movw	r3, #1640	; 0x668
    37a8:	f2c2 0300 	movt	r3, #8192	; 0x2000
    37ac:	18d3      	adds	r3, r2, r3
    37ae:	681b      	ldr	r3, [r3, #0]
    37b0:	2b00      	cmp	r3, #0
    37b2:	d0dd      	beq.n	3770 <vTaskSwitchContext+0x24>
    37b4:	f240 7344 	movw	r3, #1860	; 0x744
    37b8:	f2c2 0300 	movt	r3, #8192	; 0x2000
    37bc:	681a      	ldr	r2, [r3, #0]
    37be:	4613      	mov	r3, r2
    37c0:	ea4f 0383 	mov.w	r3, r3, lsl #2
    37c4:	189b      	adds	r3, r3, r2
    37c6:	ea4f 0383 	mov.w	r3, r3, lsl #2
    37ca:	461a      	mov	r2, r3
    37cc:	f240 6368 	movw	r3, #1640	; 0x668
    37d0:	f2c2 0300 	movt	r3, #8192	; 0x2000
    37d4:	18d3      	adds	r3, r2, r3
    37d6:	607b      	str	r3, [r7, #4]
    37d8:	687b      	ldr	r3, [r7, #4]
    37da:	685b      	ldr	r3, [r3, #4]
    37dc:	685b      	ldr	r3, [r3, #4]
    37de:	461a      	mov	r2, r3
    37e0:	687b      	ldr	r3, [r7, #4]
    37e2:	605a      	str	r2, [r3, #4]
    37e4:	687b      	ldr	r3, [r7, #4]
    37e6:	685a      	ldr	r2, [r3, #4]
    37e8:	687b      	ldr	r3, [r7, #4]
    37ea:	f103 0308 	add.w	r3, r3, #8
    37ee:	429a      	cmp	r2, r3
    37f0:	d105      	bne.n	37fe <vTaskSwitchContext+0xb2>
    37f2:	687b      	ldr	r3, [r7, #4]
    37f4:	685b      	ldr	r3, [r3, #4]
    37f6:	685b      	ldr	r3, [r3, #4]
    37f8:	461a      	mov	r2, r3
    37fa:	687b      	ldr	r3, [r7, #4]
    37fc:	605a      	str	r2, [r3, #4]
    37fe:	687b      	ldr	r3, [r7, #4]
    3800:	685b      	ldr	r3, [r3, #4]
    3802:	68db      	ldr	r3, [r3, #12]
    3804:	461a      	mov	r2, r3
    3806:	f240 6364 	movw	r3, #1636	; 0x664
    380a:	f2c2 0300 	movt	r3, #8192	; 0x2000
    380e:	601a      	str	r2, [r3, #0]
    3810:	f107 070c 	add.w	r7, r7, #12
    3814:	46bd      	mov	sp, r7
    3816:	bc80      	pop	{r7}
    3818:	4770      	bx	lr
    381a:	bf00      	nop

0000381c <prvIdleTask>:
    381c:	b580      	push	{r7, lr}
    381e:	b082      	sub	sp, #8
    3820:	af00      	add	r7, sp, #0
    3822:	6078      	str	r0, [r7, #4]
    3824:	f000 f88a 	bl	393c <prvCheckTasksWaitingTermination>
    3828:	e7fc      	b.n	3824 <prvIdleTask+0x8>
    382a:	bf00      	nop

0000382c <prvInitialiseTCBVariables>:
    382c:	b580      	push	{r7, lr}
    382e:	b084      	sub	sp, #16
    3830:	af00      	add	r7, sp, #0
    3832:	60f8      	str	r0, [r7, #12]
    3834:	60b9      	str	r1, [r7, #8]
    3836:	607a      	str	r2, [r7, #4]
    3838:	603b      	str	r3, [r7, #0]
    383a:	68fb      	ldr	r3, [r7, #12]
    383c:	f103 0334 	add.w	r3, r3, #52	; 0x34
    3840:	461a      	mov	r2, r3
    3842:	68bb      	ldr	r3, [r7, #8]
    3844:	4610      	mov	r0, r2
    3846:	4619      	mov	r1, r3
    3848:	f04f 020c 	mov.w	r2, #12
    384c:	f003 fb32 	bl	6eb4 <strncpy>
    3850:	68fb      	ldr	r3, [r7, #12]
    3852:	f04f 0200 	mov.w	r2, #0
    3856:	f883 203f 	strb.w	r2, [r3, #63]	; 0x3f
    385a:	687b      	ldr	r3, [r7, #4]
    385c:	2b05      	cmp	r3, #5
    385e:	d902      	bls.n	3866 <prvInitialiseTCBVariables+0x3a>
    3860:	f04f 0305 	mov.w	r3, #5
    3864:	607b      	str	r3, [r7, #4]
    3866:	68fb      	ldr	r3, [r7, #12]
    3868:	687a      	ldr	r2, [r7, #4]
    386a:	62da      	str	r2, [r3, #44]	; 0x2c
    386c:	68fb      	ldr	r3, [r7, #12]
    386e:	f103 0304 	add.w	r3, r3, #4
    3872:	4618      	mov	r0, r3
    3874:	f001 f8be 	bl	49f4 <vListInitialiseItem>
    3878:	68fb      	ldr	r3, [r7, #12]
    387a:	f103 0318 	add.w	r3, r3, #24
    387e:	4618      	mov	r0, r3
    3880:	f001 f8b8 	bl	49f4 <vListInitialiseItem>
    3884:	68fb      	ldr	r3, [r7, #12]
    3886:	68fa      	ldr	r2, [r7, #12]
    3888:	611a      	str	r2, [r3, #16]
    388a:	687b      	ldr	r3, [r7, #4]
    388c:	f1c3 0206 	rsb	r2, r3, #6
    3890:	68fb      	ldr	r3, [r7, #12]
    3892:	619a      	str	r2, [r3, #24]
    3894:	68fb      	ldr	r3, [r7, #12]
    3896:	68fa      	ldr	r2, [r7, #12]
    3898:	625a      	str	r2, [r3, #36]	; 0x24
    389a:	f107 0710 	add.w	r7, r7, #16
    389e:	46bd      	mov	sp, r7
    38a0:	bd80      	pop	{r7, pc}
    38a2:	bf00      	nop

000038a4 <prvInitialiseTaskLists>:
    38a4:	b580      	push	{r7, lr}
    38a6:	b082      	sub	sp, #8
    38a8:	af00      	add	r7, sp, #0
    38aa:	f04f 0300 	mov.w	r3, #0
    38ae:	607b      	str	r3, [r7, #4]
    38b0:	e013      	b.n	38da <prvInitialiseTaskLists+0x36>
    38b2:	687a      	ldr	r2, [r7, #4]
    38b4:	4613      	mov	r3, r2
    38b6:	ea4f 0383 	mov.w	r3, r3, lsl #2
    38ba:	189b      	adds	r3, r3, r2
    38bc:	ea4f 0383 	mov.w	r3, r3, lsl #2
    38c0:	461a      	mov	r2, r3
    38c2:	f240 6368 	movw	r3, #1640	; 0x668
    38c6:	f2c2 0300 	movt	r3, #8192	; 0x2000
    38ca:	18d3      	adds	r3, r2, r3
    38cc:	4618      	mov	r0, r3
    38ce:	f001 f86d 	bl	49ac <vListInitialise>
    38d2:	687b      	ldr	r3, [r7, #4]
    38d4:	f103 0301 	add.w	r3, r3, #1
    38d8:	607b      	str	r3, [r7, #4]
    38da:	687b      	ldr	r3, [r7, #4]
    38dc:	2b05      	cmp	r3, #5
    38de:	d9e8      	bls.n	38b2 <prvInitialiseTaskLists+0xe>
    38e0:	f240 60e0 	movw	r0, #1760	; 0x6e0
    38e4:	f2c2 0000 	movt	r0, #8192	; 0x2000
    38e8:	f001 f860 	bl	49ac <vListInitialise>
    38ec:	f240 60f4 	movw	r0, #1780	; 0x6f4
    38f0:	f2c2 0000 	movt	r0, #8192	; 0x2000
    38f4:	f001 f85a 	bl	49ac <vListInitialise>
    38f8:	f240 7010 	movw	r0, #1808	; 0x710
    38fc:	f2c2 0000 	movt	r0, #8192	; 0x2000
    3900:	f001 f854 	bl	49ac <vListInitialise>
    3904:	f240 7024 	movw	r0, #1828	; 0x724
    3908:	f2c2 0000 	movt	r0, #8192	; 0x2000
    390c:	f001 f84e 	bl	49ac <vListInitialise>
    3910:	f240 7308 	movw	r3, #1800	; 0x708
    3914:	f2c2 0300 	movt	r3, #8192	; 0x2000
    3918:	f240 62e0 	movw	r2, #1760	; 0x6e0
    391c:	f2c2 0200 	movt	r2, #8192	; 0x2000
    3920:	601a      	str	r2, [r3, #0]
    3922:	f240 730c 	movw	r3, #1804	; 0x70c
    3926:	f2c2 0300 	movt	r3, #8192	; 0x2000
    392a:	f240 62f4 	movw	r2, #1780	; 0x6f4
    392e:	f2c2 0200 	movt	r2, #8192	; 0x2000
    3932:	601a      	str	r2, [r3, #0]
    3934:	f107 0708 	add.w	r7, r7, #8
    3938:	46bd      	mov	sp, r7
    393a:	bd80      	pop	{r7, pc}

0000393c <prvCheckTasksWaitingTermination>:
    393c:	b480      	push	{r7}
    393e:	af00      	add	r7, sp, #0
    3940:	46bd      	mov	sp, r7
    3942:	bc80      	pop	{r7}
    3944:	4770      	bx	lr
    3946:	bf00      	nop

00003948 <prvAddCurrentTaskToDelayedList>:
    3948:	b580      	push	{r7, lr}
    394a:	b082      	sub	sp, #8
    394c:	af00      	add	r7, sp, #0
    394e:	6078      	str	r0, [r7, #4]
    3950:	f240 6364 	movw	r3, #1636	; 0x664
    3954:	f2c2 0300 	movt	r3, #8192	; 0x2000
    3958:	681b      	ldr	r3, [r3, #0]
    395a:	687a      	ldr	r2, [r7, #4]
    395c:	605a      	str	r2, [r3, #4]
    395e:	f240 733c 	movw	r3, #1852	; 0x73c
    3962:	f2c2 0300 	movt	r3, #8192	; 0x2000
    3966:	681b      	ldr	r3, [r3, #0]
    3968:	687a      	ldr	r2, [r7, #4]
    396a:	429a      	cmp	r2, r3
    396c:	d210      	bcs.n	3990 <prvAddCurrentTaskToDelayedList+0x48>
    396e:	f240 730c 	movw	r3, #1804	; 0x70c
    3972:	f2c2 0300 	movt	r3, #8192	; 0x2000
    3976:	681a      	ldr	r2, [r3, #0]
    3978:	f240 6364 	movw	r3, #1636	; 0x664
    397c:	f2c2 0300 	movt	r3, #8192	; 0x2000
    3980:	681b      	ldr	r3, [r3, #0]
    3982:	f103 0304 	add.w	r3, r3, #4
    3986:	4610      	mov	r0, r2
    3988:	4619      	mov	r1, r3
    398a:	f001 f86b 	bl	4a64 <vListInsert>
    398e:	e01d      	b.n	39cc <prvAddCurrentTaskToDelayedList+0x84>
    3990:	f240 7308 	movw	r3, #1800	; 0x708
    3994:	f2c2 0300 	movt	r3, #8192	; 0x2000
    3998:	681a      	ldr	r2, [r3, #0]
    399a:	f240 6364 	movw	r3, #1636	; 0x664
    399e:	f2c2 0300 	movt	r3, #8192	; 0x2000
    39a2:	681b      	ldr	r3, [r3, #0]
    39a4:	f103 0304 	add.w	r3, r3, #4
    39a8:	4610      	mov	r0, r2
    39aa:	4619      	mov	r1, r3
    39ac:	f001 f85a 	bl	4a64 <vListInsert>
    39b0:	f240 0354 	movw	r3, #84	; 0x54
    39b4:	f2c2 0300 	movt	r3, #8192	; 0x2000
    39b8:	681b      	ldr	r3, [r3, #0]
    39ba:	687a      	ldr	r2, [r7, #4]
    39bc:	429a      	cmp	r2, r3
    39be:	d205      	bcs.n	39cc <prvAddCurrentTaskToDelayedList+0x84>
    39c0:	f240 0354 	movw	r3, #84	; 0x54
    39c4:	f2c2 0300 	movt	r3, #8192	; 0x2000
    39c8:	687a      	ldr	r2, [r7, #4]
    39ca:	601a      	str	r2, [r3, #0]
    39cc:	f107 0708 	add.w	r7, r7, #8
    39d0:	46bd      	mov	sp, r7
    39d2:	bd80      	pop	{r7, pc}

000039d4 <prvAllocateTCBAndStack>:
    39d4:	b580      	push	{r7, lr}
    39d6:	b084      	sub	sp, #16
    39d8:	af00      	add	r7, sp, #0
    39da:	4603      	mov	r3, r0
    39dc:	6039      	str	r1, [r7, #0]
    39de:	80fb      	strh	r3, [r7, #6]
    39e0:	f04f 0040 	mov.w	r0, #64	; 0x40
    39e4:	f001 fed8 	bl	5798 <pvPortMalloc>
    39e8:	4603      	mov	r3, r0
    39ea:	60fb      	str	r3, [r7, #12]
    39ec:	68fb      	ldr	r3, [r7, #12]
    39ee:	2b00      	cmp	r3, #0
    39f0:	d023      	beq.n	3a3a <prvAllocateTCBAndStack+0x66>
    39f2:	683b      	ldr	r3, [r7, #0]
    39f4:	2b00      	cmp	r3, #0
    39f6:	d107      	bne.n	3a08 <prvAllocateTCBAndStack+0x34>
    39f8:	88fb      	ldrh	r3, [r7, #6]
    39fa:	ea4f 0383 	mov.w	r3, r3, lsl #2
    39fe:	4618      	mov	r0, r3
    3a00:	f001 feca 	bl	5798 <pvPortMalloc>
    3a04:	4603      	mov	r3, r0
    3a06:	e000      	b.n	3a0a <prvAllocateTCBAndStack+0x36>
    3a08:	683b      	ldr	r3, [r7, #0]
    3a0a:	68fa      	ldr	r2, [r7, #12]
    3a0c:	6313      	str	r3, [r2, #48]	; 0x30
    3a0e:	68fb      	ldr	r3, [r7, #12]
    3a10:	6b1b      	ldr	r3, [r3, #48]	; 0x30
    3a12:	2b00      	cmp	r3, #0
    3a14:	d106      	bne.n	3a24 <prvAllocateTCBAndStack+0x50>
    3a16:	68f8      	ldr	r0, [r7, #12]
    3a18:	f001 ff0a 	bl	5830 <vPortFree>
    3a1c:	f04f 0300 	mov.w	r3, #0
    3a20:	60fb      	str	r3, [r7, #12]
    3a22:	e00a      	b.n	3a3a <prvAllocateTCBAndStack+0x66>
    3a24:	68fb      	ldr	r3, [r7, #12]
    3a26:	6b1a      	ldr	r2, [r3, #48]	; 0x30
    3a28:	88fb      	ldrh	r3, [r7, #6]
    3a2a:	ea4f 0383 	mov.w	r3, r3, lsl #2
    3a2e:	4610      	mov	r0, r2
    3a30:	f04f 01a5 	mov.w	r1, #165	; 0xa5
    3a34:	461a      	mov	r2, r3
    3a36:	f003 f969 	bl	6d0c <memset>
    3a3a:	68fb      	ldr	r3, [r7, #12]
    3a3c:	4618      	mov	r0, r3
    3a3e:	f107 0710 	add.w	r7, r7, #16
    3a42:	46bd      	mov	sp, r7
    3a44:	bd80      	pop	{r7, pc}
    3a46:	bf00      	nop

00003a48 <EjecutaAutomata>:
    3a48:	b580      	push	{r7, lr}
    3a4a:	b084      	sub	sp, #16
    3a4c:	af00      	add	r7, sp, #0
    3a4e:	6078      	str	r0, [r7, #4]
    3a50:	687b      	ldr	r3, [r7, #4]
    3a52:	68db      	ldr	r3, [r3, #12]
    3a54:	60fb      	str	r3, [r7, #12]
    3a56:	687b      	ldr	r3, [r7, #4]
    3a58:	68db      	ldr	r3, [r3, #12]
    3a5a:	60fb      	str	r3, [r7, #12]
    3a5c:	e013      	b.n	3a86 <EjecutaAutomata+0x3e>
    3a5e:	68fb      	ldr	r3, [r7, #12]
    3a60:	681b      	ldr	r3, [r3, #0]
    3a62:	781a      	ldrb	r2, [r3, #0]
    3a64:	f240 7360 	movw	r3, #1888	; 0x760
    3a68:	f2c2 0300 	movt	r3, #8192	; 0x2000
    3a6c:	781b      	ldrb	r3, [r3, #0]
    3a6e:	429a      	cmp	r2, r3
    3a70:	d105      	bne.n	3a7e <EjecutaAutomata+0x36>
    3a72:	68fb      	ldr	r3, [r7, #12]
    3a74:	681b      	ldr	r3, [r3, #0]
    3a76:	4618      	mov	r0, r3
    3a78:	f000 f80e 	bl	3a98 <EjecutaEstadoVertical>
    3a7c:	e007      	b.n	3a8e <EjecutaAutomata+0x46>
    3a7e:	68fb      	ldr	r3, [r7, #12]
    3a80:	f103 0304 	add.w	r3, r3, #4
    3a84:	60fb      	str	r3, [r7, #12]
    3a86:	68fb      	ldr	r3, [r7, #12]
    3a88:	681b      	ldr	r3, [r3, #0]
    3a8a:	2b00      	cmp	r3, #0
    3a8c:	d1e7      	bne.n	3a5e <EjecutaAutomata+0x16>
    3a8e:	f107 0710 	add.w	r7, r7, #16
    3a92:	46bd      	mov	sp, r7
    3a94:	bd80      	pop	{r7, pc}
    3a96:	bf00      	nop

00003a98 <EjecutaEstadoVertical>:
    3a98:	b580      	push	{r7, lr}
    3a9a:	b084      	sub	sp, #16
    3a9c:	af00      	add	r7, sp, #0
    3a9e:	6078      	str	r0, [r7, #4]
    3aa0:	687b      	ldr	r3, [r7, #4]
    3aa2:	68db      	ldr	r3, [r3, #12]
    3aa4:	60fb      	str	r3, [r7, #12]
    3aa6:	e02b      	b.n	3b00 <EjecutaEstadoVertical+0x68>
    3aa8:	68fb      	ldr	r3, [r7, #12]
    3aaa:	689b      	ldr	r3, [r3, #8]
    3aac:	4798      	blx	r3
    3aae:	4603      	mov	r3, r0
    3ab0:	2b01      	cmp	r3, #1
    3ab2:	d121      	bne.n	3af8 <EjecutaEstadoVertical+0x60>
    3ab4:	68fb      	ldr	r3, [r7, #12]
    3ab6:	68db      	ldr	r3, [r3, #12]
    3ab8:	2b00      	cmp	r3, #0
    3aba:	d002      	beq.n	3ac2 <EjecutaEstadoVertical+0x2a>
    3abc:	68fb      	ldr	r3, [r7, #12]
    3abe:	68db      	ldr	r3, [r3, #12]
    3ac0:	4798      	blx	r3
    3ac2:	68fb      	ldr	r3, [r7, #12]
    3ac4:	781a      	ldrb	r2, [r3, #0]
    3ac6:	f240 7360 	movw	r3, #1888	; 0x760
    3aca:	f2c2 0300 	movt	r3, #8192	; 0x2000
    3ace:	781b      	ldrb	r3, [r3, #0]
    3ad0:	429a      	cmp	r2, r3
    3ad2:	d011      	beq.n	3af8 <EjecutaEstadoVertical+0x60>
    3ad4:	f240 7360 	movw	r3, #1888	; 0x760
    3ad8:	f2c2 0300 	movt	r3, #8192	; 0x2000
    3adc:	781a      	ldrb	r2, [r3, #0]
    3ade:	f240 7361 	movw	r3, #1889	; 0x761
    3ae2:	f2c2 0300 	movt	r3, #8192	; 0x2000
    3ae6:	701a      	strb	r2, [r3, #0]
    3ae8:	68fb      	ldr	r3, [r7, #12]
    3aea:	781a      	ldrb	r2, [r3, #0]
    3aec:	f240 7360 	movw	r3, #1888	; 0x760
    3af0:	f2c2 0300 	movt	r3, #8192	; 0x2000
    3af4:	701a      	strb	r2, [r3, #0]
    3af6:	e007      	b.n	3b08 <EjecutaEstadoVertical+0x70>
    3af8:	68fb      	ldr	r3, [r7, #12]
    3afa:	f103 0310 	add.w	r3, r3, #16
    3afe:	60fb      	str	r3, [r7, #12]
    3b00:	68fb      	ldr	r3, [r7, #12]
    3b02:	689b      	ldr	r3, [r3, #8]
    3b04:	2b00      	cmp	r3, #0
    3b06:	d1cf      	bne.n	3aa8 <EjecutaEstadoVertical+0x10>
    3b08:	f107 0710 	add.w	r7, r7, #16
    3b0c:	46bd      	mov	sp, r7
    3b0e:	bd80      	pop	{r7, pc}

00003b10 <vTask_Seguridad>:
    3b10:	b590      	push	{r4, r7, lr}
    3b12:	b085      	sub	sp, #20
    3b14:	af00      	add	r7, sp, #0
    3b16:	6078      	str	r0, [r7, #4]
    3b18:	687b      	ldr	r3, [r7, #4]
    3b1a:	60fb      	str	r3, [r7, #12]
    3b1c:	f7ff fd26 	bl	356c <xTaskGetTickCount>
    3b20:	4603      	mov	r3, r0
    3b22:	60bb      	str	r3, [r7, #8]
    3b24:	f000 f8e2 	bl	3cec <SEGURIDAD_ini>
    3b28:	f240 7370 	movw	r3, #1904	; 0x770
    3b2c:	f2c2 0300 	movt	r3, #8192	; 0x2000
    3b30:	681b      	ldr	r3, [r3, #0]
    3b32:	f103 0201 	add.w	r2, r3, #1
    3b36:	f240 7370 	movw	r3, #1904	; 0x770
    3b3a:	f2c2 0300 	movt	r3, #8192	; 0x2000
    3b3e:	601a      	str	r2, [r3, #0]
    3b40:	f641 33ba 	movw	r3, #7098	; 0x1bba
    3b44:	f2c2 0300 	movt	r3, #8192	; 0x2000
    3b48:	781b      	ldrb	r3, [r3, #0]
    3b4a:	2b01      	cmp	r3, #1
    3b4c:	d125      	bne.n	3b9a <vTask_Seguridad+0x8a>
    3b4e:	f240 7364 	movw	r3, #1892	; 0x764
    3b52:	f2c2 0300 	movt	r3, #8192	; 0x2000
    3b56:	681b      	ldr	r3, [r3, #0]
    3b58:	4618      	mov	r0, r3
    3b5a:	f002 f82d 	bl	5bb8 <ULTRASONIDOS_obstaculo>
    3b5e:	4603      	mov	r3, r0
    3b60:	461a      	mov	r2, r3
    3b62:	f240 737c 	movw	r3, #1916	; 0x77c
    3b66:	f2c2 0300 	movt	r3, #8192	; 0x2000
    3b6a:	701a      	strb	r2, [r3, #0]
    3b6c:	f240 7364 	movw	r3, #1892	; 0x764
    3b70:	f2c2 0300 	movt	r3, #8192	; 0x2000
    3b74:	681b      	ldr	r3, [r3, #0]
    3b76:	4618      	mov	r0, r3
    3b78:	495a      	ldr	r1, [pc, #360]	; (3ce4 <vTask_Seguridad+0x1d4>)
    3b7a:	f002 feed 	bl	6958 <__aeabi_fdiv>
    3b7e:	4603      	mov	r3, r0
    3b80:	461a      	mov	r2, r3
    3b82:	f240 7374 	movw	r3, #1908	; 0x774
    3b86:	f2c2 0300 	movt	r3, #8192	; 0x2000
    3b8a:	601a      	str	r2, [r3, #0]
    3b8c:	f641 33ba 	movw	r3, #7098	; 0x1bba
    3b90:	f2c2 0300 	movt	r3, #8192	; 0x2000
    3b94:	f04f 0200 	mov.w	r2, #0
    3b98:	701a      	strb	r2, [r3, #0]
    3b9a:	f641 33bb 	movw	r3, #7099	; 0x1bbb
    3b9e:	f2c2 0300 	movt	r3, #8192	; 0x2000
    3ba2:	781b      	ldrb	r3, [r3, #0]
    3ba4:	2b01      	cmp	r3, #1
    3ba6:	d125      	bne.n	3bf4 <vTask_Seguridad+0xe4>
    3ba8:	f240 7368 	movw	r3, #1896	; 0x768
    3bac:	f2c2 0300 	movt	r3, #8192	; 0x2000
    3bb0:	681b      	ldr	r3, [r3, #0]
    3bb2:	4618      	mov	r0, r3
    3bb4:	f002 f822 	bl	5bfc <ULTRASONIDOS_escalon>
    3bb8:	4603      	mov	r3, r0
    3bba:	461a      	mov	r2, r3
    3bbc:	f240 737d 	movw	r3, #1917	; 0x77d
    3bc0:	f2c2 0300 	movt	r3, #8192	; 0x2000
    3bc4:	701a      	strb	r2, [r3, #0]
    3bc6:	f240 7368 	movw	r3, #1896	; 0x768
    3bca:	f2c2 0300 	movt	r3, #8192	; 0x2000
    3bce:	681b      	ldr	r3, [r3, #0]
    3bd0:	4618      	mov	r0, r3
    3bd2:	4944      	ldr	r1, [pc, #272]	; (3ce4 <vTask_Seguridad+0x1d4>)
    3bd4:	f002 fec0 	bl	6958 <__aeabi_fdiv>
    3bd8:	4603      	mov	r3, r0
    3bda:	461a      	mov	r2, r3
    3bdc:	f240 7378 	movw	r3, #1912	; 0x778
    3be0:	f2c2 0300 	movt	r3, #8192	; 0x2000
    3be4:	601a      	str	r2, [r3, #0]
    3be6:	f641 33bb 	movw	r3, #7099	; 0x1bbb
    3bea:	f2c2 0300 	movt	r3, #8192	; 0x2000
    3bee:	f04f 0200 	mov.w	r2, #0
    3bf2:	701a      	strb	r2, [r3, #0]
    3bf4:	f44f 40c0 	mov.w	r0, #24576	; 0x6000
    3bf8:	f2c4 0002 	movt	r0, #16386	; 0x4002
    3bfc:	f04f 0101 	mov.w	r1, #1
    3c00:	f04f 0200 	mov.w	r2, #0
    3c04:	f7fe ffd4 	bl	2bb0 <GPIOPinWrite>
    3c08:	f44f 40c0 	mov.w	r0, #24576	; 0x6000
    3c0c:	f2c4 0000 	movt	r0, #16384	; 0x4000
    3c10:	f04f 0120 	mov.w	r1, #32
    3c14:	f04f 0200 	mov.w	r2, #0
    3c18:	f7fe ffca 	bl	2bb0 <GPIOPinWrite>
    3c1c:	f44f 40c0 	mov.w	r0, #24576	; 0x6000
    3c20:	f2c4 0000 	movt	r0, #16384	; 0x4000
    3c24:	f04f 0180 	mov.w	r1, #128	; 0x80
    3c28:	f04f 0200 	mov.w	r2, #0
    3c2c:	f7fe ffc0 	bl	2bb0 <GPIOPinWrite>
    3c30:	f000 fdc2 	bl	47b8 <AD_ObtenerValorADC_Channel2>
    3c34:	4602      	mov	r2, r0
    3c36:	f240 736c 	movw	r3, #1900	; 0x76c
    3c3a:	f2c2 0300 	movt	r3, #8192	; 0x2000
    3c3e:	601a      	str	r2, [r3, #0]
    3c40:	f240 736c 	movw	r3, #1900	; 0x76c
    3c44:	f2c2 0300 	movt	r3, #8192	; 0x2000
    3c48:	681b      	ldr	r3, [r3, #0]
    3c4a:	f04f 0201 	mov.w	r2, #1
    3c4e:	4614      	mov	r4, r2
    3c50:	4618      	mov	r0, r3
    3c52:	4925      	ldr	r1, [pc, #148]	; (3ce8 <vTask_Seguridad+0x1d8>)
    3c54:	f002 ff74 	bl	6b40 <__aeabi_fcmple>
    3c58:	4603      	mov	r3, r0
    3c5a:	2b00      	cmp	r3, #0
    3c5c:	d102      	bne.n	3c64 <vTask_Seguridad+0x154>
    3c5e:	f04f 0300 	mov.w	r3, #0
    3c62:	461c      	mov	r4, r3
    3c64:	b2e3      	uxtb	r3, r4
    3c66:	2b00      	cmp	r3, #0
    3c68:	d007      	beq.n	3c7a <vTask_Seguridad+0x16a>
    3c6a:	f240 737e 	movw	r3, #1918	; 0x77e
    3c6e:	f2c2 0300 	movt	r3, #8192	; 0x2000
    3c72:	f04f 0201 	mov.w	r2, #1
    3c76:	701a      	strb	r2, [r3, #0]
    3c78:	e006      	b.n	3c88 <vTask_Seguridad+0x178>
    3c7a:	f240 737e 	movw	r3, #1918	; 0x77e
    3c7e:	f2c2 0300 	movt	r3, #8192	; 0x2000
    3c82:	f04f 0200 	mov.w	r2, #0
    3c86:	701a      	strb	r2, [r3, #0]
    3c88:	f44f 40c0 	mov.w	r0, #24576	; 0x6000
    3c8c:	f2c4 0002 	movt	r0, #16386	; 0x4002
    3c90:	f04f 0101 	mov.w	r1, #1
    3c94:	f04f 0201 	mov.w	r2, #1
    3c98:	f7fe ff8a 	bl	2bb0 <GPIOPinWrite>
    3c9c:	f240 737c 	movw	r3, #1916	; 0x77c
    3ca0:	f2c2 0300 	movt	r3, #8192	; 0x2000
    3ca4:	781b      	ldrb	r3, [r3, #0]
    3ca6:	2b01      	cmp	r3, #1
    3ca8:	d006      	beq.n	3cb8 <vTask_Seguridad+0x1a8>
    3caa:	f240 737d 	movw	r3, #1917	; 0x77d
    3cae:	f2c2 0300 	movt	r3, #8192	; 0x2000
    3cb2:	781b      	ldrb	r3, [r3, #0]
    3cb4:	2b01      	cmp	r3, #1
    3cb6:	d107      	bne.n	3cc8 <vTask_Seguridad+0x1b8>
    3cb8:	f240 737f 	movw	r3, #1919	; 0x77f
    3cbc:	f2c2 0300 	movt	r3, #8192	; 0x2000
    3cc0:	f04f 0201 	mov.w	r2, #1
    3cc4:	701a      	strb	r2, [r3, #0]
    3cc6:	e006      	b.n	3cd6 <vTask_Seguridad+0x1c6>
    3cc8:	f240 737f 	movw	r3, #1919	; 0x77f
    3ccc:	f2c2 0300 	movt	r3, #8192	; 0x2000
    3cd0:	f04f 0200 	mov.w	r2, #0
    3cd4:	701a      	strb	r2, [r3, #0]
    3cd6:	f107 0308 	add.w	r3, r7, #8
    3cda:	4618      	mov	r0, r3
    3cdc:	68f9      	ldr	r1, [r7, #12]
    3cde:	f7ff fa19 	bl	3114 <vTaskDelayUntil>
    3ce2:	e721      	b.n	3b28 <vTask_Seguridad+0x18>
    3ce4:	42680000 	.word	0x42680000
    3ce8:	40a00000 	.word	0x40a00000

00003cec <SEGURIDAD_ini>:
    3cec:	b580      	push	{r7, lr}
    3cee:	af00      	add	r7, sp, #0
    3cf0:	f001 fda8 	bl	5844 <ULTRASONIDOS_ini>
    3cf4:	bd80      	pop	{r7, pc}
    3cf6:	bf00      	nop

00003cf8 <IntEnable>:
    3cf8:	b480      	push	{r7}
    3cfa:	b083      	sub	sp, #12
    3cfc:	af00      	add	r7, sp, #0
    3cfe:	6078      	str	r0, [r7, #4]
    3d00:	687b      	ldr	r3, [r7, #4]
    3d02:	2b04      	cmp	r3, #4
    3d04:	d10c      	bne.n	3d20 <IntEnable+0x28>
    3d06:	f64e 5324 	movw	r3, #60708	; 0xed24
    3d0a:	f2ce 0300 	movt	r3, #57344	; 0xe000
    3d0e:	f64e 5224 	movw	r2, #60708	; 0xed24
    3d12:	f2ce 0200 	movt	r2, #57344	; 0xe000
    3d16:	6812      	ldr	r2, [r2, #0]
    3d18:	f442 3280 	orr.w	r2, r2, #65536	; 0x10000
    3d1c:	601a      	str	r2, [r3, #0]
    3d1e:	e051      	b.n	3dc4 <IntEnable+0xcc>
    3d20:	687b      	ldr	r3, [r7, #4]
    3d22:	2b05      	cmp	r3, #5
    3d24:	d10c      	bne.n	3d40 <IntEnable+0x48>
    3d26:	f64e 5324 	movw	r3, #60708	; 0xed24
    3d2a:	f2ce 0300 	movt	r3, #57344	; 0xe000
    3d2e:	f64e 5224 	movw	r2, #60708	; 0xed24
    3d32:	f2ce 0200 	movt	r2, #57344	; 0xe000
    3d36:	6812      	ldr	r2, [r2, #0]
    3d38:	f442 3200 	orr.w	r2, r2, #131072	; 0x20000
    3d3c:	601a      	str	r2, [r3, #0]
    3d3e:	e041      	b.n	3dc4 <IntEnable+0xcc>
    3d40:	687b      	ldr	r3, [r7, #4]
    3d42:	2b06      	cmp	r3, #6
    3d44:	d10c      	bne.n	3d60 <IntEnable+0x68>
    3d46:	f64e 5324 	movw	r3, #60708	; 0xed24
    3d4a:	f2ce 0300 	movt	r3, #57344	; 0xe000
    3d4e:	f64e 5224 	movw	r2, #60708	; 0xed24
    3d52:	f2ce 0200 	movt	r2, #57344	; 0xe000
    3d56:	6812      	ldr	r2, [r2, #0]
    3d58:	f442 2280 	orr.w	r2, r2, #262144	; 0x40000
    3d5c:	601a      	str	r2, [r3, #0]
    3d5e:	e031      	b.n	3dc4 <IntEnable+0xcc>
    3d60:	687b      	ldr	r3, [r7, #4]
    3d62:	2b0f      	cmp	r3, #15
    3d64:	d10c      	bne.n	3d80 <IntEnable+0x88>
    3d66:	f24e 0310 	movw	r3, #57360	; 0xe010
    3d6a:	f2ce 0300 	movt	r3, #57344	; 0xe000
    3d6e:	f24e 0210 	movw	r2, #57360	; 0xe010
    3d72:	f2ce 0200 	movt	r2, #57344	; 0xe000
    3d76:	6812      	ldr	r2, [r2, #0]
    3d78:	f042 0202 	orr.w	r2, r2, #2
    3d7c:	601a      	str	r2, [r3, #0]
    3d7e:	e021      	b.n	3dc4 <IntEnable+0xcc>
    3d80:	687b      	ldr	r3, [r7, #4]
    3d82:	2b0f      	cmp	r3, #15
    3d84:	d90f      	bls.n	3da6 <IntEnable+0xae>
    3d86:	687b      	ldr	r3, [r7, #4]
    3d88:	2b2f      	cmp	r3, #47	; 0x2f
    3d8a:	d80c      	bhi.n	3da6 <IntEnable+0xae>
    3d8c:	f44f 4361 	mov.w	r3, #57600	; 0xe100
    3d90:	f2ce 0300 	movt	r3, #57344	; 0xe000
    3d94:	687a      	ldr	r2, [r7, #4]
    3d96:	f1a2 0210 	sub.w	r2, r2, #16
    3d9a:	f04f 0101 	mov.w	r1, #1
    3d9e:	fa01 f202 	lsl.w	r2, r1, r2
    3da2:	601a      	str	r2, [r3, #0]
    3da4:	e00e      	b.n	3dc4 <IntEnable+0xcc>
    3da6:	687b      	ldr	r3, [r7, #4]
    3da8:	2b2f      	cmp	r3, #47	; 0x2f
    3daa:	d90b      	bls.n	3dc4 <IntEnable+0xcc>
    3dac:	f24e 1304 	movw	r3, #57604	; 0xe104
    3db0:	f2ce 0300 	movt	r3, #57344	; 0xe000
    3db4:	687a      	ldr	r2, [r7, #4]
    3db6:	f1a2 0230 	sub.w	r2, r2, #48	; 0x30
    3dba:	f04f 0101 	mov.w	r1, #1
    3dbe:	fa01 f202 	lsl.w	r2, r1, r2
    3dc2:	601a      	str	r2, [r3, #0]
    3dc4:	f107 070c 	add.w	r7, r7, #12
    3dc8:	46bd      	mov	sp, r7
    3dca:	bc80      	pop	{r7}
    3dcc:	4770      	bx	lr
    3dce:	bf00      	nop

00003dd0 <RITWriteCommand>:
    3dd0:	b580      	push	{r7, lr}
    3dd2:	b082      	sub	sp, #8
    3dd4:	af00      	add	r7, sp, #0
    3dd6:	6078      	str	r0, [r7, #4]
    3dd8:	6039      	str	r1, [r7, #0]
    3dda:	f240 7380 	movw	r3, #1920	; 0x780
    3dde:	f2c2 0300 	movt	r3, #8192	; 0x2000
    3de2:	f003 4270 	and.w	r2, r3, #4026531840	; 0xf0000000
    3de6:	f240 7380 	movw	r3, #1920	; 0x780
    3dea:	f2c2 0300 	movt	r3, #8192	; 0x2000
    3dee:	f023 437f 	bic.w	r3, r3, #4278190080	; 0xff000000
    3df2:	f423 0370 	bic.w	r3, r3, #15728640	; 0xf00000
    3df6:	ea4f 1343 	mov.w	r3, r3, lsl #5
    3dfa:	ea42 0303 	orr.w	r3, r2, r3
    3dfe:	f043 7300 	orr.w	r3, r3, #33554432	; 0x2000000
    3e02:	681b      	ldr	r3, [r3, #0]
    3e04:	2b00      	cmp	r3, #0
    3e06:	d05b      	beq.n	3ec0 <RITWriteCommand+0xf0>
    3e08:	f240 7380 	movw	r3, #1920	; 0x780
    3e0c:	f2c2 0300 	movt	r3, #8192	; 0x2000
    3e10:	f003 4270 	and.w	r2, r3, #4026531840	; 0xf0000000
    3e14:	f240 7380 	movw	r3, #1920	; 0x780
    3e18:	f2c2 0300 	movt	r3, #8192	; 0x2000
    3e1c:	f023 437f 	bic.w	r3, r3, #4278190080	; 0xff000000
    3e20:	f423 0370 	bic.w	r3, r3, #15728640	; 0xf00000
    3e24:	ea4f 1343 	mov.w	r3, r3, lsl #5
    3e28:	ea42 0303 	orr.w	r3, r2, r3
    3e2c:	f043 7300 	orr.w	r3, r3, #33554432	; 0x2000000
    3e30:	f043 0304 	orr.w	r3, r3, #4
    3e34:	681b      	ldr	r3, [r3, #0]
    3e36:	2b00      	cmp	r3, #0
    3e38:	d03e      	beq.n	3eb8 <RITWriteCommand+0xe8>
    3e3a:	bf00      	nop
    3e3c:	f44f 4000 	mov.w	r0, #32768	; 0x8000
    3e40:	f2c4 0000 	movt	r0, #16384	; 0x4000
    3e44:	f000 ff3c 	bl	4cc0 <SSIBusy>
    3e48:	4603      	mov	r3, r0
    3e4a:	2b00      	cmp	r3, #0
    3e4c:	d1f6      	bne.n	3e3c <RITWriteCommand+0x6c>
    3e4e:	f44f 4080 	mov.w	r0, #16384	; 0x4000
    3e52:	f2c4 0000 	movt	r0, #16384	; 0x4000
    3e56:	f04f 0140 	mov.w	r1, #64	; 0x40
    3e5a:	f04f 0200 	mov.w	r2, #0
    3e5e:	f7fe fea7 	bl	2bb0 <GPIOPinWrite>
    3e62:	f240 7380 	movw	r3, #1920	; 0x780
    3e66:	f2c2 0300 	movt	r3, #8192	; 0x2000
    3e6a:	f003 4270 	and.w	r2, r3, #4026531840	; 0xf0000000
    3e6e:	f240 7380 	movw	r3, #1920	; 0x780
    3e72:	f2c2 0300 	movt	r3, #8192	; 0x2000
    3e76:	f023 437f 	bic.w	r3, r3, #4278190080	; 0xff000000
    3e7a:	f423 0370 	bic.w	r3, r3, #15728640	; 0xf00000
    3e7e:	ea4f 1343 	mov.w	r3, r3, lsl #5
    3e82:	ea42 0303 	orr.w	r3, r2, r3
    3e86:	f043 7300 	orr.w	r3, r3, #33554432	; 0x2000000
    3e8a:	f043 0304 	orr.w	r3, r3, #4
    3e8e:	f04f 0200 	mov.w	r2, #0
    3e92:	601a      	str	r2, [r3, #0]
    3e94:	e010      	b.n	3eb8 <RITWriteCommand+0xe8>
    3e96:	687b      	ldr	r3, [r7, #4]
    3e98:	781b      	ldrb	r3, [r3, #0]
    3e9a:	687a      	ldr	r2, [r7, #4]
    3e9c:	f102 0201 	add.w	r2, r2, #1
    3ea0:	607a      	str	r2, [r7, #4]
    3ea2:	f44f 4000 	mov.w	r0, #32768	; 0x8000
    3ea6:	f2c4 0000 	movt	r0, #16384	; 0x4000
    3eaa:	4619      	mov	r1, r3
    3eac:	f000 fef0 	bl	4c90 <SSIDataPut>
    3eb0:	683b      	ldr	r3, [r7, #0]
    3eb2:	f103 33ff 	add.w	r3, r3, #4294967295
    3eb6:	603b      	str	r3, [r7, #0]
    3eb8:	683b      	ldr	r3, [r7, #0]
    3eba:	2b00      	cmp	r3, #0
    3ebc:	d1eb      	bne.n	3e96 <RITWriteCommand+0xc6>
    3ebe:	e000      	b.n	3ec2 <RITWriteCommand+0xf2>
    3ec0:	bf00      	nop
    3ec2:	f107 0708 	add.w	r7, r7, #8
    3ec6:	46bd      	mov	sp, r7
    3ec8:	bd80      	pop	{r7, pc}
    3eca:	bf00      	nop

00003ecc <RITWriteData>:
    3ecc:	b580      	push	{r7, lr}
    3ece:	b082      	sub	sp, #8
    3ed0:	af00      	add	r7, sp, #0
    3ed2:	6078      	str	r0, [r7, #4]
    3ed4:	6039      	str	r1, [r7, #0]
    3ed6:	f240 7380 	movw	r3, #1920	; 0x780
    3eda:	f2c2 0300 	movt	r3, #8192	; 0x2000
    3ede:	f003 4270 	and.w	r2, r3, #4026531840	; 0xf0000000
    3ee2:	f240 7380 	movw	r3, #1920	; 0x780
    3ee6:	f2c2 0300 	movt	r3, #8192	; 0x2000
    3eea:	f023 437f 	bic.w	r3, r3, #4278190080	; 0xff000000
    3eee:	f423 0370 	bic.w	r3, r3, #15728640	; 0xf00000
    3ef2:	ea4f 1343 	mov.w	r3, r3, lsl #5
    3ef6:	ea42 0303 	orr.w	r3, r2, r3
    3efa:	f043 7300 	orr.w	r3, r3, #33554432	; 0x2000000
    3efe:	681b      	ldr	r3, [r3, #0]
    3f00:	2b00      	cmp	r3, #0
    3f02:	d05b      	beq.n	3fbc <RITWriteData+0xf0>
    3f04:	f240 7380 	movw	r3, #1920	; 0x780
    3f08:	f2c2 0300 	movt	r3, #8192	; 0x2000
    3f0c:	f003 4270 	and.w	r2, r3, #4026531840	; 0xf0000000
    3f10:	f240 7380 	movw	r3, #1920	; 0x780
    3f14:	f2c2 0300 	movt	r3, #8192	; 0x2000
    3f18:	f023 437f 	bic.w	r3, r3, #4278190080	; 0xff000000
    3f1c:	f423 0370 	bic.w	r3, r3, #15728640	; 0xf00000
    3f20:	ea4f 1343 	mov.w	r3, r3, lsl #5
    3f24:	ea42 0303 	orr.w	r3, r2, r3
    3f28:	f043 7300 	orr.w	r3, r3, #33554432	; 0x2000000
    3f2c:	f043 0304 	orr.w	r3, r3, #4
    3f30:	681b      	ldr	r3, [r3, #0]
    3f32:	2b00      	cmp	r3, #0
    3f34:	d13e      	bne.n	3fb4 <RITWriteData+0xe8>
    3f36:	bf00      	nop
    3f38:	f44f 4000 	mov.w	r0, #32768	; 0x8000
    3f3c:	f2c4 0000 	movt	r0, #16384	; 0x4000
    3f40:	f000 febe 	bl	4cc0 <SSIBusy>
    3f44:	4603      	mov	r3, r0
    3f46:	2b00      	cmp	r3, #0
    3f48:	d1f6      	bne.n	3f38 <RITWriteData+0x6c>
    3f4a:	f44f 4080 	mov.w	r0, #16384	; 0x4000
    3f4e:	f2c4 0000 	movt	r0, #16384	; 0x4000
    3f52:	f04f 0140 	mov.w	r1, #64	; 0x40
    3f56:	f04f 0240 	mov.w	r2, #64	; 0x40
    3f5a:	f7fe fe29 	bl	2bb0 <GPIOPinWrite>
    3f5e:	f240 7380 	movw	r3, #1920	; 0x780
    3f62:	f2c2 0300 	movt	r3, #8192	; 0x2000
    3f66:	f003 4270 	and.w	r2, r3, #4026531840	; 0xf0000000
    3f6a:	f240 7380 	movw	r3, #1920	; 0x780
    3f6e:	f2c2 0300 	movt	r3, #8192	; 0x2000
    3f72:	f023 437f 	bic.w	r3, r3, #4278190080	; 0xff000000
    3f76:	f423 0370 	bic.w	r3, r3, #15728640	; 0xf00000
    3f7a:	ea4f 1343 	mov.w	r3, r3, lsl #5
    3f7e:	ea42 0303 	orr.w	r3, r2, r3
    3f82:	f043 7300 	orr.w	r3, r3, #33554432	; 0x2000000
    3f86:	f043 0304 	orr.w	r3, r3, #4
    3f8a:	f04f 0201 	mov.w	r2, #1
    3f8e:	601a      	str	r2, [r3, #0]
    3f90:	e010      	b.n	3fb4 <RITWriteData+0xe8>
    3f92:	687b      	ldr	r3, [r7, #4]
    3f94:	781b      	ldrb	r3, [r3, #0]
    3f96:	687a      	ldr	r2, [r7, #4]
    3f98:	f102 0201 	add.w	r2, r2, #1
    3f9c:	607a      	str	r2, [r7, #4]
    3f9e:	f44f 4000 	mov.w	r0, #32768	; 0x8000
    3fa2:	f2c4 0000 	movt	r0, #16384	; 0x4000
    3fa6:	4619      	mov	r1, r3
    3fa8:	f000 fe72 	bl	4c90 <SSIDataPut>
    3fac:	683b      	ldr	r3, [r7, #0]
    3fae:	f103 33ff 	add.w	r3, r3, #4294967295
    3fb2:	603b      	str	r3, [r7, #0]
    3fb4:	683b      	ldr	r3, [r7, #0]
    3fb6:	2b00      	cmp	r3, #0
    3fb8:	d1eb      	bne.n	3f92 <RITWriteData+0xc6>
    3fba:	e000      	b.n	3fbe <RITWriteData+0xf2>
    3fbc:	bf00      	nop
    3fbe:	f107 0708 	add.w	r7, r7, #8
    3fc2:	46bd      	mov	sp, r7
    3fc4:	bd80      	pop	{r7, pc}
    3fc6:	bf00      	nop

00003fc8 <RIT128x96x4Clear>:
    3fc8:	b580      	push	{r7, lr}
    3fca:	b082      	sub	sp, #8
    3fcc:	af00      	add	r7, sp, #0
    3fce:	f240 7384 	movw	r3, #1924	; 0x784
    3fd2:	f2c2 0300 	movt	r3, #8192	; 0x2000
    3fd6:	f04f 0200 	mov.w	r2, #0
    3fda:	601a      	str	r2, [r3, #0]
    3fdc:	f240 7384 	movw	r3, #1924	; 0x784
    3fe0:	f2c2 0300 	movt	r3, #8192	; 0x2000
    3fe4:	f103 0304 	add.w	r3, r3, #4
    3fe8:	f04f 0200 	mov.w	r2, #0
    3fec:	601a      	str	r2, [r3, #0]
    3fee:	f24d 0054 	movw	r0, #53332	; 0xd054
    3ff2:	f2c0 0000 	movt	r0, #0
    3ff6:	f04f 0103 	mov.w	r1, #3
    3ffa:	f7ff fee9 	bl	3dd0 <RITWriteCommand>
    3ffe:	f24d 0058 	movw	r0, #53336	; 0xd058
    4002:	f2c0 0000 	movt	r0, #0
    4006:	f04f 0103 	mov.w	r1, #3
    400a:	f7ff fee1 	bl	3dd0 <RITWriteCommand>
    400e:	f64c 601c 	movw	r0, #52764	; 0xce1c
    4012:	f2c0 0000 	movt	r0, #0
    4016:	f04f 0102 	mov.w	r1, #2
    401a:	f7ff fed9 	bl	3dd0 <RITWriteCommand>
    401e:	f04f 0300 	mov.w	r3, #0
    4022:	607b      	str	r3, [r7, #4]
    4024:	e016      	b.n	4054 <RIT128x96x4Clear+0x8c>
    4026:	f04f 0300 	mov.w	r3, #0
    402a:	603b      	str	r3, [r7, #0]
    402c:	e00b      	b.n	4046 <RIT128x96x4Clear+0x7e>
    402e:	f240 7084 	movw	r0, #1924	; 0x784
    4032:	f2c2 0000 	movt	r0, #8192	; 0x2000
    4036:	f04f 0108 	mov.w	r1, #8
    403a:	f7ff ff47 	bl	3ecc <RITWriteData>
    403e:	683b      	ldr	r3, [r7, #0]
    4040:	f103 0310 	add.w	r3, r3, #16
    4044:	603b      	str	r3, [r7, #0]
    4046:	683b      	ldr	r3, [r7, #0]
    4048:	2b7f      	cmp	r3, #127	; 0x7f
    404a:	d9f0      	bls.n	402e <RIT128x96x4Clear+0x66>
    404c:	687b      	ldr	r3, [r7, #4]
    404e:	f103 0301 	add.w	r3, r3, #1
    4052:	607b      	str	r3, [r7, #4]
    4054:	687b      	ldr	r3, [r7, #4]
    4056:	2b5f      	cmp	r3, #95	; 0x5f
    4058:	d9e5      	bls.n	4026 <RIT128x96x4Clear+0x5e>
    405a:	f107 0708 	add.w	r7, r7, #8
    405e:	46bd      	mov	sp, r7
    4060:	bd80      	pop	{r7, pc}
    4062:	bf00      	nop

00004064 <RIT128x96x4StringDraw>:
    4064:	b580      	push	{r7, lr}
    4066:	b088      	sub	sp, #32
    4068:	af00      	add	r7, sp, #0
    406a:	60f8      	str	r0, [r7, #12]
    406c:	60b9      	str	r1, [r7, #8]
    406e:	607a      	str	r2, [r7, #4]
    4070:	70fb      	strb	r3, [r7, #3]
    4072:	f240 7384 	movw	r3, #1924	; 0x784
    4076:	f2c2 0300 	movt	r3, #8192	; 0x2000
    407a:	f04f 0215 	mov.w	r2, #21
    407e:	701a      	strb	r2, [r3, #0]
    4080:	68bb      	ldr	r3, [r7, #8]
    4082:	ea4f 0353 	mov.w	r3, r3, lsr #1
    4086:	b2da      	uxtb	r2, r3
    4088:	f240 7384 	movw	r3, #1924	; 0x784
    408c:	f2c2 0300 	movt	r3, #8192	; 0x2000
    4090:	705a      	strb	r2, [r3, #1]
    4092:	f240 7384 	movw	r3, #1924	; 0x784
    4096:	f2c2 0300 	movt	r3, #8192	; 0x2000
    409a:	f04f 023f 	mov.w	r2, #63	; 0x3f
    409e:	709a      	strb	r2, [r3, #2]
    40a0:	f240 7084 	movw	r0, #1924	; 0x784
    40a4:	f2c2 0000 	movt	r0, #8192	; 0x2000
    40a8:	f04f 0103 	mov.w	r1, #3
    40ac:	f7ff fe90 	bl	3dd0 <RITWriteCommand>
    40b0:	f240 7384 	movw	r3, #1924	; 0x784
    40b4:	f2c2 0300 	movt	r3, #8192	; 0x2000
    40b8:	f04f 0275 	mov.w	r2, #117	; 0x75
    40bc:	701a      	strb	r2, [r3, #0]
    40be:	687b      	ldr	r3, [r7, #4]
    40c0:	b2da      	uxtb	r2, r3
    40c2:	f240 7384 	movw	r3, #1924	; 0x784
    40c6:	f2c2 0300 	movt	r3, #8192	; 0x2000
    40ca:	705a      	strb	r2, [r3, #1]
    40cc:	687b      	ldr	r3, [r7, #4]
    40ce:	b2db      	uxtb	r3, r3
    40d0:	f103 0307 	add.w	r3, r3, #7
    40d4:	b2da      	uxtb	r2, r3
    40d6:	f240 7384 	movw	r3, #1924	; 0x784
    40da:	f2c2 0300 	movt	r3, #8192	; 0x2000
    40de:	709a      	strb	r2, [r3, #2]
    40e0:	f240 7084 	movw	r0, #1924	; 0x784
    40e4:	f2c2 0000 	movt	r0, #8192	; 0x2000
    40e8:	f04f 0103 	mov.w	r1, #3
    40ec:	f7ff fe70 	bl	3dd0 <RITWriteCommand>
    40f0:	f64c 6018 	movw	r0, #52760	; 0xce18
    40f4:	f2c0 0000 	movt	r0, #0
    40f8:	f04f 0102 	mov.w	r1, #2
    40fc:	f7ff fe68 	bl	3dd0 <RITWriteCommand>
    4100:	e094      	b.n	422c <RIT128x96x4StringDraw+0x1c8>
    4102:	68fb      	ldr	r3, [r7, #12]
    4104:	781b      	ldrb	r3, [r3, #0]
    4106:	f003 037f 	and.w	r3, r3, #127	; 0x7f
    410a:	75fb      	strb	r3, [r7, #23]
    410c:	68fb      	ldr	r3, [r7, #12]
    410e:	f103 0301 	add.w	r3, r3, #1
    4112:	60fb      	str	r3, [r7, #12]
    4114:	7dfb      	ldrb	r3, [r7, #23]
    4116:	2b1f      	cmp	r3, #31
    4118:	d803      	bhi.n	4122 <RIT128x96x4StringDraw+0xbe>
    411a:	f04f 0300 	mov.w	r3, #0
    411e:	75fb      	strb	r3, [r7, #23]
    4120:	e003      	b.n	412a <RIT128x96x4StringDraw+0xc6>
    4122:	7dfb      	ldrb	r3, [r7, #23]
    4124:	f1a3 0320 	sub.w	r3, r3, #32
    4128:	75fb      	strb	r3, [r7, #23]
    412a:	f04f 0300 	mov.w	r3, #0
    412e:	61fb      	str	r3, [r7, #28]
    4130:	e079      	b.n	4226 <RIT128x96x4StringDraw+0x1c2>
    4132:	f04f 0300 	mov.w	r3, #0
    4136:	61bb      	str	r3, [r7, #24]
    4138:	e05f      	b.n	41fa <RIT128x96x4StringDraw+0x196>
    413a:	f240 7384 	movw	r3, #1924	; 0x784
    413e:	f2c2 0300 	movt	r3, #8192	; 0x2000
    4142:	69ba      	ldr	r2, [r7, #24]
    4144:	189b      	adds	r3, r3, r2
    4146:	f04f 0200 	mov.w	r2, #0
    414a:	701a      	strb	r2, [r3, #0]
    414c:	7df9      	ldrb	r1, [r7, #23]
    414e:	f64c 6220 	movw	r2, #52768	; 0xce20
    4152:	f2c0 0200 	movt	r2, #0
    4156:	460b      	mov	r3, r1
    4158:	ea4f 0383 	mov.w	r3, r3, lsl #2
    415c:	185b      	adds	r3, r3, r1
    415e:	69f9      	ldr	r1, [r7, #28]
    4160:	185b      	adds	r3, r3, r1
    4162:	18d3      	adds	r3, r2, r3
    4164:	781b      	ldrb	r3, [r3, #0]
    4166:	461a      	mov	r2, r3
    4168:	69bb      	ldr	r3, [r7, #24]
    416a:	fa42 f303 	asr.w	r3, r2, r3
    416e:	f003 0301 	and.w	r3, r3, #1
    4172:	b2db      	uxtb	r3, r3
    4174:	2b00      	cmp	r3, #0
    4176:	d00a      	beq.n	418e <RIT128x96x4StringDraw+0x12a>
    4178:	78fb      	ldrb	r3, [r7, #3]
    417a:	ea4f 1303 	mov.w	r3, r3, lsl #4
    417e:	b2da      	uxtb	r2, r3
    4180:	f240 7384 	movw	r3, #1924	; 0x784
    4184:	f2c2 0300 	movt	r3, #8192	; 0x2000
    4188:	69b9      	ldr	r1, [r7, #24]
    418a:	185b      	adds	r3, r3, r1
    418c:	701a      	strb	r2, [r3, #0]
    418e:	69fb      	ldr	r3, [r7, #28]
    4190:	2b03      	cmp	r3, #3
    4192:	d82e      	bhi.n	41f2 <RIT128x96x4StringDraw+0x18e>
    4194:	7df9      	ldrb	r1, [r7, #23]
    4196:	69fb      	ldr	r3, [r7, #28]
    4198:	f103 0001 	add.w	r0, r3, #1
    419c:	f64c 6220 	movw	r2, #52768	; 0xce20
    41a0:	f2c0 0200 	movt	r2, #0
    41a4:	460b      	mov	r3, r1
    41a6:	ea4f 0383 	mov.w	r3, r3, lsl #2
    41aa:	185b      	adds	r3, r3, r1
    41ac:	181b      	adds	r3, r3, r0
    41ae:	18d3      	adds	r3, r2, r3
    41b0:	781b      	ldrb	r3, [r3, #0]
    41b2:	461a      	mov	r2, r3
    41b4:	69bb      	ldr	r3, [r7, #24]
    41b6:	fa42 f303 	asr.w	r3, r2, r3
    41ba:	f003 0301 	and.w	r3, r3, #1
    41be:	b2db      	uxtb	r3, r3
    41c0:	2b00      	cmp	r3, #0
    41c2:	d016      	beq.n	41f2 <RIT128x96x4StringDraw+0x18e>
    41c4:	f240 7384 	movw	r3, #1924	; 0x784
    41c8:	f2c2 0300 	movt	r3, #8192	; 0x2000
    41cc:	69ba      	ldr	r2, [r7, #24]
    41ce:	189b      	adds	r3, r3, r2
    41d0:	781b      	ldrb	r3, [r3, #0]
    41d2:	b2da      	uxtb	r2, r3
    41d4:	78fb      	ldrb	r3, [r7, #3]
    41d6:	f003 030f 	and.w	r3, r3, #15
    41da:	b2db      	uxtb	r3, r3
    41dc:	ea42 0303 	orr.w	r3, r2, r3
    41e0:	b2db      	uxtb	r3, r3
    41e2:	b2da      	uxtb	r2, r3
    41e4:	f240 7384 	movw	r3, #1924	; 0x784
    41e8:	f2c2 0300 	movt	r3, #8192	; 0x2000
    41ec:	69b9      	ldr	r1, [r7, #24]
    41ee:	185b      	adds	r3, r3, r1
    41f0:	701a      	strb	r2, [r3, #0]
    41f2:	69bb      	ldr	r3, [r7, #24]
    41f4:	f103 0301 	add.w	r3, r3, #1
    41f8:	61bb      	str	r3, [r7, #24]
    41fa:	69bb      	ldr	r3, [r7, #24]
    41fc:	2b07      	cmp	r3, #7
    41fe:	d99c      	bls.n	413a <RIT128x96x4StringDraw+0xd6>
    4200:	f240 7084 	movw	r0, #1924	; 0x784
    4204:	f2c2 0000 	movt	r0, #8192	; 0x2000
    4208:	f04f 0108 	mov.w	r1, #8
    420c:	f7ff fe5e 	bl	3ecc <RITWriteData>
    4210:	68bb      	ldr	r3, [r7, #8]
    4212:	f103 0302 	add.w	r3, r3, #2
    4216:	60bb      	str	r3, [r7, #8]
    4218:	68bb      	ldr	r3, [r7, #8]
    421a:	2b80      	cmp	r3, #128	; 0x80
    421c:	d00c      	beq.n	4238 <RIT128x96x4StringDraw+0x1d4>
    421e:	69fb      	ldr	r3, [r7, #28]
    4220:	f103 0302 	add.w	r3, r3, #2
    4224:	61fb      	str	r3, [r7, #28]
    4226:	69fb      	ldr	r3, [r7, #28]
    4228:	2b05      	cmp	r3, #5
    422a:	d982      	bls.n	4132 <RIT128x96x4StringDraw+0xce>
    422c:	68fb      	ldr	r3, [r7, #12]
    422e:	781b      	ldrb	r3, [r3, #0]
    4230:	2b00      	cmp	r3, #0
    4232:	f47f af66 	bne.w	4102 <RIT128x96x4StringDraw+0x9e>
    4236:	e000      	b.n	423a <RIT128x96x4StringDraw+0x1d6>
    4238:	bf00      	nop
    423a:	f107 0720 	add.w	r7, r7, #32
    423e:	46bd      	mov	sp, r7
    4240:	bd80      	pop	{r7, pc}
    4242:	bf00      	nop

00004244 <RIT128x96x4ImageDraw>:
    4244:	b580      	push	{r7, lr}
    4246:	b084      	sub	sp, #16
    4248:	af00      	add	r7, sp, #0
    424a:	60f8      	str	r0, [r7, #12]
    424c:	60b9      	str	r1, [r7, #8]
    424e:	607a      	str	r2, [r7, #4]
    4250:	603b      	str	r3, [r7, #0]
    4252:	f240 7384 	movw	r3, #1924	; 0x784
    4256:	f2c2 0300 	movt	r3, #8192	; 0x2000
    425a:	f04f 0215 	mov.w	r2, #21
    425e:	701a      	strb	r2, [r3, #0]
    4260:	68bb      	ldr	r3, [r7, #8]
    4262:	ea4f 0353 	mov.w	r3, r3, lsr #1
    4266:	b2da      	uxtb	r2, r3
    4268:	f240 7384 	movw	r3, #1924	; 0x784
    426c:	f2c2 0300 	movt	r3, #8192	; 0x2000
    4270:	705a      	strb	r2, [r3, #1]
    4272:	68ba      	ldr	r2, [r7, #8]
    4274:	683b      	ldr	r3, [r7, #0]
    4276:	18d3      	adds	r3, r2, r3
    4278:	f1a3 0302 	sub.w	r3, r3, #2
    427c:	ea4f 0353 	mov.w	r3, r3, lsr #1
    4280:	b2da      	uxtb	r2, r3
    4282:	f240 7384 	movw	r3, #1924	; 0x784
    4286:	f2c2 0300 	movt	r3, #8192	; 0x2000
    428a:	709a      	strb	r2, [r3, #2]
    428c:	f240 7084 	movw	r0, #1924	; 0x784
    4290:	f2c2 0000 	movt	r0, #8192	; 0x2000
    4294:	f04f 0103 	mov.w	r1, #3
    4298:	f7ff fd9a 	bl	3dd0 <RITWriteCommand>
    429c:	f240 7384 	movw	r3, #1924	; 0x784
    42a0:	f2c2 0300 	movt	r3, #8192	; 0x2000
    42a4:	f04f 0275 	mov.w	r2, #117	; 0x75
    42a8:	701a      	strb	r2, [r3, #0]
    42aa:	687b      	ldr	r3, [r7, #4]
    42ac:	b2da      	uxtb	r2, r3
    42ae:	f240 7384 	movw	r3, #1924	; 0x784
    42b2:	f2c2 0300 	movt	r3, #8192	; 0x2000
    42b6:	705a      	strb	r2, [r3, #1]
    42b8:	687b      	ldr	r3, [r7, #4]
    42ba:	b2da      	uxtb	r2, r3
    42bc:	69bb      	ldr	r3, [r7, #24]
    42be:	b2db      	uxtb	r3, r3
    42c0:	18d3      	adds	r3, r2, r3
    42c2:	b2db      	uxtb	r3, r3
    42c4:	f103 33ff 	add.w	r3, r3, #4294967295
    42c8:	b2da      	uxtb	r2, r3
    42ca:	f240 7384 	movw	r3, #1924	; 0x784
    42ce:	f2c2 0300 	movt	r3, #8192	; 0x2000
    42d2:	709a      	strb	r2, [r3, #2]
    42d4:	f240 7084 	movw	r0, #1924	; 0x784
    42d8:	f2c2 0000 	movt	r0, #8192	; 0x2000
    42dc:	f04f 0103 	mov.w	r1, #3
    42e0:	f7ff fd76 	bl	3dd0 <RITWriteCommand>
    42e4:	f64c 601c 	movw	r0, #52764	; 0xce1c
    42e8:	f2c0 0000 	movt	r0, #0
    42ec:	f04f 0102 	mov.w	r1, #2
    42f0:	f7ff fd6e 	bl	3dd0 <RITWriteCommand>
    42f4:	e00c      	b.n	4310 <RIT128x96x4ImageDraw+0xcc>
    42f6:	683b      	ldr	r3, [r7, #0]
    42f8:	ea4f 0353 	mov.w	r3, r3, lsr #1
    42fc:	68f8      	ldr	r0, [r7, #12]
    42fe:	4619      	mov	r1, r3
    4300:	f7ff fde4 	bl	3ecc <RITWriteData>
    4304:	683b      	ldr	r3, [r7, #0]
    4306:	ea4f 0353 	mov.w	r3, r3, lsr #1
    430a:	68fa      	ldr	r2, [r7, #12]
    430c:	18d3      	adds	r3, r2, r3
    430e:	60fb      	str	r3, [r7, #12]
    4310:	69bb      	ldr	r3, [r7, #24]
    4312:	2b00      	cmp	r3, #0
    4314:	bf0c      	ite	eq
    4316:	2300      	moveq	r3, #0
    4318:	2301      	movne	r3, #1
    431a:	b2db      	uxtb	r3, r3
    431c:	69ba      	ldr	r2, [r7, #24]
    431e:	f102 32ff 	add.w	r2, r2, #4294967295
    4322:	61ba      	str	r2, [r7, #24]
    4324:	2b00      	cmp	r3, #0
    4326:	d1e6      	bne.n	42f6 <RIT128x96x4ImageDraw+0xb2>
    4328:	f107 0710 	add.w	r7, r7, #16
    432c:	46bd      	mov	sp, r7
    432e:	bd80      	pop	{r7, pc}

00004330 <RIT128x96x4Enable>:
    4330:	b580      	push	{r7, lr}
    4332:	b084      	sub	sp, #16
    4334:	af02      	add	r7, sp, #8
    4336:	6078      	str	r0, [r7, #4]
    4338:	f44f 4000 	mov.w	r0, #32768	; 0x8000
    433c:	f2c4 0000 	movt	r0, #16384	; 0x4000
    4340:	f000 fc92 	bl	4c68 <SSIDisable>
    4344:	f7fe f816 	bl	2374 <SysCtlClockGet>
    4348:	4603      	mov	r3, r0
    434a:	687a      	ldr	r2, [r7, #4]
    434c:	9200      	str	r2, [sp, #0]
    434e:	f04f 0208 	mov.w	r2, #8
    4352:	9201      	str	r2, [sp, #4]
    4354:	f44f 4000 	mov.w	r0, #32768	; 0x8000
    4358:	f2c4 0000 	movt	r0, #16384	; 0x4000
    435c:	4619      	mov	r1, r3
    435e:	f04f 0203 	mov.w	r2, #3
    4362:	f04f 0300 	mov.w	r3, #0
    4366:	f000 fc11 	bl	4b8c <SSIConfigSetExpClk>
    436a:	f44f 4080 	mov.w	r0, #16384	; 0x4000
    436e:	f2c4 0000 	movt	r0, #16384	; 0x4000
    4372:	f04f 0108 	mov.w	r1, #8
    4376:	f7fe fc99 	bl	2cac <GPIOPinTypeSSI>
    437a:	f44f 4080 	mov.w	r0, #16384	; 0x4000
    437e:	f2c4 0000 	movt	r0, #16384	; 0x4000
    4382:	f04f 0108 	mov.w	r1, #8
    4386:	f04f 0204 	mov.w	r2, #4
    438a:	f04f 030a 	mov.w	r3, #10
    438e:	f7fe faa1 	bl	28d4 <GPIOPadConfigSet>
    4392:	f44f 4000 	mov.w	r0, #32768	; 0x8000
    4396:	f2c4 0000 	movt	r0, #16384	; 0x4000
    439a:	f000 fc51 	bl	4c40 <SSIEnable>
    439e:	f240 7380 	movw	r3, #1920	; 0x780
    43a2:	f2c2 0300 	movt	r3, #8192	; 0x2000
    43a6:	f003 4270 	and.w	r2, r3, #4026531840	; 0xf0000000
    43aa:	f240 7380 	movw	r3, #1920	; 0x780
    43ae:	f2c2 0300 	movt	r3, #8192	; 0x2000
    43b2:	f023 437f 	bic.w	r3, r3, #4278190080	; 0xff000000
    43b6:	f423 0370 	bic.w	r3, r3, #15728640	; 0xf00000
    43ba:	ea4f 1343 	mov.w	r3, r3, lsl #5
    43be:	ea42 0303 	orr.w	r3, r2, r3
    43c2:	f043 7300 	orr.w	r3, r3, #33554432	; 0x2000000
    43c6:	f04f 0201 	mov.w	r2, #1
    43ca:	601a      	str	r2, [r3, #0]
    43cc:	f107 0708 	add.w	r7, r7, #8
    43d0:	46bd      	mov	sp, r7
    43d2:	bd80      	pop	{r7, pc}

000043d4 <RIT128x96x4Init>:
    43d4:	b580      	push	{r7, lr}
    43d6:	b084      	sub	sp, #16
    43d8:	af00      	add	r7, sp, #0
    43da:	6078      	str	r0, [r7, #4]
    43dc:	f04f 0010 	mov.w	r0, #16
    43e0:	f2c1 0000 	movt	r0, #4096	; 0x1000
    43e4:	f7fd fe4e 	bl	2084 <SysCtlPeripheralEnable>
    43e8:	f04f 0001 	mov.w	r0, #1
    43ec:	f2c2 0000 	movt	r0, #8192	; 0x2000
    43f0:	f7fd fe48 	bl	2084 <SysCtlPeripheralEnable>
    43f4:	f04f 0001 	mov.w	r0, #1
    43f8:	f2c2 0000 	movt	r0, #8192	; 0x2000
    43fc:	f7fd fe42 	bl	2084 <SysCtlPeripheralEnable>
    4400:	f44f 4080 	mov.w	r0, #16384	; 0x4000
    4404:	f2c4 0000 	movt	r0, #16384	; 0x4000
    4408:	f04f 012c 	mov.w	r1, #44	; 0x2c
    440c:	f7fe fc4e 	bl	2cac <GPIOPinTypeSSI>
    4410:	f44f 4080 	mov.w	r0, #16384	; 0x4000
    4414:	f2c4 0000 	movt	r0, #16384	; 0x4000
    4418:	f04f 012c 	mov.w	r1, #44	; 0x2c
    441c:	f04f 0204 	mov.w	r2, #4
    4420:	f04f 030a 	mov.w	r3, #10
    4424:	f7fe fa56 	bl	28d4 <GPIOPadConfigSet>
    4428:	f44f 4080 	mov.w	r0, #16384	; 0x4000
    442c:	f2c4 0000 	movt	r0, #16384	; 0x4000
    4430:	f04f 01c0 	mov.w	r1, #192	; 0xc0
    4434:	f7fe fc06 	bl	2c44 <GPIOPinTypeGPIOOutput>
    4438:	f44f 4080 	mov.w	r0, #16384	; 0x4000
    443c:	f2c4 0000 	movt	r0, #16384	; 0x4000
    4440:	f04f 01c0 	mov.w	r1, #192	; 0xc0
    4444:	f04f 0204 	mov.w	r2, #4
    4448:	f04f 0308 	mov.w	r3, #8
    444c:	f7fe fa42 	bl	28d4 <GPIOPadConfigSet>
    4450:	f44f 4080 	mov.w	r0, #16384	; 0x4000
    4454:	f2c4 0000 	movt	r0, #16384	; 0x4000
    4458:	f04f 01c0 	mov.w	r1, #192	; 0xc0
    445c:	f04f 02c0 	mov.w	r2, #192	; 0xc0
    4460:	f7fe fba6 	bl	2bb0 <GPIOPinWrite>
    4464:	f240 7380 	movw	r3, #1920	; 0x780
    4468:	f2c2 0300 	movt	r3, #8192	; 0x2000
    446c:	f003 4270 	and.w	r2, r3, #4026531840	; 0xf0000000
    4470:	f240 7380 	movw	r3, #1920	; 0x780
    4474:	f2c2 0300 	movt	r3, #8192	; 0x2000
    4478:	f023 437f 	bic.w	r3, r3, #4278190080	; 0xff000000
    447c:	f423 0370 	bic.w	r3, r3, #15728640	; 0xf00000
    4480:	ea4f 1343 	mov.w	r3, r3, lsl #5
    4484:	ea42 0303 	orr.w	r3, r2, r3
    4488:	f043 7300 	orr.w	r3, r3, #33554432	; 0x2000000
    448c:	f043 0304 	orr.w	r3, r3, #4
    4490:	f04f 0201 	mov.w	r2, #1
    4494:	601a      	str	r2, [r3, #0]
    4496:	6878      	ldr	r0, [r7, #4]
    4498:	f7ff ff4a 	bl	4330 <RIT128x96x4Enable>
    449c:	f7ff fd94 	bl	3fc8 <RIT128x96x4Clear>
    44a0:	f04f 0300 	mov.w	r3, #0
    44a4:	60fb      	str	r3, [r7, #12]
    44a6:	e021      	b.n	44ec <RIT128x96x4Init+0x118>
    44a8:	68fb      	ldr	r3, [r7, #12]
    44aa:	f103 0201 	add.w	r2, r3, #1
    44ae:	f24d 0300 	movw	r3, #53248	; 0xd000
    44b2:	f2c0 0300 	movt	r3, #0
    44b6:	18d2      	adds	r2, r2, r3
    44b8:	f24d 0300 	movw	r3, #53248	; 0xd000
    44bc:	f2c0 0300 	movt	r3, #0
    44c0:	68f9      	ldr	r1, [r7, #12]
    44c2:	185b      	adds	r3, r3, r1
    44c4:	781b      	ldrb	r3, [r3, #0]
    44c6:	f103 33ff 	add.w	r3, r3, #4294967295
    44ca:	4610      	mov	r0, r2
    44cc:	4619      	mov	r1, r3
    44ce:	f7ff fc7f 	bl	3dd0 <RITWriteCommand>
    44d2:	f24d 0300 	movw	r3, #53248	; 0xd000
    44d6:	f2c0 0300 	movt	r3, #0
    44da:	68fa      	ldr	r2, [r7, #12]
    44dc:	189b      	adds	r3, r3, r2
    44de:	781b      	ldrb	r3, [r3, #0]
    44e0:	461a      	mov	r2, r3
    44e2:	68fb      	ldr	r3, [r7, #12]
    44e4:	18d3      	adds	r3, r2, r3
    44e6:	f103 0301 	add.w	r3, r3, #1
    44ea:	60fb      	str	r3, [r7, #12]
    44ec:	68fb      	ldr	r3, [r7, #12]
    44ee:	2b4e      	cmp	r3, #78	; 0x4e
    44f0:	d9da      	bls.n	44a8 <RIT128x96x4Init+0xd4>
    44f2:	f107 0710 	add.w	r7, r7, #16
    44f6:	46bd      	mov	sp, r7
    44f8:	bd80      	pop	{r7, pc}
    44fa:	bf00      	nop

000044fc <KEYPAD_inicializacion_keypad>:
    44fc:	b580      	push	{r7, lr}
    44fe:	af00      	add	r7, sp, #0
    4500:	f04f 0020 	mov.w	r0, #32
    4504:	f2c2 0000 	movt	r0, #8192	; 0x2000
    4508:	f7fd fdbc 	bl	2084 <SysCtlPeripheralEnable>
    450c:	f44f 40a0 	mov.w	r0, #20480	; 0x5000
    4510:	f2c4 0002 	movt	r0, #16386	; 0x4002
    4514:	f04f 0102 	mov.w	r1, #2
    4518:	f7fe fb7a 	bl	2c10 <GPIOPinTypeGPIOInput>
    451c:	f44f 40a0 	mov.w	r0, #20480	; 0x5000
    4520:	f2c4 0002 	movt	r0, #16386	; 0x4002
    4524:	f04f 0102 	mov.w	r1, #2
    4528:	f04f 0201 	mov.w	r2, #1
    452c:	f04f 030a 	mov.w	r3, #10
    4530:	f7fe f9d0 	bl	28d4 <GPIOPadConfigSet>
    4534:	f04f 002e 	mov.w	r0, #46	; 0x2e
    4538:	f7ff fbde 	bl	3cf8 <IntEnable>
    453c:	f44f 40a0 	mov.w	r0, #20480	; 0x5000
    4540:	f2c4 0002 	movt	r0, #16386	; 0x4002
    4544:	f04f 0102 	mov.w	r1, #2
    4548:	f04f 0204 	mov.w	r2, #4
    454c:	f7fe f958 	bl	2800 <GPIOIntTypeSet>
    4550:	f44f 40a0 	mov.w	r0, #20480	; 0x5000
    4554:	f2c4 0002 	movt	r0, #16386	; 0x4002
    4558:	f04f 0102 	mov.w	r1, #2
    455c:	f7fe fad2 	bl	2b04 <GPIOPinIntEnable>
    4560:	f04f 0010 	mov.w	r0, #16
    4564:	f2c2 0000 	movt	r0, #8192	; 0x2000
    4568:	f7fd fd8c 	bl	2084 <SysCtlPeripheralEnable>
    456c:	f44f 4080 	mov.w	r0, #16384	; 0x4000
    4570:	f2c4 0002 	movt	r0, #16386	; 0x4002
    4574:	f04f 0101 	mov.w	r1, #1
    4578:	f7fe fb4a 	bl	2c10 <GPIOPinTypeGPIOInput>
    457c:	f44f 4080 	mov.w	r0, #16384	; 0x4000
    4580:	f2c4 0002 	movt	r0, #16386	; 0x4002
    4584:	f04f 0101 	mov.w	r1, #1
    4588:	f04f 0201 	mov.w	r2, #1
    458c:	f04f 030a 	mov.w	r3, #10
    4590:	f7fe f9a0 	bl	28d4 <GPIOPadConfigSet>
    4594:	f44f 4080 	mov.w	r0, #16384	; 0x4000
    4598:	f2c4 0002 	movt	r0, #16386	; 0x4002
    459c:	f04f 0102 	mov.w	r1, #2
    45a0:	f7fe fb36 	bl	2c10 <GPIOPinTypeGPIOInput>
    45a4:	f44f 4080 	mov.w	r0, #16384	; 0x4000
    45a8:	f2c4 0002 	movt	r0, #16386	; 0x4002
    45ac:	f04f 0102 	mov.w	r1, #2
    45b0:	f04f 0201 	mov.w	r2, #1
    45b4:	f04f 030a 	mov.w	r3, #10
    45b8:	f7fe f98c 	bl	28d4 <GPIOPadConfigSet>
    45bc:	f44f 4080 	mov.w	r0, #16384	; 0x4000
    45c0:	f2c4 0002 	movt	r0, #16386	; 0x4002
    45c4:	f04f 0104 	mov.w	r1, #4
    45c8:	f7fe fb22 	bl	2c10 <GPIOPinTypeGPIOInput>
    45cc:	f44f 4080 	mov.w	r0, #16384	; 0x4000
    45d0:	f2c4 0002 	movt	r0, #16386	; 0x4002
    45d4:	f04f 0104 	mov.w	r1, #4
    45d8:	f04f 0201 	mov.w	r2, #1
    45dc:	f04f 030a 	mov.w	r3, #10
    45e0:	f7fe f978 	bl	28d4 <GPIOPadConfigSet>
    45e4:	f44f 4080 	mov.w	r0, #16384	; 0x4000
    45e8:	f2c4 0002 	movt	r0, #16386	; 0x4002
    45ec:	f04f 0108 	mov.w	r1, #8
    45f0:	f7fe fb0e 	bl	2c10 <GPIOPinTypeGPIOInput>
    45f4:	f44f 4080 	mov.w	r0, #16384	; 0x4000
    45f8:	f2c4 0002 	movt	r0, #16386	; 0x4002
    45fc:	f04f 0108 	mov.w	r1, #8
    4600:	f04f 0201 	mov.w	r2, #1
    4604:	f04f 030a 	mov.w	r3, #10
    4608:	f7fe f964 	bl	28d4 <GPIOPadConfigSet>
    460c:	f04f 0014 	mov.w	r0, #20
    4610:	f7ff fb72 	bl	3cf8 <IntEnable>
    4614:	f44f 4080 	mov.w	r0, #16384	; 0x4000
    4618:	f2c4 0002 	movt	r0, #16386	; 0x4002
    461c:	f04f 010f 	mov.w	r1, #15
    4620:	f04f 0204 	mov.w	r2, #4
    4624:	f7fe f8ec 	bl	2800 <GPIOIntTypeSet>
    4628:	f44f 4080 	mov.w	r0, #16384	; 0x4000
    462c:	f2c4 0002 	movt	r0, #16386	; 0x4002
    4630:	f04f 010f 	mov.w	r1, #15
    4634:	f7fe fa66 	bl	2b04 <GPIOPinIntEnable>
    4638:	bd80      	pop	{r7, pc}
    463a:	bf00      	nop

0000463c <PortEInterruptHandler>:
    463c:	4668      	mov	r0, sp
    463e:	f020 0107 	bic.w	r1, r0, #7
    4642:	468d      	mov	sp, r1
    4644:	b581      	push	{r0, r7, lr}
    4646:	b085      	sub	sp, #20
    4648:	af00      	add	r7, sp, #0
    464a:	f44f 4080 	mov.w	r0, #16384	; 0x4000
    464e:	f2c4 0002 	movt	r0, #16386	; 0x4002
    4652:	f04f 0101 	mov.w	r1, #1
    4656:	f7fe fa6b 	bl	2b30 <GPIOPinIntStatus>
    465a:	6078      	str	r0, [r7, #4]
    465c:	687b      	ldr	r3, [r7, #4]
    465e:	f003 0301 	and.w	r3, r3, #1
    4662:	b2db      	uxtb	r3, r3
    4664:	2b00      	cmp	r3, #0
    4666:	d028      	beq.n	46ba <PortEInterruptHandler+0x7e>
    4668:	f44f 4380 	mov.w	r3, #16384	; 0x4000
    466c:	f2c4 0302 	movt	r3, #16386	; 0x4002
    4670:	60fb      	str	r3, [r7, #12]
    4672:	f04f 0301 	mov.w	r3, #1
    4676:	72fb      	strb	r3, [r7, #11]
    4678:	f641 33c0 	movw	r3, #7104	; 0x1bc0
    467c:	f2c2 0300 	movt	r3, #8192	; 0x2000
    4680:	f04f 0201 	mov.w	r2, #1
    4684:	701a      	strb	r2, [r3, #0]
    4686:	f641 33c1 	movw	r3, #7105	; 0x1bc1
    468a:	f2c2 0300 	movt	r3, #8192	; 0x2000
    468e:	f04f 0200 	mov.w	r2, #0
    4692:	701a      	strb	r2, [r3, #0]
    4694:	f641 4358 	movw	r3, #7256	; 0x1c58
    4698:	f2c2 0300 	movt	r3, #8192	; 0x2000
    469c:	681b      	ldr	r3, [r3, #0]
    469e:	4618      	mov	r0, r3
    46a0:	f7fe fdf0 	bl	3284 <xTaskIsTaskSuspended>
    46a4:	4603      	mov	r3, r0
    46a6:	2b01      	cmp	r3, #1
    46a8:	d107      	bne.n	46ba <PortEInterruptHandler+0x7e>
    46aa:	f641 4358 	movw	r3, #7256	; 0x1c58
    46ae:	f2c2 0300 	movt	r3, #8192	; 0x2000
    46b2:	681b      	ldr	r3, [r3, #0]
    46b4:	4618      	mov	r0, r3
    46b6:	f7fe fe0d 	bl	32d4 <vTaskResume>
    46ba:	687b      	ldr	r3, [r7, #4]
    46bc:	f003 0302 	and.w	r3, r3, #2
    46c0:	2b00      	cmp	r3, #0
    46c2:	d015      	beq.n	46f0 <PortEInterruptHandler+0xb4>
    46c4:	f44f 4380 	mov.w	r3, #16384	; 0x4000
    46c8:	f2c4 0302 	movt	r3, #16386	; 0x4002
    46cc:	60fb      	str	r3, [r7, #12]
    46ce:	f04f 0302 	mov.w	r3, #2
    46d2:	72fb      	strb	r3, [r7, #11]
    46d4:	f641 33c1 	movw	r3, #7105	; 0x1bc1
    46d8:	f2c2 0300 	movt	r3, #8192	; 0x2000
    46dc:	f04f 0201 	mov.w	r2, #1
    46e0:	701a      	strb	r2, [r3, #0]
    46e2:	f641 33c0 	movw	r3, #7104	; 0x1bc0
    46e6:	f2c2 0300 	movt	r3, #8192	; 0x2000
    46ea:	f04f 0200 	mov.w	r2, #0
    46ee:	701a      	strb	r2, [r3, #0]
    46f0:	687b      	ldr	r3, [r7, #4]
    46f2:	f003 0304 	and.w	r3, r3, #4
    46f6:	2b00      	cmp	r3, #0
    46f8:	d00e      	beq.n	4718 <PortEInterruptHandler+0xdc>
    46fa:	f44f 4380 	mov.w	r3, #16384	; 0x4000
    46fe:	f2c4 0302 	movt	r3, #16386	; 0x4002
    4702:	60fb      	str	r3, [r7, #12]
    4704:	f04f 0304 	mov.w	r3, #4
    4708:	72fb      	strb	r3, [r7, #11]
    470a:	f641 33c2 	movw	r3, #7106	; 0x1bc2
    470e:	f2c2 0300 	movt	r3, #8192	; 0x2000
    4712:	f04f 0201 	mov.w	r2, #1
    4716:	701a      	strb	r2, [r3, #0]
    4718:	687b      	ldr	r3, [r7, #4]
    471a:	f003 0308 	and.w	r3, r3, #8
    471e:	2b00      	cmp	r3, #0
    4720:	d00e      	beq.n	4740 <PortEInterruptHandler+0x104>
    4722:	f44f 4380 	mov.w	r3, #16384	; 0x4000
    4726:	f2c4 0302 	movt	r3, #16386	; 0x4002
    472a:	60fb      	str	r3, [r7, #12]
    472c:	f04f 0308 	mov.w	r3, #8
    4730:	72fb      	strb	r3, [r7, #11]
    4732:	f641 33c3 	movw	r3, #7107	; 0x1bc3
    4736:	f2c2 0300 	movt	r3, #8192	; 0x2000
    473a:	f04f 0201 	mov.w	r2, #1
    473e:	701a      	strb	r2, [r3, #0]
    4740:	7afb      	ldrb	r3, [r7, #11]
    4742:	68f8      	ldr	r0, [r7, #12]
    4744:	4619      	mov	r1, r3
    4746:	f7fe fa0d 	bl	2b64 <GPIOPinIntClear>
    474a:	f107 0714 	add.w	r7, r7, #20
    474e:	46bd      	mov	sp, r7
    4750:	e8bd 4081 	ldmia.w	sp!, {r0, r7, lr}
    4754:	4685      	mov	sp, r0
    4756:	4770      	bx	lr

00004758 <PortFInterruptHandler>:
    4758:	4668      	mov	r0, sp
    475a:	f020 0107 	bic.w	r1, r0, #7
    475e:	468d      	mov	sp, r1
    4760:	b581      	push	{r0, r7, lr}
    4762:	b085      	sub	sp, #20
    4764:	af00      	add	r7, sp, #0
    4766:	f44f 40a0 	mov.w	r0, #20480	; 0x5000
    476a:	f2c4 0002 	movt	r0, #16386	; 0x4002
    476e:	f04f 0101 	mov.w	r1, #1
    4772:	f7fe f9dd 	bl	2b30 <GPIOPinIntStatus>
    4776:	6078      	str	r0, [r7, #4]
    4778:	687b      	ldr	r3, [r7, #4]
    477a:	f003 0302 	and.w	r3, r3, #2
    477e:	2b00      	cmp	r3, #0
    4780:	d00e      	beq.n	47a0 <PortFInterruptHandler+0x48>
    4782:	f44f 43a0 	mov.w	r3, #20480	; 0x5000
    4786:	f2c4 0302 	movt	r3, #16386	; 0x4002
    478a:	60fb      	str	r3, [r7, #12]
    478c:	f04f 0302 	mov.w	r3, #2
    4790:	72fb      	strb	r3, [r7, #11]
    4792:	f641 33c4 	movw	r3, #7108	; 0x1bc4
    4796:	f2c2 0300 	movt	r3, #8192	; 0x2000
    479a:	f04f 0201 	mov.w	r2, #1
    479e:	701a      	strb	r2, [r3, #0]
    47a0:	7afb      	ldrb	r3, [r7, #11]
    47a2:	68f8      	ldr	r0, [r7, #12]
    47a4:	4619      	mov	r1, r3
    47a6:	f7fe f9dd 	bl	2b64 <GPIOPinIntClear>
    47aa:	f107 0714 	add.w	r7, r7, #20
    47ae:	46bd      	mov	sp, r7
    47b0:	e8bd 4081 	ldmia.w	sp!, {r0, r7, lr}
    47b4:	4685      	mov	sp, r0
    47b6:	4770      	bx	lr

000047b8 <AD_ObtenerValorADC_Channel2>:
    47b8:	b580      	push	{r7, lr}
    47ba:	af00      	add	r7, sp, #0
    47bc:	f44f 4000 	mov.w	r0, #32768	; 0x8000
    47c0:	f2c4 0003 	movt	r0, #16387	; 0x4003
    47c4:	f04f 0103 	mov.w	r1, #3
    47c8:	f04f 0200 	mov.w	r2, #0
    47cc:	f04f 0362 	mov.w	r3, #98	; 0x62
    47d0:	f000 fb36 	bl	4e40 <ADCSequenceStepConfigure>
    47d4:	f44f 4000 	mov.w	r0, #32768	; 0x8000
    47d8:	f2c4 0003 	movt	r0, #16387	; 0x4003
    47dc:	f04f 0103 	mov.w	r1, #3
    47e0:	f000 fbf6 	bl	4fd0 <ADCProcessorTrigger>
    47e4:	bf00      	nop
    47e6:	f44f 4000 	mov.w	r0, #32768	; 0x8000
    47ea:	f2c4 0003 	movt	r0, #16387	; 0x4003
    47ee:	f04f 0103 	mov.w	r1, #3
    47f2:	f04f 0200 	mov.w	r2, #0
    47f6:	f000 fa79 	bl	4cec <ADCIntStatus>
    47fa:	4603      	mov	r3, r0
    47fc:	2b00      	cmp	r3, #0
    47fe:	d0f2      	beq.n	47e6 <AD_ObtenerValorADC_Channel2+0x2e>
    4800:	f44f 4000 	mov.w	r0, #32768	; 0x8000
    4804:	f2c4 0003 	movt	r0, #16387	; 0x4003
    4808:	f04f 0103 	mov.w	r1, #3
    480c:	f641 722c 	movw	r2, #7980	; 0x1f2c
    4810:	f2c2 0200 	movt	r2, #8192	; 0x2000
    4814:	f000 fbaa 	bl	4f6c <ADCSequenceDataGet>
    4818:	f44f 4000 	mov.w	r0, #32768	; 0x8000
    481c:	f2c4 0003 	movt	r0, #16387	; 0x4003
    4820:	f04f 0103 	mov.w	r1, #3
    4824:	f000 faa2 	bl	4d6c <ADCIntClear>
    4828:	f641 732c 	movw	r3, #7980	; 0x1f2c
    482c:	f2c2 0300 	movt	r3, #8192	; 0x2000
    4830:	681b      	ldr	r3, [r3, #0]
    4832:	4618      	mov	r0, r3
    4834:	f001 fb6e 	bl	5f14 <__aeabi_ui2d>
    4838:	4602      	mov	r2, r0
    483a:	460b      	mov	r3, r1
    483c:	4610      	mov	r0, r2
    483e:	4619      	mov	r1, r3
    4840:	a30b      	add	r3, pc, #44	; (adr r3, 4870 <AD_ObtenerValorADC_Channel2+0xb8>)
    4842:	e9d3 2300 	ldrd	r2, r3, [r3]
    4846:	f001 fbdb 	bl	6000 <__aeabi_dmul>
    484a:	4602      	mov	r2, r0
    484c:	460b      	mov	r3, r1
    484e:	4610      	mov	r0, r2
    4850:	4619      	mov	r1, r3
    4852:	f001 fe6f 	bl	6534 <__aeabi_d2f>
    4856:	4602      	mov	r2, r0
    4858:	f240 738c 	movw	r3, #1932	; 0x78c
    485c:	f2c2 0300 	movt	r3, #8192	; 0x2000
    4860:	601a      	str	r2, [r3, #0]
    4862:	f240 738c 	movw	r3, #1932	; 0x78c
    4866:	f2c2 0300 	movt	r3, #8192	; 0x2000
    486a:	681b      	ldr	r3, [r3, #0]
    486c:	4618      	mov	r0, r3
    486e:	bd80      	pop	{r7, pc}
    4870:	40501405 	.word	0x40501405
    4874:	3f840501 	.word	0x3f840501

00004878 <AD_ObtenerValorADC_Channel3>:
    4878:	b580      	push	{r7, lr}
    487a:	af00      	add	r7, sp, #0
    487c:	f44f 4000 	mov.w	r0, #32768	; 0x8000
    4880:	f2c4 0003 	movt	r0, #16387	; 0x4003
    4884:	f04f 0103 	mov.w	r1, #3
    4888:	f04f 0200 	mov.w	r2, #0
    488c:	f04f 0363 	mov.w	r3, #99	; 0x63
    4890:	f000 fad6 	bl	4e40 <ADCSequenceStepConfigure>
    4894:	f44f 4000 	mov.w	r0, #32768	; 0x8000
    4898:	f2c4 0003 	movt	r0, #16387	; 0x4003
    489c:	f04f 0103 	mov.w	r1, #3
    48a0:	f000 fb96 	bl	4fd0 <ADCProcessorTrigger>
    48a4:	bf00      	nop
    48a6:	f44f 4000 	mov.w	r0, #32768	; 0x8000
    48aa:	f2c4 0003 	movt	r0, #16387	; 0x4003
    48ae:	f04f 0103 	mov.w	r1, #3
    48b2:	f04f 0200 	mov.w	r2, #0
    48b6:	f000 fa19 	bl	4cec <ADCIntStatus>
    48ba:	4603      	mov	r3, r0
    48bc:	2b00      	cmp	r3, #0
    48be:	d0f2      	beq.n	48a6 <AD_ObtenerValorADC_Channel3+0x2e>
    48c0:	f44f 4000 	mov.w	r0, #32768	; 0x8000
    48c4:	f2c4 0003 	movt	r0, #16387	; 0x4003
    48c8:	f04f 0103 	mov.w	r1, #3
    48cc:	f641 7230 	movw	r2, #7984	; 0x1f30
    48d0:	f2c2 0200 	movt	r2, #8192	; 0x2000
    48d4:	f000 fb4a 	bl	4f6c <ADCSequenceDataGet>
    48d8:	f44f 4000 	mov.w	r0, #32768	; 0x8000
    48dc:	f2c4 0003 	movt	r0, #16387	; 0x4003
    48e0:	f04f 0103 	mov.w	r1, #3
    48e4:	f000 fa42 	bl	4d6c <ADCIntClear>
    48e8:	f641 7330 	movw	r3, #7984	; 0x1f30
    48ec:	f2c2 0300 	movt	r3, #8192	; 0x2000
    48f0:	681b      	ldr	r3, [r3, #0]
    48f2:	4618      	mov	r0, r3
    48f4:	f001 fb0e 	bl	5f14 <__aeabi_ui2d>
    48f8:	4602      	mov	r2, r0
    48fa:	460b      	mov	r3, r1
    48fc:	4610      	mov	r0, r2
    48fe:	4619      	mov	r1, r3
    4900:	a30b      	add	r3, pc, #44	; (adr r3, 4930 <AD_ObtenerValorADC_Channel3+0xb8>)
    4902:	e9d3 2300 	ldrd	r2, r3, [r3]
    4906:	f001 fb7b 	bl	6000 <__aeabi_dmul>
    490a:	4602      	mov	r2, r0
    490c:	460b      	mov	r3, r1
    490e:	4610      	mov	r0, r2
    4910:	4619      	mov	r1, r3
    4912:	f001 fe0f 	bl	6534 <__aeabi_d2f>
    4916:	4602      	mov	r2, r0
    4918:	f240 7390 	movw	r3, #1936	; 0x790
    491c:	f2c2 0300 	movt	r3, #8192	; 0x2000
    4920:	601a      	str	r2, [r3, #0]
    4922:	f240 7390 	movw	r3, #1936	; 0x790
    4926:	f2c2 0300 	movt	r3, #8192	; 0x2000
    492a:	681b      	ldr	r3, [r3, #0]
    492c:	4618      	mov	r0, r3
    492e:	bd80      	pop	{r7, pc}
    4930:	40501405 	.word	0x40501405
    4934:	3f840501 	.word	0x3f840501

00004938 <Default_Reset_Handler>:
    4938:	b580      	push	{r7, lr}
    493a:	b082      	sub	sp, #8
    493c:	af00      	add	r7, sp, #0
    493e:	f24d 23a8 	movw	r3, #53928	; 0xd2a8
    4942:	f2c0 0300 	movt	r3, #0
    4946:	607b      	str	r3, [r7, #4]
    4948:	f240 0300 	movw	r3, #0
    494c:	f2c2 0300 	movt	r3, #8192	; 0x2000
    4950:	603b      	str	r3, [r7, #0]
    4952:	e00b      	b.n	496c <Default_Reset_Handler+0x34>
    4954:	687b      	ldr	r3, [r7, #4]
    4956:	681a      	ldr	r2, [r3, #0]
    4958:	683b      	ldr	r3, [r7, #0]
    495a:	601a      	str	r2, [r3, #0]
    495c:	683b      	ldr	r3, [r7, #0]
    495e:	f103 0304 	add.w	r3, r3, #4
    4962:	603b      	str	r3, [r7, #0]
    4964:	687b      	ldr	r3, [r7, #4]
    4966:	f103 0304 	add.w	r3, r3, #4
    496a:	607b      	str	r3, [r7, #4]
    496c:	683a      	ldr	r2, [r7, #0]
    496e:	f240 630c 	movw	r3, #1548	; 0x60c
    4972:	f2c2 0300 	movt	r3, #8192	; 0x2000
    4976:	429a      	cmp	r2, r3
    4978:	d3ec      	bcc.n	4954 <Default_Reset_Handler+0x1c>
    497a:	4808      	ldr	r0, [pc, #32]	; (499c <zero_loop+0x1a>)
    497c:	4908      	ldr	r1, [pc, #32]	; (49a0 <zero_loop+0x1e>)
    497e:	f04f 0200 	mov.w	r2, #0

00004982 <zero_loop>:
    4982:	4288      	cmp	r0, r1
    4984:	bfb8      	it	lt
    4986:	f840 2b04 	strlt.w	r2, [r0], #4
    498a:	dbfa      	blt.n	4982 <zero_loop>
    498c:	f7fc f9b2 	bl	cf4 <SystemInit>
    4990:	f7fc ff3a 	bl	1808 <main>
    4994:	f107 0708 	add.w	r7, r7, #8
    4998:	46bd      	mov	sp, r7
    499a:	bd80      	pop	{r7, pc}
    499c:	20000610 	.word	0x20000610
    49a0:	20002440 	.word	0x20002440

000049a4 <ADCSeq0_IRQHandler>:
    49a4:	b480      	push	{r7}
    49a6:	af00      	add	r7, sp, #0
    49a8:	e7fe      	b.n	49a8 <ADCSeq0_IRQHandler+0x4>
    49aa:	bf00      	nop

000049ac <vListInitialise>:
    49ac:	b480      	push	{r7}
    49ae:	b083      	sub	sp, #12
    49b0:	af00      	add	r7, sp, #0
    49b2:	6078      	str	r0, [r7, #4]
    49b4:	687b      	ldr	r3, [r7, #4]
    49b6:	f103 0308 	add.w	r3, r3, #8
    49ba:	461a      	mov	r2, r3
    49bc:	687b      	ldr	r3, [r7, #4]
    49be:	605a      	str	r2, [r3, #4]
    49c0:	687b      	ldr	r3, [r7, #4]
    49c2:	f04f 32ff 	mov.w	r2, #4294967295
    49c6:	609a      	str	r2, [r3, #8]
    49c8:	687b      	ldr	r3, [r7, #4]
    49ca:	f103 0308 	add.w	r3, r3, #8
    49ce:	461a      	mov	r2, r3
    49d0:	687b      	ldr	r3, [r7, #4]
    49d2:	60da      	str	r2, [r3, #12]
    49d4:	687b      	ldr	r3, [r7, #4]
    49d6:	f103 0308 	add.w	r3, r3, #8
    49da:	461a      	mov	r2, r3
    49dc:	687b      	ldr	r3, [r7, #4]
    49de:	611a      	str	r2, [r3, #16]
    49e0:	687b      	ldr	r3, [r7, #4]
    49e2:	f04f 0200 	mov.w	r2, #0
    49e6:	601a      	str	r2, [r3, #0]
    49e8:	f107 070c 	add.w	r7, r7, #12
    49ec:	46bd      	mov	sp, r7
    49ee:	bc80      	pop	{r7}
    49f0:	4770      	bx	lr
    49f2:	bf00      	nop

000049f4 <vListInitialiseItem>:
    49f4:	b480      	push	{r7}
    49f6:	b083      	sub	sp, #12
    49f8:	af00      	add	r7, sp, #0
    49fa:	6078      	str	r0, [r7, #4]
    49fc:	687b      	ldr	r3, [r7, #4]
    49fe:	f04f 0200 	mov.w	r2, #0
    4a02:	611a      	str	r2, [r3, #16]
    4a04:	f107 070c 	add.w	r7, r7, #12
    4a08:	46bd      	mov	sp, r7
    4a0a:	bc80      	pop	{r7}
    4a0c:	4770      	bx	lr
    4a0e:	bf00      	nop

00004a10 <vListInsertEnd>:
    4a10:	b480      	push	{r7}
    4a12:	b085      	sub	sp, #20
    4a14:	af00      	add	r7, sp, #0
    4a16:	6078      	str	r0, [r7, #4]
    4a18:	6039      	str	r1, [r7, #0]
    4a1a:	687b      	ldr	r3, [r7, #4]
    4a1c:	685b      	ldr	r3, [r3, #4]
    4a1e:	60fb      	str	r3, [r7, #12]
    4a20:	68fb      	ldr	r3, [r7, #12]
    4a22:	685b      	ldr	r3, [r3, #4]
    4a24:	461a      	mov	r2, r3
    4a26:	683b      	ldr	r3, [r7, #0]
    4a28:	605a      	str	r2, [r3, #4]
    4a2a:	687b      	ldr	r3, [r7, #4]
    4a2c:	685a      	ldr	r2, [r3, #4]
    4a2e:	683b      	ldr	r3, [r7, #0]
    4a30:	609a      	str	r2, [r3, #8]
    4a32:	68fb      	ldr	r3, [r7, #12]
    4a34:	685b      	ldr	r3, [r3, #4]
    4a36:	683a      	ldr	r2, [r7, #0]
    4a38:	609a      	str	r2, [r3, #8]
    4a3a:	683a      	ldr	r2, [r7, #0]
    4a3c:	68fb      	ldr	r3, [r7, #12]
    4a3e:	605a      	str	r2, [r3, #4]
    4a40:	683a      	ldr	r2, [r7, #0]
    4a42:	687b      	ldr	r3, [r7, #4]
    4a44:	605a      	str	r2, [r3, #4]
    4a46:	683b      	ldr	r3, [r7, #0]
    4a48:	687a      	ldr	r2, [r7, #4]
    4a4a:	611a      	str	r2, [r3, #16]
    4a4c:	687b      	ldr	r3, [r7, #4]
    4a4e:	681b      	ldr	r3, [r3, #0]
    4a50:	f103 0201 	add.w	r2, r3, #1
    4a54:	687b      	ldr	r3, [r7, #4]
    4a56:	601a      	str	r2, [r3, #0]
    4a58:	f107 0714 	add.w	r7, r7, #20
    4a5c:	46bd      	mov	sp, r7
    4a5e:	bc80      	pop	{r7}
    4a60:	4770      	bx	lr
    4a62:	bf00      	nop

00004a64 <vListInsert>:
    4a64:	b480      	push	{r7}
    4a66:	b085      	sub	sp, #20
    4a68:	af00      	add	r7, sp, #0
    4a6a:	6078      	str	r0, [r7, #4]
    4a6c:	6039      	str	r1, [r7, #0]
    4a6e:	683b      	ldr	r3, [r7, #0]
    4a70:	681b      	ldr	r3, [r3, #0]
    4a72:	60bb      	str	r3, [r7, #8]
    4a74:	68bb      	ldr	r3, [r7, #8]
    4a76:	f1b3 3fff 	cmp.w	r3, #4294967295
    4a7a:	d103      	bne.n	4a84 <vListInsert+0x20>
    4a7c:	687b      	ldr	r3, [r7, #4]
    4a7e:	691b      	ldr	r3, [r3, #16]
    4a80:	60fb      	str	r3, [r7, #12]
    4a82:	e00e      	b.n	4aa2 <vListInsert+0x3e>
    4a84:	687b      	ldr	r3, [r7, #4]
    4a86:	f103 0308 	add.w	r3, r3, #8
    4a8a:	60fb      	str	r3, [r7, #12]
    4a8c:	e002      	b.n	4a94 <vListInsert+0x30>
    4a8e:	68fb      	ldr	r3, [r7, #12]
    4a90:	685b      	ldr	r3, [r3, #4]
    4a92:	60fb      	str	r3, [r7, #12]
    4a94:	68fb      	ldr	r3, [r7, #12]
    4a96:	685b      	ldr	r3, [r3, #4]
    4a98:	681b      	ldr	r3, [r3, #0]
    4a9a:	461a      	mov	r2, r3
    4a9c:	68bb      	ldr	r3, [r7, #8]
    4a9e:	429a      	cmp	r2, r3
    4aa0:	d9f5      	bls.n	4a8e <vListInsert+0x2a>
    4aa2:	68fb      	ldr	r3, [r7, #12]
    4aa4:	685b      	ldr	r3, [r3, #4]
    4aa6:	461a      	mov	r2, r3
    4aa8:	683b      	ldr	r3, [r7, #0]
    4aaa:	605a      	str	r2, [r3, #4]
    4aac:	683b      	ldr	r3, [r7, #0]
    4aae:	685b      	ldr	r3, [r3, #4]
    4ab0:	683a      	ldr	r2, [r7, #0]
    4ab2:	609a      	str	r2, [r3, #8]
    4ab4:	683b      	ldr	r3, [r7, #0]
    4ab6:	68fa      	ldr	r2, [r7, #12]
    4ab8:	609a      	str	r2, [r3, #8]
    4aba:	683a      	ldr	r2, [r7, #0]
    4abc:	68fb      	ldr	r3, [r7, #12]
    4abe:	605a      	str	r2, [r3, #4]
    4ac0:	683b      	ldr	r3, [r7, #0]
    4ac2:	687a      	ldr	r2, [r7, #4]
    4ac4:	611a      	str	r2, [r3, #16]
    4ac6:	687b      	ldr	r3, [r7, #4]
    4ac8:	681b      	ldr	r3, [r3, #0]
    4aca:	f103 0201 	add.w	r2, r3, #1
    4ace:	687b      	ldr	r3, [r7, #4]
    4ad0:	601a      	str	r2, [r3, #0]
    4ad2:	f107 0714 	add.w	r7, r7, #20
    4ad6:	46bd      	mov	sp, r7
    4ad8:	bc80      	pop	{r7}
    4ada:	4770      	bx	lr

00004adc <vListRemove>:
    4adc:	b480      	push	{r7}
    4ade:	b085      	sub	sp, #20
    4ae0:	af00      	add	r7, sp, #0
    4ae2:	6078      	str	r0, [r7, #4]
    4ae4:	687b      	ldr	r3, [r7, #4]
    4ae6:	685b      	ldr	r3, [r3, #4]
    4ae8:	687a      	ldr	r2, [r7, #4]
    4aea:	6892      	ldr	r2, [r2, #8]
    4aec:	609a      	str	r2, [r3, #8]
    4aee:	687b      	ldr	r3, [r7, #4]
    4af0:	689b      	ldr	r3, [r3, #8]
    4af2:	687a      	ldr	r2, [r7, #4]
    4af4:	6852      	ldr	r2, [r2, #4]
    4af6:	605a      	str	r2, [r3, #4]
    4af8:	687b      	ldr	r3, [r7, #4]
    4afa:	691b      	ldr	r3, [r3, #16]
    4afc:	60fb      	str	r3, [r7, #12]
    4afe:	68fb      	ldr	r3, [r7, #12]
    4b00:	685a      	ldr	r2, [r3, #4]
    4b02:	687b      	ldr	r3, [r7, #4]
    4b04:	429a      	cmp	r2, r3
    4b06:	d103      	bne.n	4b10 <vListRemove+0x34>
    4b08:	687b      	ldr	r3, [r7, #4]
    4b0a:	689a      	ldr	r2, [r3, #8]
    4b0c:	68fb      	ldr	r3, [r7, #12]
    4b0e:	605a      	str	r2, [r3, #4]
    4b10:	687b      	ldr	r3, [r7, #4]
    4b12:	f04f 0200 	mov.w	r2, #0
    4b16:	611a      	str	r2, [r3, #16]
    4b18:	68fb      	ldr	r3, [r7, #12]
    4b1a:	681b      	ldr	r3, [r3, #0]
    4b1c:	f103 32ff 	add.w	r2, r3, #4294967295
    4b20:	68fb      	ldr	r3, [r7, #12]
    4b22:	601a      	str	r2, [r3, #0]
    4b24:	f107 0714 	add.w	r7, r7, #20
    4b28:	46bd      	mov	sp, r7
    4b2a:	bc80      	pop	{r7}
    4b2c:	4770      	bx	lr
    4b2e:	bf00      	nop

00004b30 <_sbrk>:
    4b30:	b480      	push	{r7}
    4b32:	b085      	sub	sp, #20
    4b34:	af00      	add	r7, sp, #0
    4b36:	6078      	str	r0, [r7, #4]
    4b38:	f240 7394 	movw	r3, #1940	; 0x794
    4b3c:	f2c2 0300 	movt	r3, #8192	; 0x2000
    4b40:	681b      	ldr	r3, [r3, #0]
    4b42:	2b00      	cmp	r3, #0
    4b44:	d108      	bne.n	4b58 <_sbrk+0x28>
    4b46:	f642 0240 	movw	r2, #10304	; 0x2840
    4b4a:	f2c2 0200 	movt	r2, #8192	; 0x2000
    4b4e:	f240 7394 	movw	r3, #1940	; 0x794
    4b52:	f2c2 0300 	movt	r3, #8192	; 0x2000
    4b56:	601a      	str	r2, [r3, #0]
    4b58:	f240 7394 	movw	r3, #1940	; 0x794
    4b5c:	f2c2 0300 	movt	r3, #8192	; 0x2000
    4b60:	681b      	ldr	r3, [r3, #0]
    4b62:	60fb      	str	r3, [r7, #12]
    4b64:	f240 7394 	movw	r3, #1940	; 0x794
    4b68:	f2c2 0300 	movt	r3, #8192	; 0x2000
    4b6c:	681a      	ldr	r2, [r3, #0]
    4b6e:	687b      	ldr	r3, [r7, #4]
    4b70:	18d2      	adds	r2, r2, r3
    4b72:	f240 7394 	movw	r3, #1940	; 0x794
    4b76:	f2c2 0300 	movt	r3, #8192	; 0x2000
    4b7a:	601a      	str	r2, [r3, #0]
    4b7c:	68fb      	ldr	r3, [r7, #12]
    4b7e:	4618      	mov	r0, r3
    4b80:	f107 0714 	add.w	r7, r7, #20
    4b84:	46bd      	mov	sp, r7
    4b86:	bc80      	pop	{r7}
    4b88:	4770      	bx	lr
    4b8a:	bf00      	nop

00004b8c <SSIConfigSetExpClk>:
    4b8c:	b480      	push	{r7}
    4b8e:	b08b      	sub	sp, #44	; 0x2c
    4b90:	af00      	add	r7, sp, #0
    4b92:	60f8      	str	r0, [r7, #12]
    4b94:	60b9      	str	r1, [r7, #8]
    4b96:	607a      	str	r2, [r7, #4]
    4b98:	603b      	str	r3, [r7, #0]
    4b9a:	683b      	ldr	r3, [r7, #0]
    4b9c:	2b02      	cmp	r3, #2
    4b9e:	d102      	bne.n	4ba6 <SSIConfigSetExpClk+0x1a>
    4ba0:	f04f 0308 	mov.w	r3, #8
    4ba4:	e001      	b.n	4baa <SSIConfigSetExpClk+0x1e>
    4ba6:	f04f 0300 	mov.w	r3, #0
    4baa:	623b      	str	r3, [r7, #32]
    4bac:	683b      	ldr	r3, [r7, #0]
    4bae:	2b00      	cmp	r3, #0
    4bb0:	d102      	bne.n	4bb8 <SSIConfigSetExpClk+0x2c>
    4bb2:	f04f 0300 	mov.w	r3, #0
    4bb6:	e001      	b.n	4bbc <SSIConfigSetExpClk+0x30>
    4bb8:	f04f 0304 	mov.w	r3, #4
    4bbc:	6a3a      	ldr	r2, [r7, #32]
    4bbe:	ea42 0303 	orr.w	r3, r2, r3
    4bc2:	623b      	str	r3, [r7, #32]
    4bc4:	68fb      	ldr	r3, [r7, #12]
    4bc6:	f103 0304 	add.w	r3, r3, #4
    4bca:	6a3a      	ldr	r2, [r7, #32]
    4bcc:	601a      	str	r2, [r3, #0]
    4bce:	68ba      	ldr	r2, [r7, #8]
    4bd0:	6b3b      	ldr	r3, [r7, #48]	; 0x30
    4bd2:	fbb2 f3f3 	udiv	r3, r2, r3
    4bd6:	61fb      	str	r3, [r7, #28]
    4bd8:	f04f 0300 	mov.w	r3, #0
    4bdc:	627b      	str	r3, [r7, #36]	; 0x24
    4bde:	6a7b      	ldr	r3, [r7, #36]	; 0x24
    4be0:	f103 0302 	add.w	r3, r3, #2
    4be4:	627b      	str	r3, [r7, #36]	; 0x24
    4be6:	69fa      	ldr	r2, [r7, #28]
    4be8:	6a7b      	ldr	r3, [r7, #36]	; 0x24
    4bea:	fbb2 f3f3 	udiv	r3, r2, r3
    4bee:	f103 33ff 	add.w	r3, r3, #4294967295
    4bf2:	61bb      	str	r3, [r7, #24]
    4bf4:	69bb      	ldr	r3, [r7, #24]
    4bf6:	2bff      	cmp	r3, #255	; 0xff
    4bf8:	d8f1      	bhi.n	4bde <SSIConfigSetExpClk+0x52>
    4bfa:	68fb      	ldr	r3, [r7, #12]
    4bfc:	f103 0310 	add.w	r3, r3, #16
    4c00:	6a7a      	ldr	r2, [r7, #36]	; 0x24
    4c02:	601a      	str	r2, [r3, #0]
    4c04:	687b      	ldr	r3, [r7, #4]
    4c06:	ea4f 1383 	mov.w	r3, r3, lsl #6
    4c0a:	617b      	str	r3, [r7, #20]
    4c0c:	687b      	ldr	r3, [r7, #4]
    4c0e:	f003 0330 	and.w	r3, r3, #48	; 0x30
    4c12:	607b      	str	r3, [r7, #4]
    4c14:	69bb      	ldr	r3, [r7, #24]
    4c16:	ea4f 2203 	mov.w	r2, r3, lsl #8
    4c1a:	697b      	ldr	r3, [r7, #20]
    4c1c:	431a      	orrs	r2, r3
    4c1e:	687b      	ldr	r3, [r7, #4]
    4c20:	431a      	orrs	r2, r3
    4c22:	6b7b      	ldr	r3, [r7, #52]	; 0x34
    4c24:	f103 33ff 	add.w	r3, r3, #4294967295
    4c28:	ea42 0303 	orr.w	r3, r2, r3
    4c2c:	623b      	str	r3, [r7, #32]
    4c2e:	68fb      	ldr	r3, [r7, #12]
    4c30:	6a3a      	ldr	r2, [r7, #32]
    4c32:	601a      	str	r2, [r3, #0]
    4c34:	f107 072c 	add.w	r7, r7, #44	; 0x2c
    4c38:	46bd      	mov	sp, r7
    4c3a:	bc80      	pop	{r7}
    4c3c:	4770      	bx	lr
    4c3e:	bf00      	nop

00004c40 <SSIEnable>:
    4c40:	b480      	push	{r7}
    4c42:	b083      	sub	sp, #12
    4c44:	af00      	add	r7, sp, #0
    4c46:	6078      	str	r0, [r7, #4]
    4c48:	687b      	ldr	r3, [r7, #4]
    4c4a:	f103 0304 	add.w	r3, r3, #4
    4c4e:	687a      	ldr	r2, [r7, #4]
    4c50:	f102 0204 	add.w	r2, r2, #4
    4c54:	6812      	ldr	r2, [r2, #0]
    4c56:	f042 0202 	orr.w	r2, r2, #2
    4c5a:	601a      	str	r2, [r3, #0]
    4c5c:	f107 070c 	add.w	r7, r7, #12
    4c60:	46bd      	mov	sp, r7
    4c62:	bc80      	pop	{r7}
    4c64:	4770      	bx	lr
    4c66:	bf00      	nop

00004c68 <SSIDisable>:
    4c68:	b480      	push	{r7}
    4c6a:	b083      	sub	sp, #12
    4c6c:	af00      	add	r7, sp, #0
    4c6e:	6078      	str	r0, [r7, #4]
    4c70:	687b      	ldr	r3, [r7, #4]
    4c72:	f103 0304 	add.w	r3, r3, #4
    4c76:	687a      	ldr	r2, [r7, #4]
    4c78:	f102 0204 	add.w	r2, r2, #4
    4c7c:	6812      	ldr	r2, [r2, #0]
    4c7e:	f022 0202 	bic.w	r2, r2, #2
    4c82:	601a      	str	r2, [r3, #0]
    4c84:	f107 070c 	add.w	r7, r7, #12
    4c88:	46bd      	mov	sp, r7
    4c8a:	bc80      	pop	{r7}
    4c8c:	4770      	bx	lr
    4c8e:	bf00      	nop

00004c90 <SSIDataPut>:
    4c90:	b480      	push	{r7}
    4c92:	b083      	sub	sp, #12
    4c94:	af00      	add	r7, sp, #0
    4c96:	6078      	str	r0, [r7, #4]
    4c98:	6039      	str	r1, [r7, #0]
    4c9a:	bf00      	nop
    4c9c:	687b      	ldr	r3, [r7, #4]
    4c9e:	f103 030c 	add.w	r3, r3, #12
    4ca2:	681b      	ldr	r3, [r3, #0]
    4ca4:	f003 0302 	and.w	r3, r3, #2
    4ca8:	2b00      	cmp	r3, #0
    4caa:	d0f7      	beq.n	4c9c <SSIDataPut+0xc>
    4cac:	687b      	ldr	r3, [r7, #4]
    4cae:	f103 0308 	add.w	r3, r3, #8
    4cb2:	683a      	ldr	r2, [r7, #0]
    4cb4:	601a      	str	r2, [r3, #0]
    4cb6:	f107 070c 	add.w	r7, r7, #12
    4cba:	46bd      	mov	sp, r7
    4cbc:	bc80      	pop	{r7}
    4cbe:	4770      	bx	lr

00004cc0 <SSIBusy>:
    4cc0:	b480      	push	{r7}
    4cc2:	b083      	sub	sp, #12
    4cc4:	af00      	add	r7, sp, #0
    4cc6:	6078      	str	r0, [r7, #4]
    4cc8:	687b      	ldr	r3, [r7, #4]
    4cca:	f103 030c 	add.w	r3, r3, #12
    4cce:	681b      	ldr	r3, [r3, #0]
    4cd0:	f003 0310 	and.w	r3, r3, #16
    4cd4:	2b00      	cmp	r3, #0
    4cd6:	bf0c      	ite	eq
    4cd8:	2300      	moveq	r3, #0
    4cda:	2301      	movne	r3, #1
    4cdc:	b2db      	uxtb	r3, r3
    4cde:	4618      	mov	r0, r3
    4ce0:	f107 070c 	add.w	r7, r7, #12
    4ce4:	46bd      	mov	sp, r7
    4ce6:	bc80      	pop	{r7}
    4ce8:	4770      	bx	lr
    4cea:	bf00      	nop

00004cec <ADCIntStatus>:
    4cec:	b480      	push	{r7}
    4cee:	b087      	sub	sp, #28
    4cf0:	af00      	add	r7, sp, #0
    4cf2:	60f8      	str	r0, [r7, #12]
    4cf4:	60b9      	str	r1, [r7, #8]
    4cf6:	4613      	mov	r3, r2
    4cf8:	71fb      	strb	r3, [r7, #7]
    4cfa:	79fb      	ldrb	r3, [r7, #7]
    4cfc:	2b00      	cmp	r3, #0
    4cfe:	d00c      	beq.n	4d1a <ADCIntStatus+0x2e>
    4d00:	68fb      	ldr	r3, [r7, #12]
    4d02:	f103 030c 	add.w	r3, r3, #12
    4d06:	681a      	ldr	r2, [r3, #0]
    4d08:	68bb      	ldr	r3, [r7, #8]
    4d0a:	f04f 1101 	mov.w	r1, #65537	; 0x10001
    4d0e:	fa01 f303 	lsl.w	r3, r1, r3
    4d12:	ea02 0303 	and.w	r3, r2, r3
    4d16:	617b      	str	r3, [r7, #20]
    4d18:	e021      	b.n	4d5e <ADCIntStatus+0x72>
    4d1a:	68fb      	ldr	r3, [r7, #12]
    4d1c:	f103 0304 	add.w	r3, r3, #4
    4d20:	681a      	ldr	r2, [r3, #0]
    4d22:	68bb      	ldr	r3, [r7, #8]
    4d24:	f04f 0101 	mov.w	r1, #1
    4d28:	fa01 f303 	lsl.w	r3, r1, r3
    4d2c:	f443 3380 	orr.w	r3, r3, #65536	; 0x10000
    4d30:	ea02 0303 	and.w	r3, r2, r3
    4d34:	617b      	str	r3, [r7, #20]
    4d36:	697b      	ldr	r3, [r7, #20]
    4d38:	f403 3380 	and.w	r3, r3, #65536	; 0x10000
    4d3c:	2b00      	cmp	r3, #0
    4d3e:	d00e      	beq.n	4d5e <ADCIntStatus+0x72>
    4d40:	697b      	ldr	r3, [r7, #20]
    4d42:	f443 2370 	orr.w	r3, r3, #983040	; 0xf0000
    4d46:	617b      	str	r3, [r7, #20]
    4d48:	68bb      	ldr	r3, [r7, #8]
    4d4a:	f44f 3280 	mov.w	r2, #65536	; 0x10000
    4d4e:	fa02 f303 	lsl.w	r3, r2, r3
    4d52:	ea6f 0303 	mvn.w	r3, r3
    4d56:	697a      	ldr	r2, [r7, #20]
    4d58:	ea02 0303 	and.w	r3, r2, r3
    4d5c:	617b      	str	r3, [r7, #20]
    4d5e:	697b      	ldr	r3, [r7, #20]
    4d60:	4618      	mov	r0, r3
    4d62:	f107 071c 	add.w	r7, r7, #28
    4d66:	46bd      	mov	sp, r7
    4d68:	bc80      	pop	{r7}
    4d6a:	4770      	bx	lr

00004d6c <ADCIntClear>:
    4d6c:	b480      	push	{r7}
    4d6e:	b083      	sub	sp, #12
    4d70:	af00      	add	r7, sp, #0
    4d72:	6078      	str	r0, [r7, #4]
    4d74:	6039      	str	r1, [r7, #0]
    4d76:	687b      	ldr	r3, [r7, #4]
    4d78:	f103 030c 	add.w	r3, r3, #12
    4d7c:	683a      	ldr	r2, [r7, #0]
    4d7e:	f04f 0101 	mov.w	r1, #1
    4d82:	fa01 f202 	lsl.w	r2, r1, r2
    4d86:	601a      	str	r2, [r3, #0]
    4d88:	f107 070c 	add.w	r7, r7, #12
    4d8c:	46bd      	mov	sp, r7
    4d8e:	bc80      	pop	{r7}
    4d90:	4770      	bx	lr
    4d92:	bf00      	nop

00004d94 <ADCSequenceEnable>:
    4d94:	b480      	push	{r7}
    4d96:	b083      	sub	sp, #12
    4d98:	af00      	add	r7, sp, #0
    4d9a:	6078      	str	r0, [r7, #4]
    4d9c:	6039      	str	r1, [r7, #0]
    4d9e:	687b      	ldr	r3, [r7, #4]
    4da0:	687a      	ldr	r2, [r7, #4]
    4da2:	6811      	ldr	r1, [r2, #0]
    4da4:	683a      	ldr	r2, [r7, #0]
    4da6:	f04f 0001 	mov.w	r0, #1
    4daa:	fa00 f202 	lsl.w	r2, r0, r2
    4dae:	ea41 0202 	orr.w	r2, r1, r2
    4db2:	601a      	str	r2, [r3, #0]
    4db4:	f107 070c 	add.w	r7, r7, #12
    4db8:	46bd      	mov	sp, r7
    4dba:	bc80      	pop	{r7}
    4dbc:	4770      	bx	lr
    4dbe:	bf00      	nop

00004dc0 <ADCSequenceConfigure>:
    4dc0:	b480      	push	{r7}
    4dc2:	b085      	sub	sp, #20
    4dc4:	af00      	add	r7, sp, #0
    4dc6:	60f8      	str	r0, [r7, #12]
    4dc8:	60b9      	str	r1, [r7, #8]
    4dca:	607a      	str	r2, [r7, #4]
    4dcc:	603b      	str	r3, [r7, #0]
    4dce:	68bb      	ldr	r3, [r7, #8]
    4dd0:	ea4f 0383 	mov.w	r3, r3, lsl #2
    4dd4:	60bb      	str	r3, [r7, #8]
    4dd6:	68fb      	ldr	r3, [r7, #12]
    4dd8:	f103 0314 	add.w	r3, r3, #20
    4ddc:	68fa      	ldr	r2, [r7, #12]
    4dde:	f102 0214 	add.w	r2, r2, #20
    4de2:	6811      	ldr	r1, [r2, #0]
    4de4:	68ba      	ldr	r2, [r7, #8]
    4de6:	f04f 000f 	mov.w	r0, #15
    4dea:	fa00 f202 	lsl.w	r2, r0, r2
    4dee:	ea6f 0202 	mvn.w	r2, r2
    4df2:	4011      	ands	r1, r2
    4df4:	687a      	ldr	r2, [r7, #4]
    4df6:	f002 000f 	and.w	r0, r2, #15
    4dfa:	68ba      	ldr	r2, [r7, #8]
    4dfc:	fa00 f202 	lsl.w	r2, r0, r2
    4e00:	ea41 0202 	orr.w	r2, r1, r2
    4e04:	601a      	str	r2, [r3, #0]
    4e06:	68fb      	ldr	r3, [r7, #12]
    4e08:	f103 0320 	add.w	r3, r3, #32
    4e0c:	68fa      	ldr	r2, [r7, #12]
    4e0e:	f102 0220 	add.w	r2, r2, #32
    4e12:	6811      	ldr	r1, [r2, #0]
    4e14:	68ba      	ldr	r2, [r7, #8]
    4e16:	f04f 000f 	mov.w	r0, #15
    4e1a:	fa00 f202 	lsl.w	r2, r0, r2
    4e1e:	ea6f 0202 	mvn.w	r2, r2
    4e22:	4011      	ands	r1, r2
    4e24:	683a      	ldr	r2, [r7, #0]
    4e26:	f002 0003 	and.w	r0, r2, #3
    4e2a:	68ba      	ldr	r2, [r7, #8]
    4e2c:	fa00 f202 	lsl.w	r2, r0, r2
    4e30:	ea41 0202 	orr.w	r2, r1, r2
    4e34:	601a      	str	r2, [r3, #0]
    4e36:	f107 0714 	add.w	r7, r7, #20
    4e3a:	46bd      	mov	sp, r7
    4e3c:	bc80      	pop	{r7}
    4e3e:	4770      	bx	lr

00004e40 <ADCSequenceStepConfigure>:
    4e40:	b480      	push	{r7}
    4e42:	b087      	sub	sp, #28
    4e44:	af00      	add	r7, sp, #0
    4e46:	60f8      	str	r0, [r7, #12]
    4e48:	60b9      	str	r1, [r7, #8]
    4e4a:	607a      	str	r2, [r7, #4]
    4e4c:	603b      	str	r3, [r7, #0]
    4e4e:	68bb      	ldr	r3, [r7, #8]
    4e50:	f103 0302 	add.w	r3, r3, #2
    4e54:	ea4f 1343 	mov.w	r3, r3, lsl #5
    4e58:	68fa      	ldr	r2, [r7, #12]
    4e5a:	18d3      	adds	r3, r2, r3
    4e5c:	60fb      	str	r3, [r7, #12]
    4e5e:	687b      	ldr	r3, [r7, #4]
    4e60:	ea4f 0383 	mov.w	r3, r3, lsl #2
    4e64:	607b      	str	r3, [r7, #4]
    4e66:	68fb      	ldr	r3, [r7, #12]
    4e68:	68fa      	ldr	r2, [r7, #12]
    4e6a:	6811      	ldr	r1, [r2, #0]
    4e6c:	687a      	ldr	r2, [r7, #4]
    4e6e:	f04f 000f 	mov.w	r0, #15
    4e72:	fa00 f202 	lsl.w	r2, r0, r2
    4e76:	ea6f 0202 	mvn.w	r2, r2
    4e7a:	4011      	ands	r1, r2
    4e7c:	683a      	ldr	r2, [r7, #0]
    4e7e:	f002 000f 	and.w	r0, r2, #15
    4e82:	687a      	ldr	r2, [r7, #4]
    4e84:	fa00 f202 	lsl.w	r2, r0, r2
    4e88:	ea41 0202 	orr.w	r2, r1, r2
    4e8c:	601a      	str	r2, [r3, #0]
    4e8e:	68fb      	ldr	r3, [r7, #12]
    4e90:	f103 0304 	add.w	r3, r3, #4
    4e94:	68fa      	ldr	r2, [r7, #12]
    4e96:	f102 0204 	add.w	r2, r2, #4
    4e9a:	6811      	ldr	r1, [r2, #0]
    4e9c:	687a      	ldr	r2, [r7, #4]
    4e9e:	f04f 000f 	mov.w	r0, #15
    4ea2:	fa00 f202 	lsl.w	r2, r0, r2
    4ea6:	ea6f 0202 	mvn.w	r2, r2
    4eaa:	4011      	ands	r1, r2
    4eac:	683a      	ldr	r2, [r7, #0]
    4eae:	f002 02f0 	and.w	r2, r2, #240	; 0xf0
    4eb2:	ea4f 1012 	mov.w	r0, r2, lsr #4
    4eb6:	687a      	ldr	r2, [r7, #4]
    4eb8:	fa00 f202 	lsl.w	r2, r0, r2
    4ebc:	ea41 0202 	orr.w	r2, r1, r2
    4ec0:	601a      	str	r2, [r3, #0]
    4ec2:	683b      	ldr	r3, [r7, #0]
    4ec4:	f403 2370 	and.w	r3, r3, #983040	; 0xf0000
    4ec8:	2b00      	cmp	r3, #0
    4eca:	d034      	beq.n	4f36 <ADCSequenceStepConfigure+0xf6>
    4ecc:	68fb      	ldr	r3, [r7, #12]
    4ece:	f103 0314 	add.w	r3, r3, #20
    4ed2:	681b      	ldr	r3, [r3, #0]
    4ed4:	617b      	str	r3, [r7, #20]
    4ed6:	687b      	ldr	r3, [r7, #4]
    4ed8:	f04f 020f 	mov.w	r2, #15
    4edc:	fa02 f303 	lsl.w	r3, r2, r3
    4ee0:	ea6f 0303 	mvn.w	r3, r3
    4ee4:	697a      	ldr	r2, [r7, #20]
    4ee6:	ea02 0303 	and.w	r3, r2, r3
    4eea:	617b      	str	r3, [r7, #20]
    4eec:	683b      	ldr	r3, [r7, #0]
    4eee:	f403 23e0 	and.w	r3, r3, #458752	; 0x70000
    4ef2:	ea4f 4213 	mov.w	r2, r3, lsr #16
    4ef6:	687b      	ldr	r3, [r7, #4]
    4ef8:	fa02 f303 	lsl.w	r3, r2, r3
    4efc:	697a      	ldr	r2, [r7, #20]
    4efe:	ea42 0303 	orr.w	r3, r2, r3
    4f02:	617b      	str	r3, [r7, #20]
    4f04:	68fb      	ldr	r3, [r7, #12]
    4f06:	f103 0314 	add.w	r3, r3, #20
    4f0a:	697a      	ldr	r2, [r7, #20]
    4f0c:	601a      	str	r2, [r3, #0]
    4f0e:	68fb      	ldr	r3, [r7, #12]
    4f10:	f103 0310 	add.w	r3, r3, #16
    4f14:	681b      	ldr	r3, [r3, #0]
    4f16:	617b      	str	r3, [r7, #20]
    4f18:	687b      	ldr	r3, [r7, #4]
    4f1a:	f04f 0201 	mov.w	r2, #1
    4f1e:	fa02 f303 	lsl.w	r3, r2, r3
    4f22:	697a      	ldr	r2, [r7, #20]
    4f24:	ea42 0303 	orr.w	r3, r2, r3
    4f28:	617b      	str	r3, [r7, #20]
    4f2a:	68fb      	ldr	r3, [r7, #12]
    4f2c:	f103 0310 	add.w	r3, r3, #16
    4f30:	697a      	ldr	r2, [r7, #20]
    4f32:	601a      	str	r2, [r3, #0]
    4f34:	e014      	b.n	4f60 <ADCSequenceStepConfigure+0x120>
    4f36:	68fb      	ldr	r3, [r7, #12]
    4f38:	f103 0310 	add.w	r3, r3, #16
    4f3c:	681b      	ldr	r3, [r3, #0]
    4f3e:	617b      	str	r3, [r7, #20]
    4f40:	687b      	ldr	r3, [r7, #4]
    4f42:	f04f 0201 	mov.w	r2, #1
    4f46:	fa02 f303 	lsl.w	r3, r2, r3
    4f4a:	ea6f 0303 	mvn.w	r3, r3
    4f4e:	697a      	ldr	r2, [r7, #20]
    4f50:	ea02 0303 	and.w	r3, r2, r3
    4f54:	617b      	str	r3, [r7, #20]
    4f56:	68fb      	ldr	r3, [r7, #12]
    4f58:	f103 0310 	add.w	r3, r3, #16
    4f5c:	697a      	ldr	r2, [r7, #20]
    4f5e:	601a      	str	r2, [r3, #0]
    4f60:	f107 071c 	add.w	r7, r7, #28
    4f64:	46bd      	mov	sp, r7
    4f66:	bc80      	pop	{r7}
    4f68:	4770      	bx	lr
    4f6a:	bf00      	nop

00004f6c <ADCSequenceDataGet>:
    4f6c:	b480      	push	{r7}
    4f6e:	b087      	sub	sp, #28
    4f70:	af00      	add	r7, sp, #0
    4f72:	60f8      	str	r0, [r7, #12]
    4f74:	60b9      	str	r1, [r7, #8]
    4f76:	607a      	str	r2, [r7, #4]
    4f78:	68bb      	ldr	r3, [r7, #8]
    4f7a:	f103 0302 	add.w	r3, r3, #2
    4f7e:	ea4f 1343 	mov.w	r3, r3, lsl #5
    4f82:	68fa      	ldr	r2, [r7, #12]
    4f84:	18d3      	adds	r3, r2, r3
    4f86:	60fb      	str	r3, [r7, #12]
    4f88:	f04f 0300 	mov.w	r3, #0
    4f8c:	617b      	str	r3, [r7, #20]
    4f8e:	e00d      	b.n	4fac <ADCSequenceDataGet+0x40>
    4f90:	68fb      	ldr	r3, [r7, #12]
    4f92:	f103 0308 	add.w	r3, r3, #8
    4f96:	681a      	ldr	r2, [r3, #0]
    4f98:	687b      	ldr	r3, [r7, #4]
    4f9a:	601a      	str	r2, [r3, #0]
    4f9c:	687b      	ldr	r3, [r7, #4]
    4f9e:	f103 0304 	add.w	r3, r3, #4
    4fa2:	607b      	str	r3, [r7, #4]
    4fa4:	697b      	ldr	r3, [r7, #20]
    4fa6:	f103 0301 	add.w	r3, r3, #1
    4faa:	617b      	str	r3, [r7, #20]
    4fac:	68fb      	ldr	r3, [r7, #12]
    4fae:	f103 030c 	add.w	r3, r3, #12
    4fb2:	681b      	ldr	r3, [r3, #0]
    4fb4:	f403 7380 	and.w	r3, r3, #256	; 0x100
    4fb8:	2b00      	cmp	r3, #0
    4fba:	d102      	bne.n	4fc2 <ADCSequenceDataGet+0x56>
    4fbc:	697b      	ldr	r3, [r7, #20]
    4fbe:	2b07      	cmp	r3, #7
    4fc0:	d9e6      	bls.n	4f90 <ADCSequenceDataGet+0x24>
    4fc2:	697b      	ldr	r3, [r7, #20]
    4fc4:	4618      	mov	r0, r3
    4fc6:	f107 071c 	add.w	r7, r7, #28
    4fca:	46bd      	mov	sp, r7
    4fcc:	bc80      	pop	{r7}
    4fce:	4770      	bx	lr

00004fd0 <ADCProcessorTrigger>:
    4fd0:	b480      	push	{r7}
    4fd2:	b083      	sub	sp, #12
    4fd4:	af00      	add	r7, sp, #0
    4fd6:	6078      	str	r0, [r7, #4]
    4fd8:	6039      	str	r1, [r7, #0]
    4fda:	687b      	ldr	r3, [r7, #4]
    4fdc:	f103 0328 	add.w	r3, r3, #40	; 0x28
    4fe0:	683a      	ldr	r2, [r7, #0]
    4fe2:	f04f 0101 	mov.w	r1, #1
    4fe6:	fa01 f202 	lsl.w	r2, r1, r2
    4fea:	601a      	str	r2, [r3, #0]
    4fec:	f107 070c 	add.w	r7, r7, #12
    4ff0:	46bd      	mov	sp, r7
    4ff2:	bc80      	pop	{r7}
    4ff4:	4770      	bx	lr
    4ff6:	bf00      	nop

00004ff8 <pxPortInitialiseStack>:
    4ff8:	b480      	push	{r7}
    4ffa:	b085      	sub	sp, #20
    4ffc:	af00      	add	r7, sp, #0
    4ffe:	60f8      	str	r0, [r7, #12]
    5000:	60b9      	str	r1, [r7, #8]
    5002:	607a      	str	r2, [r7, #4]
    5004:	68fb      	ldr	r3, [r7, #12]
    5006:	f1a3 0304 	sub.w	r3, r3, #4
    500a:	60fb      	str	r3, [r7, #12]
    500c:	68fb      	ldr	r3, [r7, #12]
    500e:	f04f 7280 	mov.w	r2, #16777216	; 0x1000000
    5012:	601a      	str	r2, [r3, #0]
    5014:	68fb      	ldr	r3, [r7, #12]
    5016:	f1a3 0304 	sub.w	r3, r3, #4
    501a:	60fb      	str	r3, [r7, #12]
    501c:	68ba      	ldr	r2, [r7, #8]
    501e:	68fb      	ldr	r3, [r7, #12]
    5020:	601a      	str	r2, [r3, #0]
    5022:	68fb      	ldr	r3, [r7, #12]
    5024:	f1a3 0304 	sub.w	r3, r3, #4
    5028:	60fb      	str	r3, [r7, #12]
    502a:	68fb      	ldr	r3, [r7, #12]
    502c:	f04f 0200 	mov.w	r2, #0
    5030:	601a      	str	r2, [r3, #0]
    5032:	68fb      	ldr	r3, [r7, #12]
    5034:	f1a3 0314 	sub.w	r3, r3, #20
    5038:	60fb      	str	r3, [r7, #12]
    503a:	687a      	ldr	r2, [r7, #4]
    503c:	68fb      	ldr	r3, [r7, #12]
    503e:	601a      	str	r2, [r3, #0]
    5040:	68fb      	ldr	r3, [r7, #12]
    5042:	f1a3 0320 	sub.w	r3, r3, #32
    5046:	60fb      	str	r3, [r7, #12]
    5048:	68fb      	ldr	r3, [r7, #12]
    504a:	4618      	mov	r0, r3
    504c:	f107 0714 	add.w	r7, r7, #20
    5050:	46bd      	mov	sp, r7
    5052:	bc80      	pop	{r7}
    5054:	4770      	bx	lr
    5056:	bf00      	nop

00005058 <vPortSVCHandler>:
    5058:	4b06      	ldr	r3, [pc, #24]	; (5074 <pxCurrentTCBConst2>)
    505a:	6819      	ldr	r1, [r3, #0]
    505c:	6808      	ldr	r0, [r1, #0]
    505e:	e8b0 0ff0 	ldmia.w	r0!, {r4, r5, r6, r7, r8, r9, sl, fp}
    5062:	f380 8809 	msr	PSP, r0
    5066:	f04f 0000 	mov.w	r0, #0
    506a:	f380 8811 	msr	BASEPRI, r0
    506e:	f04e 0e0d 	orr.w	lr, lr, #13
    5072:	4770      	bx	lr

00005074 <pxCurrentTCBConst2>:
    5074:	20000664 	.word	0x20000664

00005078 <vPortStartFirstTask>:
    5078:	4803      	ldr	r0, [pc, #12]	; (5088 <vPortStartFirstTask+0x10>)
    507a:	6800      	ldr	r0, [r0, #0]
    507c:	6800      	ldr	r0, [r0, #0]
    507e:	f380 8808 	msr	MSP, r0
    5082:	b662      	cpsie	i
    5084:	df00      	svc	0
    5086:	bf00      	nop
    5088:	e000ed08 	.word	0xe000ed08

0000508c <xPortStartScheduler>:
    508c:	b580      	push	{r7, lr}
    508e:	af00      	add	r7, sp, #0
    5090:	f64e 5320 	movw	r3, #60704	; 0xed20
    5094:	f2ce 0300 	movt	r3, #57344	; 0xe000
    5098:	f64e 5220 	movw	r2, #60704	; 0xed20
    509c:	f2ce 0200 	movt	r2, #57344	; 0xe000
    50a0:	6812      	ldr	r2, [r2, #0]
    50a2:	f442 0260 	orr.w	r2, r2, #14680064	; 0xe00000
    50a6:	601a      	str	r2, [r3, #0]
    50a8:	f64e 5320 	movw	r3, #60704	; 0xed20
    50ac:	f2ce 0300 	movt	r3, #57344	; 0xe000
    50b0:	f64e 5220 	movw	r2, #60704	; 0xed20
    50b4:	f2ce 0200 	movt	r2, #57344	; 0xe000
    50b8:	6812      	ldr	r2, [r2, #0]
    50ba:	f042 4260 	orr.w	r2, r2, #3758096384	; 0xe0000000
    50be:	601a      	str	r2, [r3, #0]
    50c0:	f000 f89e 	bl	5200 <prvSetupTimerInterrupt>
    50c4:	f240 0358 	movw	r3, #88	; 0x58
    50c8:	f2c2 0300 	movt	r3, #8192	; 0x2000
    50cc:	f04f 0200 	mov.w	r2, #0
    50d0:	601a      	str	r2, [r3, #0]
    50d2:	f7ff ffd1 	bl	5078 <vPortStartFirstTask>
    50d6:	f04f 0300 	mov.w	r3, #0
    50da:	4618      	mov	r0, r3
    50dc:	bd80      	pop	{r7, pc}
    50de:	bf00      	nop

000050e0 <vPortYieldFromISR>:
    50e0:	b480      	push	{r7}
    50e2:	af00      	add	r7, sp, #0
    50e4:	f64e 5304 	movw	r3, #60676	; 0xed04
    50e8:	f2ce 0300 	movt	r3, #57344	; 0xe000
    50ec:	f04f 5280 	mov.w	r2, #268435456	; 0x10000000
    50f0:	601a      	str	r2, [r3, #0]
    50f2:	46bd      	mov	sp, r7
    50f4:	bc80      	pop	{r7}
    50f6:	4770      	bx	lr

000050f8 <vPortEnterCritical>:
    50f8:	b480      	push	{r7}
    50fa:	af00      	add	r7, sp, #0
    50fc:	f04f 00a0 	mov.w	r0, #160	; 0xa0
    5100:	f380 8811 	msr	BASEPRI, r0
    5104:	f240 0358 	movw	r3, #88	; 0x58
    5108:	f2c2 0300 	movt	r3, #8192	; 0x2000
    510c:	681b      	ldr	r3, [r3, #0]
    510e:	f103 0201 	add.w	r2, r3, #1
    5112:	f240 0358 	movw	r3, #88	; 0x58
    5116:	f2c2 0300 	movt	r3, #8192	; 0x2000
    511a:	601a      	str	r2, [r3, #0]
    511c:	46bd      	mov	sp, r7
    511e:	bc80      	pop	{r7}
    5120:	4770      	bx	lr
    5122:	bf00      	nop

00005124 <vPortExitCritical>:
    5124:	b480      	push	{r7}
    5126:	af00      	add	r7, sp, #0
    5128:	f240 0358 	movw	r3, #88	; 0x58
    512c:	f2c2 0300 	movt	r3, #8192	; 0x2000
    5130:	681b      	ldr	r3, [r3, #0]
    5132:	f103 32ff 	add.w	r2, r3, #4294967295
    5136:	f240 0358 	movw	r3, #88	; 0x58
    513a:	f2c2 0300 	movt	r3, #8192	; 0x2000
    513e:	601a      	str	r2, [r3, #0]
    5140:	f240 0358 	movw	r3, #88	; 0x58
    5144:	f2c2 0300 	movt	r3, #8192	; 0x2000
    5148:	681b      	ldr	r3, [r3, #0]
    514a:	2b00      	cmp	r3, #0
    514c:	d103      	bne.n	5156 <vPortExitCritical+0x32>
    514e:	f04f 0000 	mov.w	r0, #0
    5152:	f380 8811 	msr	BASEPRI, r0
    5156:	46bd      	mov	sp, r7
    5158:	bc80      	pop	{r7}
    515a:	4770      	bx	lr

0000515c <xPortPendSVHandler>:
    515c:	f3ef 8009 	mrs	r0, PSP
    5160:	4b0c      	ldr	r3, [pc, #48]	; (5194 <pxCurrentTCBConst>)
    5162:	681a      	ldr	r2, [r3, #0]
    5164:	e920 0ff0 	stmdb	r0!, {r4, r5, r6, r7, r8, r9, sl, fp}
    5168:	6010      	str	r0, [r2, #0]
    516a:	e92d 4008 	stmdb	sp!, {r3, lr}
    516e:	f04f 00a0 	mov.w	r0, #160	; 0xa0
    5172:	f380 8811 	msr	BASEPRI, r0
    5176:	f7fe fae9 	bl	374c <vTaskSwitchContext>
    517a:	f04f 0000 	mov.w	r0, #0
    517e:	f380 8811 	msr	BASEPRI, r0
    5182:	e8bd 4008 	ldmia.w	sp!, {r3, lr}
    5186:	6819      	ldr	r1, [r3, #0]
    5188:	6808      	ldr	r0, [r1, #0]
    518a:	e8b0 0ff0 	ldmia.w	r0!, {r4, r5, r6, r7, r8, r9, sl, fp}
    518e:	f380 8809 	msr	PSP, r0
    5192:	4770      	bx	lr

00005194 <pxCurrentTCBConst>:
    5194:	20000664 	.word	0x20000664

00005198 <xPortSysTickHandler>:
    5198:	b580      	push	{r7, lr}
    519a:	b082      	sub	sp, #8
    519c:	af00      	add	r7, sp, #0
    519e:	f240 6314 	movw	r3, #1556	; 0x614
    51a2:	f2c2 0300 	movt	r3, #8192	; 0x2000
    51a6:	681b      	ldr	r3, [r3, #0]
    51a8:	f103 0201 	add.w	r2, r3, #1
    51ac:	f240 6314 	movw	r3, #1556	; 0x614
    51b0:	f2c2 0300 	movt	r3, #8192	; 0x2000
    51b4:	601a      	str	r2, [r3, #0]
    51b6:	f641 33bc 	movw	r3, #7100	; 0x1bbc
    51ba:	f2c2 0300 	movt	r3, #8192	; 0x2000
    51be:	681b      	ldr	r3, [r3, #0]
    51c0:	f103 0201 	add.w	r2, r3, #1
    51c4:	f641 33bc 	movw	r3, #7100	; 0x1bbc
    51c8:	f2c2 0300 	movt	r3, #8192	; 0x2000
    51cc:	601a      	str	r2, [r3, #0]
    51ce:	f64e 5304 	movw	r3, #60676	; 0xed04
    51d2:	f2ce 0300 	movt	r3, #57344	; 0xe000
    51d6:	f04f 5280 	mov.w	r2, #268435456	; 0x10000000
    51da:	601a      	str	r2, [r3, #0]
    51dc:	f04f 0300 	mov.w	r3, #0
    51e0:	607b      	str	r3, [r7, #4]
    51e2:	f04f 00a0 	mov.w	r0, #160	; 0xa0
    51e6:	f380 8811 	msr	BASEPRI, r0
    51ea:	f7fe f9d3 	bl	3594 <vTaskIncrementTick>
    51ee:	f04f 0000 	mov.w	r0, #0
    51f2:	f380 8811 	msr	BASEPRI, r0
    51f6:	f107 0708 	add.w	r7, r7, #8
    51fa:	46bd      	mov	sp, r7
    51fc:	bd80      	pop	{r7, pc}
    51fe:	bf00      	nop

00005200 <prvSetupTimerInterrupt>:
    5200:	b480      	push	{r7}
    5202:	af00      	add	r7, sp, #0
    5204:	f24e 0314 	movw	r3, #57364	; 0xe014
    5208:	f2ce 0300 	movt	r3, #57344	; 0xe000
    520c:	f641 723f 	movw	r2, #7999	; 0x1f3f
    5210:	601a      	str	r2, [r3, #0]
    5212:	f24e 0310 	movw	r3, #57360	; 0xe010
    5216:	f2ce 0300 	movt	r3, #57344	; 0xe000
    521a:	f04f 0207 	mov.w	r2, #7
    521e:	601a      	str	r2, [r3, #0]
    5220:	46bd      	mov	sp, r7
    5222:	bc80      	pop	{r7}
    5224:	4770      	bx	lr
    5226:	bf00      	nop

00005228 <PWM_GENERICO_salida_init>:
    5228:	b580      	push	{r7, lr}
    522a:	b084      	sub	sp, #16
    522c:	af00      	add	r7, sp, #0
    522e:	6078      	str	r0, [r7, #4]
    5230:	6039      	str	r1, [r7, #0]
    5232:	f44f 10a0 	mov.w	r0, #1310720	; 0x140000
    5236:	f7fd fa5f 	bl	26f8 <SysCtlPWMClockSet>
    523a:	f04f 1010 	mov.w	r0, #1048592	; 0x100010
    523e:	f7fc ff21 	bl	2084 <SysCtlPeripheralEnable>
    5242:	687b      	ldr	r3, [r7, #4]
    5244:	2b05      	cmp	r3, #5
    5246:	f200 80b1 	bhi.w	53ac <PWM_GENERICO_salida_init+0x184>
    524a:	a201      	add	r2, pc, #4	; (adr r2, 5250 <PWM_GENERICO_salida_init+0x28>)
    524c:	f852 f023 	ldr.w	pc, [r2, r3, lsl #2]
    5250:	00005269 	.word	0x00005269
    5254:	0000529f 	.word	0x0000529f
    5258:	000052d5 	.word	0x000052d5
    525c:	0000530b 	.word	0x0000530b
    5260:	00005341 	.word	0x00005341
    5264:	00005377 	.word	0x00005377
    5268:	f04f 0020 	mov.w	r0, #32
    526c:	f2c2 0000 	movt	r0, #8192	; 0x2000
    5270:	f7fc ff08 	bl	2084 <SysCtlPeripheralEnable>
    5274:	f44f 40a0 	mov.w	r0, #20480	; 0x5000
    5278:	f2c4 0002 	movt	r0, #16386	; 0x4002
    527c:	f04f 0101 	mov.w	r1, #1
    5280:	f7fd fcfa 	bl	2c78 <GPIOPinTypePWM>
    5284:	f04f 0340 	mov.w	r3, #64	; 0x40
    5288:	60fb      	str	r3, [r7, #12]
    528a:	68fb      	ldr	r3, [r7, #12]
    528c:	f44f 4000 	mov.w	r0, #32768	; 0x8000
    5290:	f2c4 0002 	movt	r0, #16386	; 0x4002
    5294:	4619      	mov	r1, r3
    5296:	683a      	ldr	r2, [r7, #0]
    5298:	f7fc f8d0 	bl	143c <PWMGenPeriodSet>
    529c:	e086      	b.n	53ac <PWM_GENERICO_salida_init+0x184>
    529e:	f04f 0040 	mov.w	r0, #64	; 0x40
    52a2:	f2c2 0000 	movt	r0, #8192	; 0x2000
    52a6:	f7fc feed 	bl	2084 <SysCtlPeripheralEnable>
    52aa:	f44f 40c0 	mov.w	r0, #24576	; 0x6000
    52ae:	f2c4 0002 	movt	r0, #16386	; 0x4002
    52b2:	f04f 0102 	mov.w	r1, #2
    52b6:	f7fd fcdf 	bl	2c78 <GPIOPinTypePWM>
    52ba:	f04f 0340 	mov.w	r3, #64	; 0x40
    52be:	60fb      	str	r3, [r7, #12]
    52c0:	68fb      	ldr	r3, [r7, #12]
    52c2:	f44f 4000 	mov.w	r0, #32768	; 0x8000
    52c6:	f2c4 0002 	movt	r0, #16386	; 0x4002
    52ca:	4619      	mov	r1, r3
    52cc:	683a      	ldr	r2, [r7, #0]
    52ce:	f7fc f8b5 	bl	143c <PWMGenPeriodSet>
    52d2:	e06b      	b.n	53ac <PWM_GENERICO_salida_init+0x184>
    52d4:	f04f 0002 	mov.w	r0, #2
    52d8:	f2c2 0000 	movt	r0, #8192	; 0x2000
    52dc:	f7fc fed2 	bl	2084 <SysCtlPeripheralEnable>
    52e0:	f44f 40a0 	mov.w	r0, #20480	; 0x5000
    52e4:	f2c4 0000 	movt	r0, #16384	; 0x4000
    52e8:	f04f 0101 	mov.w	r1, #1
    52ec:	f7fd fcc4 	bl	2c78 <GPIOPinTypePWM>
    52f0:	f04f 0380 	mov.w	r3, #128	; 0x80
    52f4:	60fb      	str	r3, [r7, #12]
    52f6:	68fb      	ldr	r3, [r7, #12]
    52f8:	f44f 4000 	mov.w	r0, #32768	; 0x8000
    52fc:	f2c4 0002 	movt	r0, #16386	; 0x4002
    5300:	4619      	mov	r1, r3
    5302:	683a      	ldr	r2, [r7, #0]
    5304:	f7fc f89a 	bl	143c <PWMGenPeriodSet>
    5308:	e050      	b.n	53ac <PWM_GENERICO_salida_init+0x184>
    530a:	f04f 0002 	mov.w	r0, #2
    530e:	f2c2 0000 	movt	r0, #8192	; 0x2000
    5312:	f7fc feb7 	bl	2084 <SysCtlPeripheralEnable>
    5316:	f44f 40a0 	mov.w	r0, #20480	; 0x5000
    531a:	f2c4 0000 	movt	r0, #16384	; 0x4000
    531e:	f04f 0102 	mov.w	r1, #2
    5322:	f7fd fca9 	bl	2c78 <GPIOPinTypePWM>
    5326:	f04f 0380 	mov.w	r3, #128	; 0x80
    532a:	60fb      	str	r3, [r7, #12]
    532c:	68fb      	ldr	r3, [r7, #12]
    532e:	f44f 4000 	mov.w	r0, #32768	; 0x8000
    5332:	f2c4 0002 	movt	r0, #16386	; 0x4002
    5336:	4619      	mov	r1, r3
    5338:	683a      	ldr	r2, [r7, #0]
    533a:	f7fc f87f 	bl	143c <PWMGenPeriodSet>
    533e:	e035      	b.n	53ac <PWM_GENERICO_salida_init+0x184>
    5340:	f04f 0010 	mov.w	r0, #16
    5344:	f2c2 0000 	movt	r0, #8192	; 0x2000
    5348:	f7fc fe9c 	bl	2084 <SysCtlPeripheralEnable>
    534c:	f44f 4080 	mov.w	r0, #16384	; 0x4000
    5350:	f2c4 0002 	movt	r0, #16386	; 0x4002
    5354:	f04f 0101 	mov.w	r1, #1
    5358:	f7fd fc8e 	bl	2c78 <GPIOPinTypePWM>
    535c:	f04f 03c0 	mov.w	r3, #192	; 0xc0
    5360:	60fb      	str	r3, [r7, #12]
    5362:	68fb      	ldr	r3, [r7, #12]
    5364:	f44f 4000 	mov.w	r0, #32768	; 0x8000
    5368:	f2c4 0002 	movt	r0, #16386	; 0x4002
    536c:	4619      	mov	r1, r3
    536e:	683a      	ldr	r2, [r7, #0]
    5370:	f7fc f864 	bl	143c <PWMGenPeriodSet>
    5374:	e01a      	b.n	53ac <PWM_GENERICO_salida_init+0x184>
    5376:	f04f 0010 	mov.w	r0, #16
    537a:	f2c2 0000 	movt	r0, #8192	; 0x2000
    537e:	f7fc fe81 	bl	2084 <SysCtlPeripheralEnable>
    5382:	f44f 4080 	mov.w	r0, #16384	; 0x4000
    5386:	f2c4 0002 	movt	r0, #16386	; 0x4002
    538a:	f04f 0102 	mov.w	r1, #2
    538e:	f7fd fc73 	bl	2c78 <GPIOPinTypePWM>
    5392:	f04f 03c0 	mov.w	r3, #192	; 0xc0
    5396:	60fb      	str	r3, [r7, #12]
    5398:	68fb      	ldr	r3, [r7, #12]
    539a:	f44f 4000 	mov.w	r0, #32768	; 0x8000
    539e:	f2c4 0002 	movt	r0, #16386	; 0x4002
    53a2:	4619      	mov	r1, r3
    53a4:	683a      	ldr	r2, [r7, #0]
    53a6:	f7fc f849 	bl	143c <PWMGenPeriodSet>
    53aa:	bf00      	nop
    53ac:	68fb      	ldr	r3, [r7, #12]
    53ae:	f44f 4000 	mov.w	r0, #32768	; 0x8000
    53b2:	f2c4 0002 	movt	r0, #16386	; 0x4002
    53b6:	4619      	mov	r1, r3
    53b8:	f04f 0202 	mov.w	r2, #2
    53bc:	f7fc f804 	bl	13c8 <PWMGenConfigure>
    53c0:	68fb      	ldr	r3, [r7, #12]
    53c2:	f44f 4000 	mov.w	r0, #32768	; 0x8000
    53c6:	f2c4 0002 	movt	r0, #16386	; 0x4002
    53ca:	4619      	mov	r1, r3
    53cc:	f7fc f85a 	bl	1484 <PWMGenEnable>
    53d0:	f107 0710 	add.w	r7, r7, #16
    53d4:	46bd      	mov	sp, r7
    53d6:	bd80      	pop	{r7, pc}

000053d8 <PWM_GENERICO_cambiar_anchura_pulso>:
    53d8:	b590      	push	{r4, r7, lr}
    53da:	b085      	sub	sp, #20
    53dc:	af00      	add	r7, sp, #0
    53de:	60f8      	str	r0, [r7, #12]
    53e0:	60b9      	str	r1, [r7, #8]
    53e2:	607a      	str	r2, [r7, #4]
    53e4:	f240 035c 	movw	r3, #92	; 0x5c
    53e8:	f2c2 0300 	movt	r3, #8192	; 0x2000
    53ec:	68ba      	ldr	r2, [r7, #8]
    53ee:	f853 4022 	ldr.w	r4, [r3, r2, lsl #2]
    53f2:	6878      	ldr	r0, [r7, #4]
    53f4:	f001 f9a4 	bl	6740 <__aeabi_ui2f>
    53f8:	4603      	mov	r3, r0
    53fa:	4618      	mov	r0, r3
    53fc:	68f9      	ldr	r1, [r7, #12]
    53fe:	f001 f9f7 	bl	67f0 <__aeabi_fmul>
    5402:	4603      	mov	r3, r0
    5404:	4618      	mov	r0, r3
    5406:	f001 fbb9 	bl	6b7c <__aeabi_f2uiz>
    540a:	4603      	mov	r3, r0
    540c:	f44f 4000 	mov.w	r0, #32768	; 0x8000
    5410:	f2c4 0002 	movt	r0, #16386	; 0x4002
    5414:	4621      	mov	r1, r4
    5416:	461a      	mov	r2, r3
    5418:	f7fc f848 	bl	14ac <PWMPulseWidthSet>
    541c:	f240 0374 	movw	r3, #116	; 0x74
    5420:	f2c2 0300 	movt	r3, #8192	; 0x2000
    5424:	68ba      	ldr	r2, [r7, #8]
    5426:	f853 3022 	ldr.w	r3, [r3, r2, lsl #2]
    542a:	f44f 4000 	mov.w	r0, #32768	; 0x8000
    542e:	f2c4 0002 	movt	r0, #16386	; 0x4002
    5432:	4619      	mov	r1, r3
    5434:	f04f 0201 	mov.w	r2, #1
    5438:	f7fc f86e 	bl	1518 <PWMOutputState>
    543c:	f107 0714 	add.w	r7, r7, #20
    5440:	46bd      	mov	sp, r7
    5442:	bd90      	pop	{r4, r7, pc}

00005444 <vTask_Display>:
    5444:	b580      	push	{r7, lr}
    5446:	b084      	sub	sp, #16
    5448:	af00      	add	r7, sp, #0
    544a:	6078      	str	r0, [r7, #4]
    544c:	687b      	ldr	r3, [r7, #4]
    544e:	60fb      	str	r3, [r7, #12]
    5450:	f7fe f88c 	bl	356c <xTaskGetTickCount>
    5454:	4603      	mov	r3, r0
    5456:	60bb      	str	r3, [r7, #8]
    5458:	f7fd fc42 	bl	2ce0 <DISPLAY_inicializar>
    545c:	f000 f94e 	bl	56fc <initConsole>
    5460:	f240 631c 	movw	r3, #1564	; 0x61c
    5464:	f2c2 0300 	movt	r3, #8192	; 0x2000
    5468:	681b      	ldr	r3, [r3, #0]
    546a:	4618      	mov	r0, r3
    546c:	f7fd fcc2 	bl	2df4 <DISPLAY_indicar_estado>
    5470:	f240 6320 	movw	r3, #1568	; 0x620
    5474:	f2c2 0300 	movt	r3, #8192	; 0x2000
    5478:	681b      	ldr	r3, [r3, #0]
    547a:	2b01      	cmp	r3, #1
    547c:	d101      	bne.n	5482 <vTask_Display+0x3e>
    547e:	f7fd fd27 	bl	2ed0 <DISPLAY_peticion_seguimiento>
    5482:	f240 631c 	movw	r3, #1564	; 0x61c
    5486:	f2c2 0300 	movt	r3, #8192	; 0x2000
    548a:	681b      	ldr	r3, [r3, #0]
    548c:	2b00      	cmp	r3, #0
    548e:	d117      	bne.n	54c0 <vTask_Display+0x7c>
    5490:	f24d 005c 	movw	r0, #53340	; 0xd05c
    5494:	f2c0 0000 	movt	r0, #0
    5498:	f04f 0103 	mov.w	r1, #3
    549c:	f7fc fc52 	bl	1d44 <FRAME_BUFFER_change_text>
    54a0:	f24d 005c 	movw	r0, #53340	; 0xd05c
    54a4:	f2c0 0000 	movt	r0, #0
    54a8:	f04f 0104 	mov.w	r1, #4
    54ac:	f7fc fc4a 	bl	1d44 <FRAME_BUFFER_change_text>
    54b0:	f24d 0068 	movw	r0, #53352	; 0xd068
    54b4:	f2c0 0000 	movt	r0, #0
    54b8:	f04f 0105 	mov.w	r1, #5
    54bc:	f7fc fc42 	bl	1d44 <FRAME_BUFFER_change_text>
    54c0:	f240 6350 	movw	r3, #1616	; 0x650
    54c4:	f2c2 0300 	movt	r3, #8192	; 0x2000
    54c8:	681b      	ldr	r3, [r3, #0]
    54ca:	4618      	mov	r0, r3
    54cc:	f000 fd44 	bl	5f58 <__aeabi_f2d>
    54d0:	4602      	mov	r2, r0
    54d2:	460b      	mov	r3, r1
    54d4:	f242 2034 	movw	r0, #8756	; 0x2234
    54d8:	f2c2 0000 	movt	r0, #8192	; 0x2000
    54dc:	f24d 0178 	movw	r1, #53368	; 0xd078
    54e0:	f2c0 0100 	movt	r1, #0
    54e4:	f001 fc8e 	bl	6e04 <sprintf>
    54e8:	f242 2034 	movw	r0, #8756	; 0x2234
    54ec:	f2c2 0000 	movt	r0, #8192	; 0x2000
    54f0:	f04f 0107 	mov.w	r1, #7
    54f4:	f7fc fc26 	bl	1d44 <FRAME_BUFFER_change_text>
    54f8:	f240 635c 	movw	r3, #1628	; 0x65c
    54fc:	f2c2 0300 	movt	r3, #8192	; 0x2000
    5500:	681b      	ldr	r3, [r3, #0]
    5502:	4618      	mov	r0, r3
    5504:	f000 fd28 	bl	5f58 <__aeabi_f2d>
    5508:	4602      	mov	r2, r0
    550a:	460b      	mov	r3, r1
    550c:	f242 1034 	movw	r0, #8500	; 0x2134
    5510:	f2c2 0000 	movt	r0, #8192	; 0x2000
    5514:	f24d 0184 	movw	r1, #53380	; 0xd084
    5518:	f2c0 0100 	movt	r1, #0
    551c:	f001 fc72 	bl	6e04 <sprintf>
    5520:	f242 1034 	movw	r0, #8500	; 0x2134
    5524:	f2c2 0000 	movt	r0, #8192	; 0x2000
    5528:	f04f 010a 	mov.w	r1, #10
    552c:	f7fc fc0a 	bl	1d44 <FRAME_BUFFER_change_text>
    5530:	f240 6354 	movw	r3, #1620	; 0x654
    5534:	f2c2 0300 	movt	r3, #8192	; 0x2000
    5538:	681b      	ldr	r3, [r3, #0]
    553a:	4618      	mov	r0, r3
    553c:	f000 fd0c 	bl	5f58 <__aeabi_f2d>
    5540:	4602      	mov	r2, r0
    5542:	460b      	mov	r3, r1
    5544:	f242 20b4 	movw	r0, #8884	; 0x22b4
    5548:	f2c2 0000 	movt	r0, #8192	; 0x2000
    554c:	f24d 0190 	movw	r1, #53392	; 0xd090
    5550:	f2c0 0100 	movt	r1, #0
    5554:	f001 fc56 	bl	6e04 <sprintf>
    5558:	f242 20b4 	movw	r0, #8884	; 0x22b4
    555c:	f2c2 0000 	movt	r0, #8192	; 0x2000
    5560:	f04f 0108 	mov.w	r1, #8
    5564:	f7fc fbee 	bl	1d44 <FRAME_BUFFER_change_text>
    5568:	f240 6348 	movw	r3, #1608	; 0x648
    556c:	f2c2 0300 	movt	r3, #8192	; 0x2000
    5570:	681b      	ldr	r3, [r3, #0]
    5572:	4618      	mov	r0, r3
    5574:	f000 fcf0 	bl	5f58 <__aeabi_f2d>
    5578:	4602      	mov	r2, r0
    557a:	460b      	mov	r3, r1
    557c:	f242 0034 	movw	r0, #8244	; 0x2034
    5580:	f2c2 0000 	movt	r0, #8192	; 0x2000
    5584:	f24d 019c 	movw	r1, #53404	; 0xd09c
    5588:	f2c0 0100 	movt	r1, #0
    558c:	f001 fc3a 	bl	6e04 <sprintf>
    5590:	f242 0034 	movw	r0, #8244	; 0x2034
    5594:	f2c2 0000 	movt	r0, #8192	; 0x2000
    5598:	f04f 0105 	mov.w	r1, #5
    559c:	f7fc fbd2 	bl	1d44 <FRAME_BUFFER_change_text>
    55a0:	f240 6358 	movw	r3, #1624	; 0x658
    55a4:	f2c2 0300 	movt	r3, #8192	; 0x2000
    55a8:	681b      	ldr	r3, [r3, #0]
    55aa:	4618      	mov	r0, r3
    55ac:	f000 fcd4 	bl	5f58 <__aeabi_f2d>
    55b0:	4602      	mov	r2, r0
    55b2:	460b      	mov	r3, r1
    55b4:	f641 70b4 	movw	r0, #8116	; 0x1fb4
    55b8:	f2c2 0000 	movt	r0, #8192	; 0x2000
    55bc:	f24d 01a8 	movw	r1, #53416	; 0xd0a8
    55c0:	f2c0 0100 	movt	r1, #0
    55c4:	f001 fc1e 	bl	6e04 <sprintf>
    55c8:	f641 70b4 	movw	r0, #8116	; 0x1fb4
    55cc:	f2c2 0000 	movt	r0, #8192	; 0x2000
    55d0:	f04f 0109 	mov.w	r1, #9
    55d4:	f7fc fbb6 	bl	1d44 <FRAME_BUFFER_change_text>
    55d8:	f240 634c 	movw	r3, #1612	; 0x64c
    55dc:	f2c2 0300 	movt	r3, #8192	; 0x2000
    55e0:	681b      	ldr	r3, [r3, #0]
    55e2:	4618      	mov	r0, r3
    55e4:	f000 fcb8 	bl	5f58 <__aeabi_f2d>
    55e8:	4602      	mov	r2, r0
    55ea:	460b      	mov	r3, r1
    55ec:	f242 00b4 	movw	r0, #8372	; 0x20b4
    55f0:	f2c2 0000 	movt	r0, #8192	; 0x2000
    55f4:	f24d 01b4 	movw	r1, #53428	; 0xd0b4
    55f8:	f2c0 0100 	movt	r1, #0
    55fc:	f001 fc02 	bl	6e04 <sprintf>
    5600:	f242 00b4 	movw	r0, #8372	; 0x20b4
    5604:	f2c2 0000 	movt	r0, #8192	; 0x2000
    5608:	f04f 0106 	mov.w	r1, #6
    560c:	f7fc fb9a 	bl	1d44 <FRAME_BUFFER_change_text>
    5610:	f240 736c 	movw	r3, #1900	; 0x76c
    5614:	f2c2 0300 	movt	r3, #8192	; 0x2000
    5618:	681b      	ldr	r3, [r3, #0]
    561a:	4618      	mov	r0, r3
    561c:	f000 fc9c 	bl	5f58 <__aeabi_f2d>
    5620:	4602      	mov	r2, r0
    5622:	460b      	mov	r3, r1
    5624:	f242 10b4 	movw	r0, #8628	; 0x21b4
    5628:	f2c2 0000 	movt	r0, #8192	; 0x2000
    562c:	f24d 01c0 	movw	r1, #53440	; 0xd0c0
    5630:	f2c0 0100 	movt	r1, #0
    5634:	f001 fbe6 	bl	6e04 <sprintf>
    5638:	f242 10b4 	movw	r0, #8628	; 0x21b4
    563c:	f2c2 0000 	movt	r0, #8192	; 0x2000
    5640:	f04f 010b 	mov.w	r1, #11
    5644:	f7fc fb7e 	bl	1d44 <FRAME_BUFFER_change_text>
    5648:	f240 737f 	movw	r3, #1919	; 0x77f
    564c:	f2c2 0300 	movt	r3, #8192	; 0x2000
    5650:	781b      	ldrb	r3, [r3, #0]
    5652:	2b00      	cmp	r3, #0
    5654:	d107      	bne.n	5666 <vTask_Display+0x222>
    5656:	f240 7398 	movw	r3, #1944	; 0x798
    565a:	f2c2 0300 	movt	r3, #8192	; 0x2000
    565e:	f04f 0200 	mov.w	r2, #0
    5662:	601a      	str	r2, [r3, #0]
    5664:	e029      	b.n	56ba <vTask_Display+0x276>
    5666:	f240 737c 	movw	r3, #1916	; 0x77c
    566a:	f2c2 0300 	movt	r3, #8192	; 0x2000
    566e:	781b      	ldrb	r3, [r3, #0]
    5670:	2b01      	cmp	r3, #1
    5672:	d106      	bne.n	5682 <vTask_Display+0x23e>
    5674:	f240 7398 	movw	r3, #1944	; 0x798
    5678:	f2c2 0300 	movt	r3, #8192	; 0x2000
    567c:	f04f 0201 	mov.w	r2, #1
    5680:	601a      	str	r2, [r3, #0]
    5682:	f240 737d 	movw	r3, #1917	; 0x77d
    5686:	f2c2 0300 	movt	r3, #8192	; 0x2000
    568a:	781b      	ldrb	r3, [r3, #0]
    568c:	2b01      	cmp	r3, #1
    568e:	d106      	bne.n	569e <vTask_Display+0x25a>
    5690:	f240 7398 	movw	r3, #1944	; 0x798
    5694:	f2c2 0300 	movt	r3, #8192	; 0x2000
    5698:	f04f 0202 	mov.w	r2, #2
    569c:	601a      	str	r2, [r3, #0]
    569e:	f240 737e 	movw	r3, #1918	; 0x77e
    56a2:	f2c2 0300 	movt	r3, #8192	; 0x2000
    56a6:	781b      	ldrb	r3, [r3, #0]
    56a8:	2b01      	cmp	r3, #1
    56aa:	d106      	bne.n	56ba <vTask_Display+0x276>
    56ac:	f240 7398 	movw	r3, #1944	; 0x798
    56b0:	f2c2 0300 	movt	r3, #8192	; 0x2000
    56b4:	f04f 0203 	mov.w	r2, #3
    56b8:	601a      	str	r2, [r3, #0]
    56ba:	f240 7398 	movw	r3, #1944	; 0x798
    56be:	f2c2 0300 	movt	r3, #8192	; 0x2000
    56c2:	681b      	ldr	r3, [r3, #0]
    56c4:	f641 7034 	movw	r0, #7988	; 0x1f34
    56c8:	f2c2 0000 	movt	r0, #8192	; 0x2000
    56cc:	f24d 01cc 	movw	r1, #53452	; 0xd0cc
    56d0:	f2c0 0100 	movt	r1, #0
    56d4:	461a      	mov	r2, r3
    56d6:	f001 fb95 	bl	6e04 <sprintf>
    56da:	f641 7034 	movw	r0, #7988	; 0x1f34
    56de:	f2c2 0000 	movt	r0, #8192	; 0x2000
    56e2:	f04f 010c 	mov.w	r1, #12
    56e6:	f7fc fb2d 	bl	1d44 <FRAME_BUFFER_change_text>
    56ea:	f7fc fb57 	bl	1d9c <FRAME_BUFFER_write_to_display>
    56ee:	f107 0308 	add.w	r3, r7, #8
    56f2:	4618      	mov	r0, r3
    56f4:	68f9      	ldr	r1, [r7, #12]
    56f6:	f7fd fd0d 	bl	3114 <vTaskDelayUntil>
    56fa:	e6b1      	b.n	5460 <vTask_Display+0x1c>

000056fc <initConsole>:
    56fc:	b580      	push	{r7, lr}
    56fe:	b082      	sub	sp, #8
    5700:	af00      	add	r7, sp, #0
    5702:	f244 2040 	movw	r0, #16960	; 0x4240
    5706:	f2c0 000f 	movt	r0, #15
    570a:	f7fe fe63 	bl	43d4 <RIT128x96x4Init>
    570e:	f04f 0300 	mov.w	r3, #0
    5712:	607b      	str	r3, [r7, #4]
    5714:	e02c      	b.n	5770 <initConsole+0x74>
    5716:	f04f 0300 	mov.w	r3, #0
    571a:	603b      	str	r3, [r7, #0]
    571c:	e012      	b.n	5744 <initConsole+0x48>
    571e:	f242 3334 	movw	r3, #9012	; 0x2334
    5722:	f2c2 0300 	movt	r3, #8192	; 0x2000
    5726:	687a      	ldr	r2, [r7, #4]
    5728:	f04f 0116 	mov.w	r1, #22
    572c:	fb01 f102 	mul.w	r1, r1, r2
    5730:	683a      	ldr	r2, [r7, #0]
    5732:	188a      	adds	r2, r1, r2
    5734:	189b      	adds	r3, r3, r2
    5736:	f04f 0220 	mov.w	r2, #32
    573a:	701a      	strb	r2, [r3, #0]
    573c:	683b      	ldr	r3, [r7, #0]
    573e:	f103 0301 	add.w	r3, r3, #1
    5742:	603b      	str	r3, [r7, #0]
    5744:	683b      	ldr	r3, [r7, #0]
    5746:	2b14      	cmp	r3, #20
    5748:	dde9      	ble.n	571e <initConsole+0x22>
    574a:	f242 3334 	movw	r3, #9012	; 0x2334
    574e:	f2c2 0300 	movt	r3, #8192	; 0x2000
    5752:	687a      	ldr	r2, [r7, #4]
    5754:	f04f 0116 	mov.w	r1, #22
    5758:	fb01 f202 	mul.w	r2, r1, r2
    575c:	189b      	adds	r3, r3, r2
    575e:	f103 0315 	add.w	r3, r3, #21
    5762:	f04f 0200 	mov.w	r2, #0
    5766:	701a      	strb	r2, [r3, #0]
    5768:	687b      	ldr	r3, [r7, #4]
    576a:	f103 0301 	add.w	r3, r3, #1
    576e:	607b      	str	r3, [r7, #4]
    5770:	687b      	ldr	r3, [r7, #4]
    5772:	2b0b      	cmp	r3, #11
    5774:	ddcf      	ble.n	5716 <initConsole+0x1a>
    5776:	f107 0708 	add.w	r7, r7, #8
    577a:	46bd      	mov	sp, r7
    577c:	bd80      	pop	{r7, pc}
    577e:	bf00      	nop

00005780 <SysTickValueGet>:
    5780:	b480      	push	{r7}
    5782:	af00      	add	r7, sp, #0
    5784:	f24e 0318 	movw	r3, #57368	; 0xe018
    5788:	f2ce 0300 	movt	r3, #57344	; 0xe000
    578c:	681b      	ldr	r3, [r3, #0]
    578e:	4618      	mov	r0, r3
    5790:	46bd      	mov	sp, r7
    5792:	bc80      	pop	{r7}
    5794:	4770      	bx	lr
    5796:	bf00      	nop

00005798 <pvPortMalloc>:
    5798:	b580      	push	{r7, lr}
    579a:	b084      	sub	sp, #16
    579c:	af00      	add	r7, sp, #0
    579e:	6078      	str	r0, [r7, #4]
    57a0:	f04f 0300 	mov.w	r3, #0
    57a4:	60fb      	str	r3, [r7, #12]
    57a6:	687b      	ldr	r3, [r7, #4]
    57a8:	f003 0307 	and.w	r3, r3, #7
    57ac:	2b00      	cmp	r3, #0
    57ae:	d005      	beq.n	57bc <pvPortMalloc+0x24>
    57b0:	687b      	ldr	r3, [r7, #4]
    57b2:	f023 0307 	bic.w	r3, r3, #7
    57b6:	f103 0308 	add.w	r3, r3, #8
    57ba:	607b      	str	r3, [r7, #4]
    57bc:	f7fd fe1a 	bl	33f4 <vTaskSuspendAll>
    57c0:	f641 33a0 	movw	r3, #7072	; 0x1ba0
    57c4:	f2c2 0300 	movt	r3, #8192	; 0x2000
    57c8:	681a      	ldr	r2, [r3, #0]
    57ca:	687b      	ldr	r3, [r7, #4]
    57cc:	18d2      	adds	r2, r2, r3
    57ce:	f241 33ff 	movw	r3, #5119	; 0x13ff
    57d2:	429a      	cmp	r2, r3
    57d4:	d824      	bhi.n	5820 <pvPortMalloc+0x88>
    57d6:	f641 33a0 	movw	r3, #7072	; 0x1ba0
    57da:	f2c2 0300 	movt	r3, #8192	; 0x2000
    57de:	681a      	ldr	r2, [r3, #0]
    57e0:	687b      	ldr	r3, [r7, #4]
    57e2:	18d2      	adds	r2, r2, r3
    57e4:	f641 33a0 	movw	r3, #7072	; 0x1ba0
    57e8:	f2c2 0300 	movt	r3, #8192	; 0x2000
    57ec:	681b      	ldr	r3, [r3, #0]
    57ee:	429a      	cmp	r2, r3
    57f0:	d916      	bls.n	5820 <pvPortMalloc+0x88>
    57f2:	f641 33a0 	movw	r3, #7072	; 0x1ba0
    57f6:	f2c2 0300 	movt	r3, #8192	; 0x2000
    57fa:	681a      	ldr	r2, [r3, #0]
    57fc:	f240 73a0 	movw	r3, #1952	; 0x7a0
    5800:	f2c2 0300 	movt	r3, #8192	; 0x2000
    5804:	18d3      	adds	r3, r2, r3
    5806:	60fb      	str	r3, [r7, #12]
    5808:	f641 33a0 	movw	r3, #7072	; 0x1ba0
    580c:	f2c2 0300 	movt	r3, #8192	; 0x2000
    5810:	681a      	ldr	r2, [r3, #0]
    5812:	687b      	ldr	r3, [r7, #4]
    5814:	18d2      	adds	r2, r2, r3
    5816:	f641 33a0 	movw	r3, #7072	; 0x1ba0
    581a:	f2c2 0300 	movt	r3, #8192	; 0x2000
    581e:	601a      	str	r2, [r3, #0]
    5820:	f7fd fdfa 	bl	3418 <xTaskResumeAll>
    5824:	68fb      	ldr	r3, [r7, #12]
    5826:	4618      	mov	r0, r3
    5828:	f107 0710 	add.w	r7, r7, #16
    582c:	46bd      	mov	sp, r7
    582e:	bd80      	pop	{r7, pc}

00005830 <vPortFree>:
    5830:	b480      	push	{r7}
    5832:	b083      	sub	sp, #12
    5834:	af00      	add	r7, sp, #0
    5836:	6078      	str	r0, [r7, #4]
    5838:	f107 070c 	add.w	r7, r7, #12
    583c:	46bd      	mov	sp, r7
    583e:	bc80      	pop	{r7}
    5840:	4770      	bx	lr
    5842:	bf00      	nop

00005844 <ULTRASONIDOS_ini>:
    5844:	b580      	push	{r7, lr}
    5846:	b082      	sub	sp, #8
    5848:	af00      	add	r7, sp, #0
    584a:	f7fc fd93 	bl	2374 <SysCtlClockGet>
    584e:	4602      	mov	r2, r0
    5850:	f248 531f 	movw	r3, #34079	; 0x851f
    5854:	f2c5 13eb 	movt	r3, #20971	; 0x51eb
    5858:	fba3 1302 	umull	r1, r3, r3, r2
    585c:	ea4f 1353 	mov.w	r3, r3, lsr #5
    5860:	607b      	str	r3, [r7, #4]
    5862:	f04f 0003 	mov.w	r0, #3
    5866:	6879      	ldr	r1, [r7, #4]
    5868:	f7ff fcde 	bl	5228 <PWM_GENERICO_salida_init>
    586c:	4810      	ldr	r0, [pc, #64]	; (58b0 <ULTRASONIDOS_ini+0x6c>)
    586e:	f04f 0103 	mov.w	r1, #3
    5872:	687a      	ldr	r2, [r7, #4]
    5874:	f7ff fdb0 	bl	53d8 <PWM_GENERICO_cambiar_anchura_pulso>
    5878:	f04f 0002 	mov.w	r0, #2
    587c:	f04f 0104 	mov.w	r1, #4
    5880:	f7fb f852 	bl	928 <PINES_inicializar>
    5884:	f04f 0002 	mov.w	r0, #2
    5888:	f04f 0104 	mov.w	r1, #4
    588c:	f7fb f900 	bl	a90 <PINES_inicializar_int_both_edges>
    5890:	f04f 0003 	mov.w	r0, #3
    5894:	f04f 0104 	mov.w	r1, #4
    5898:	f7fb f846 	bl	928 <PINES_inicializar>
    589c:	f04f 0003 	mov.w	r0, #3
    58a0:	f04f 0104 	mov.w	r1, #4
    58a4:	f7fb f8f4 	bl	a90 <PINES_inicializar_int_both_edges>
    58a8:	f107 0708 	add.w	r7, r7, #8
    58ac:	46bd      	mov	sp, r7
    58ae:	bd80      	pop	{r7, pc}
    58b0:	3983126f 	.word	0x3983126f
    58b4:	00000000 	.word	0x00000000

000058b8 <ULTRASONIDOS_echoInt_PB4>:
    58b8:	4668      	mov	r0, sp
    58ba:	f020 0107 	bic.w	r1, r0, #7
    58be:	468d      	mov	sp, r1
    58c0:	b5b1      	push	{r0, r4, r5, r7, lr}
    58c2:	b085      	sub	sp, #20
    58c4:	af00      	add	r7, sp, #0
    58c6:	f44f 40a0 	mov.w	r0, #20480	; 0x5000
    58ca:	f2c4 0000 	movt	r0, #16384	; 0x4000
    58ce:	f04f 0101 	mov.w	r1, #1
    58d2:	f7fd f92d 	bl	2b30 <GPIOPinIntStatus>
    58d6:	60b8      	str	r0, [r7, #8]
    58d8:	68bb      	ldr	r3, [r7, #8]
    58da:	f003 0310 	and.w	r3, r3, #16
    58de:	2b00      	cmp	r3, #0
    58e0:	f000 8091 	beq.w	5a06 <ULTRASONIDOS_echoInt_PB4+0x14e>
    58e4:	f04f 0310 	mov.w	r3, #16
    58e8:	73fb      	strb	r3, [r7, #15]
    58ea:	7bfb      	ldrb	r3, [r7, #15]
    58ec:	f44f 40a0 	mov.w	r0, #20480	; 0x5000
    58f0:	f2c4 0000 	movt	r0, #16384	; 0x4000
    58f4:	4619      	mov	r1, r3
    58f6:	f7fd f947 	bl	2b88 <GPIOPinRead>
    58fa:	4603      	mov	r3, r0
    58fc:	607b      	str	r3, [r7, #4]
    58fe:	687b      	ldr	r3, [r7, #4]
    5900:	f003 031f 	and.w	r3, r3, #31
    5904:	607b      	str	r3, [r7, #4]
    5906:	687b      	ldr	r3, [r7, #4]
    5908:	2b10      	cmp	r3, #16
    590a:	d116      	bne.n	593a <ULTRASONIDOS_echoInt_PB4+0x82>
    590c:	f7fb ff6c 	bl	17e8 <SYSTEM_TICK_coger_valor_ticks>
    5910:	4603      	mov	r3, r0
    5912:	461a      	mov	r2, r3
    5914:	f641 33a8 	movw	r3, #7080	; 0x1ba8
    5918:	f2c2 0300 	movt	r3, #8192	; 0x2000
    591c:	601a      	str	r2, [r3, #0]
    591e:	f641 33bc 	movw	r3, #7100	; 0x1bbc
    5922:	f2c2 0300 	movt	r3, #8192	; 0x2000
    5926:	f04f 0200 	mov.w	r2, #0
    592a:	601a      	str	r2, [r3, #0]
    592c:	f641 33b8 	movw	r3, #7096	; 0x1bb8
    5930:	f2c2 0300 	movt	r3, #8192	; 0x2000
    5934:	f04f 0201 	mov.w	r2, #1
    5938:	701a      	strb	r2, [r3, #0]
    593a:	687b      	ldr	r3, [r7, #4]
    593c:	2b00      	cmp	r3, #0
    593e:	d162      	bne.n	5a06 <ULTRASONIDOS_echoInt_PB4+0x14e>
    5940:	f641 33b8 	movw	r3, #7096	; 0x1bb8
    5944:	f2c2 0300 	movt	r3, #8192	; 0x2000
    5948:	781b      	ldrb	r3, [r3, #0]
    594a:	2b01      	cmp	r3, #1
    594c:	d15b      	bne.n	5a06 <ULTRASONIDOS_echoInt_PB4+0x14e>
    594e:	f7fb ff4b 	bl	17e8 <SYSTEM_TICK_coger_valor_ticks>
    5952:	4603      	mov	r3, r0
    5954:	461a      	mov	r2, r3
    5956:	f641 33ac 	movw	r3, #7084	; 0x1bac
    595a:	f2c2 0300 	movt	r3, #8192	; 0x2000
    595e:	601a      	str	r2, [r3, #0]
    5960:	f641 33a8 	movw	r3, #7080	; 0x1ba8
    5964:	f2c2 0300 	movt	r3, #8192	; 0x2000
    5968:	681a      	ldr	r2, [r3, #0]
    596a:	f641 33ac 	movw	r3, #7084	; 0x1bac
    596e:	f2c2 0300 	movt	r3, #8192	; 0x2000
    5972:	681b      	ldr	r3, [r3, #0]
    5974:	1ad3      	subs	r3, r2, r3
    5976:	4618      	mov	r0, r3
    5978:	f000 fadc 	bl	5f34 <__aeabi_i2d>
    597c:	4604      	mov	r4, r0
    597e:	460d      	mov	r5, r1
    5980:	f641 33bc 	movw	r3, #7100	; 0x1bbc
    5984:	f2c2 0300 	movt	r3, #8192	; 0x2000
    5988:	681b      	ldr	r3, [r3, #0]
    598a:	4618      	mov	r0, r3
    598c:	f000 fad2 	bl	5f34 <__aeabi_i2d>
    5990:	4602      	mov	r2, r0
    5992:	460b      	mov	r3, r1
    5994:	4610      	mov	r0, r2
    5996:	4619      	mov	r1, r3
    5998:	a323      	add	r3, pc, #140	; (adr r3, 5a28 <ULTRASONIDOS_echoInt_PB4+0x170>)
    599a:	e9d3 2300 	ldrd	r2, r3, [r3]
    599e:	f000 fb2f 	bl	6000 <__aeabi_dmul>
    59a2:	4602      	mov	r2, r0
    59a4:	460b      	mov	r3, r1
    59a6:	4620      	mov	r0, r4
    59a8:	4629      	mov	r1, r5
    59aa:	f000 f977 	bl	5c9c <__adddf3>
    59ae:	4602      	mov	r2, r0
    59b0:	460b      	mov	r3, r1
    59b2:	4610      	mov	r0, r2
    59b4:	4619      	mov	r1, r3
    59b6:	a31e      	add	r3, pc, #120	; (adr r3, 5a30 <ULTRASONIDOS_echoInt_PB4+0x178>)
    59b8:	e9d3 2300 	ldrd	r2, r3, [r3]
    59bc:	f000 fb20 	bl	6000 <__aeabi_dmul>
    59c0:	4602      	mov	r2, r0
    59c2:	460b      	mov	r3, r1
    59c4:	4610      	mov	r0, r2
    59c6:	4619      	mov	r1, r3
    59c8:	a317      	add	r3, pc, #92	; (adr r3, 5a28 <ULTRASONIDOS_echoInt_PB4+0x170>)
    59ca:	e9d3 2300 	ldrd	r2, r3, [r3]
    59ce:	f000 fc41 	bl	6254 <__aeabi_ddiv>
    59d2:	4602      	mov	r2, r0
    59d4:	460b      	mov	r3, r1
    59d6:	4610      	mov	r0, r2
    59d8:	4619      	mov	r1, r3
    59da:	f000 fdab 	bl	6534 <__aeabi_d2f>
    59de:	4602      	mov	r2, r0
    59e0:	f240 7364 	movw	r3, #1892	; 0x764
    59e4:	f2c2 0300 	movt	r3, #8192	; 0x2000
    59e8:	601a      	str	r2, [r3, #0]
    59ea:	f641 33b8 	movw	r3, #7096	; 0x1bb8
    59ee:	f2c2 0300 	movt	r3, #8192	; 0x2000
    59f2:	f04f 0200 	mov.w	r2, #0
    59f6:	701a      	strb	r2, [r3, #0]
    59f8:	f641 33ba 	movw	r3, #7098	; 0x1bba
    59fc:	f2c2 0300 	movt	r3, #8192	; 0x2000
    5a00:	f04f 0201 	mov.w	r2, #1
    5a04:	701a      	strb	r2, [r3, #0]
    5a06:	7bfb      	ldrb	r3, [r7, #15]
    5a08:	f44f 40a0 	mov.w	r0, #20480	; 0x5000
    5a0c:	f2c4 0000 	movt	r0, #16384	; 0x4000
    5a10:	4619      	mov	r1, r3
    5a12:	f7fd f8a7 	bl	2b64 <GPIOPinIntClear>
    5a16:	f107 0714 	add.w	r7, r7, #20
    5a1a:	46bd      	mov	sp, r7
    5a1c:	e8bd 40b1 	ldmia.w	sp!, {r0, r4, r5, r7, lr}
    5a20:	4685      	mov	sp, r0
    5a22:	4770      	bx	lr
    5a24:	f3af 8000 	nop.w
    5a28:	00000000 	.word	0x00000000
    5a2c:	40bf4000 	.word	0x40bf4000
    5a30:	00000000 	.word	0x00000000
    5a34:	408f4000 	.word	0x408f4000

00005a38 <ULTRASONIDOS_echoInt_PC4>:
    5a38:	4668      	mov	r0, sp
    5a3a:	f020 0107 	bic.w	r1, r0, #7
    5a3e:	468d      	mov	sp, r1
    5a40:	b5b1      	push	{r0, r4, r5, r7, lr}
    5a42:	b085      	sub	sp, #20
    5a44:	af00      	add	r7, sp, #0
    5a46:	f44f 40c0 	mov.w	r0, #24576	; 0x6000
    5a4a:	f2c4 0000 	movt	r0, #16384	; 0x4000
    5a4e:	f04f 0101 	mov.w	r1, #1
    5a52:	f7fd f86d 	bl	2b30 <GPIOPinIntStatus>
    5a56:	60b8      	str	r0, [r7, #8]
    5a58:	68bb      	ldr	r3, [r7, #8]
    5a5a:	f003 0310 	and.w	r3, r3, #16
    5a5e:	2b00      	cmp	r3, #0
    5a60:	f000 8091 	beq.w	5b86 <ULTRASONIDOS_echoInt_PC4+0x14e>
    5a64:	f04f 0310 	mov.w	r3, #16
    5a68:	73fb      	strb	r3, [r7, #15]
    5a6a:	7bfb      	ldrb	r3, [r7, #15]
    5a6c:	f44f 40c0 	mov.w	r0, #24576	; 0x6000
    5a70:	f2c4 0000 	movt	r0, #16384	; 0x4000
    5a74:	4619      	mov	r1, r3
    5a76:	f7fd f887 	bl	2b88 <GPIOPinRead>
    5a7a:	4603      	mov	r3, r0
    5a7c:	607b      	str	r3, [r7, #4]
    5a7e:	687b      	ldr	r3, [r7, #4]
    5a80:	f003 03ff 	and.w	r3, r3, #255	; 0xff
    5a84:	607b      	str	r3, [r7, #4]
    5a86:	687b      	ldr	r3, [r7, #4]
    5a88:	2b10      	cmp	r3, #16
    5a8a:	d116      	bne.n	5aba <ULTRASONIDOS_echoInt_PC4+0x82>
    5a8c:	f7fb feac 	bl	17e8 <SYSTEM_TICK_coger_valor_ticks>
    5a90:	4603      	mov	r3, r0
    5a92:	461a      	mov	r2, r3
    5a94:	f641 33b0 	movw	r3, #7088	; 0x1bb0
    5a98:	f2c2 0300 	movt	r3, #8192	; 0x2000
    5a9c:	601a      	str	r2, [r3, #0]
    5a9e:	f641 33bc 	movw	r3, #7100	; 0x1bbc
    5aa2:	f2c2 0300 	movt	r3, #8192	; 0x2000
    5aa6:	f04f 0200 	mov.w	r2, #0
    5aaa:	601a      	str	r2, [r3, #0]
    5aac:	f641 33b9 	movw	r3, #7097	; 0x1bb9
    5ab0:	f2c2 0300 	movt	r3, #8192	; 0x2000
    5ab4:	f04f 0201 	mov.w	r2, #1
    5ab8:	701a      	strb	r2, [r3, #0]
    5aba:	687b      	ldr	r3, [r7, #4]
    5abc:	2b00      	cmp	r3, #0
    5abe:	d162      	bne.n	5b86 <ULTRASONIDOS_echoInt_PC4+0x14e>
    5ac0:	f641 33b9 	movw	r3, #7097	; 0x1bb9
    5ac4:	f2c2 0300 	movt	r3, #8192	; 0x2000
    5ac8:	781b      	ldrb	r3, [r3, #0]
    5aca:	2b01      	cmp	r3, #1
    5acc:	d15b      	bne.n	5b86 <ULTRASONIDOS_echoInt_PC4+0x14e>
    5ace:	f7fb fe8b 	bl	17e8 <SYSTEM_TICK_coger_valor_ticks>
    5ad2:	4603      	mov	r3, r0
    5ad4:	461a      	mov	r2, r3
    5ad6:	f641 33b4 	movw	r3, #7092	; 0x1bb4
    5ada:	f2c2 0300 	movt	r3, #8192	; 0x2000
    5ade:	601a      	str	r2, [r3, #0]
    5ae0:	f641 33b0 	movw	r3, #7088	; 0x1bb0
    5ae4:	f2c2 0300 	movt	r3, #8192	; 0x2000
    5ae8:	681a      	ldr	r2, [r3, #0]
    5aea:	f641 33b4 	movw	r3, #7092	; 0x1bb4
    5aee:	f2c2 0300 	movt	r3, #8192	; 0x2000
    5af2:	681b      	ldr	r3, [r3, #0]
    5af4:	1ad3      	subs	r3, r2, r3
    5af6:	4618      	mov	r0, r3
    5af8:	f000 fa1c 	bl	5f34 <__aeabi_i2d>
    5afc:	4604      	mov	r4, r0
    5afe:	460d      	mov	r5, r1
    5b00:	f641 33bc 	movw	r3, #7100	; 0x1bbc
    5b04:	f2c2 0300 	movt	r3, #8192	; 0x2000
    5b08:	681b      	ldr	r3, [r3, #0]
    5b0a:	4618      	mov	r0, r3
    5b0c:	f000 fa12 	bl	5f34 <__aeabi_i2d>
    5b10:	4602      	mov	r2, r0
    5b12:	460b      	mov	r3, r1
    5b14:	4610      	mov	r0, r2
    5b16:	4619      	mov	r1, r3
    5b18:	a323      	add	r3, pc, #140	; (adr r3, 5ba8 <ULTRASONIDOS_echoInt_PC4+0x170>)
    5b1a:	e9d3 2300 	ldrd	r2, r3, [r3]
    5b1e:	f000 fa6f 	bl	6000 <__aeabi_dmul>
    5b22:	4602      	mov	r2, r0
    5b24:	460b      	mov	r3, r1
    5b26:	4620      	mov	r0, r4
    5b28:	4629      	mov	r1, r5
    5b2a:	f000 f8b7 	bl	5c9c <__adddf3>
    5b2e:	4602      	mov	r2, r0
    5b30:	460b      	mov	r3, r1
    5b32:	4610      	mov	r0, r2
    5b34:	4619      	mov	r1, r3
    5b36:	a31e      	add	r3, pc, #120	; (adr r3, 5bb0 <ULTRASONIDOS_echoInt_PC4+0x178>)
    5b38:	e9d3 2300 	ldrd	r2, r3, [r3]
    5b3c:	f000 fa60 	bl	6000 <__aeabi_dmul>
    5b40:	4602      	mov	r2, r0
    5b42:	460b      	mov	r3, r1
    5b44:	4610      	mov	r0, r2
    5b46:	4619      	mov	r1, r3
    5b48:	a317      	add	r3, pc, #92	; (adr r3, 5ba8 <ULTRASONIDOS_echoInt_PC4+0x170>)
    5b4a:	e9d3 2300 	ldrd	r2, r3, [r3]
    5b4e:	f000 fb81 	bl	6254 <__aeabi_ddiv>
    5b52:	4602      	mov	r2, r0
    5b54:	460b      	mov	r3, r1
    5b56:	4610      	mov	r0, r2
    5b58:	4619      	mov	r1, r3
    5b5a:	f000 fceb 	bl	6534 <__aeabi_d2f>
    5b5e:	4602      	mov	r2, r0
    5b60:	f240 7368 	movw	r3, #1896	; 0x768
    5b64:	f2c2 0300 	movt	r3, #8192	; 0x2000
    5b68:	601a      	str	r2, [r3, #0]
    5b6a:	f641 33b9 	movw	r3, #7097	; 0x1bb9
    5b6e:	f2c2 0300 	movt	r3, #8192	; 0x2000
    5b72:	f04f 0200 	mov.w	r2, #0
    5b76:	701a      	strb	r2, [r3, #0]
    5b78:	f641 33bb 	movw	r3, #7099	; 0x1bbb
    5b7c:	f2c2 0300 	movt	r3, #8192	; 0x2000
    5b80:	f04f 0201 	mov.w	r2, #1
    5b84:	701a      	strb	r2, [r3, #0]
    5b86:	7bfb      	ldrb	r3, [r7, #15]
    5b88:	f44f 40c0 	mov.w	r0, #24576	; 0x6000
    5b8c:	f2c4 0000 	movt	r0, #16384	; 0x4000
    5b90:	4619      	mov	r1, r3
    5b92:	f7fc ffe7 	bl	2b64 <GPIOPinIntClear>
    5b96:	f107 0714 	add.w	r7, r7, #20
    5b9a:	46bd      	mov	sp, r7
    5b9c:	e8bd 40b1 	ldmia.w	sp!, {r0, r4, r5, r7, lr}
    5ba0:	4685      	mov	sp, r0
    5ba2:	4770      	bx	lr
    5ba4:	f3af 8000 	nop.w
    5ba8:	00000000 	.word	0x00000000
    5bac:	40bf4000 	.word	0x40bf4000
    5bb0:	00000000 	.word	0x00000000
    5bb4:	408f4000 	.word	0x408f4000

00005bb8 <ULTRASONIDOS_obstaculo>:
    5bb8:	b590      	push	{r4, r7, lr}
    5bba:	b085      	sub	sp, #20
    5bbc:	af00      	add	r7, sp, #0
    5bbe:	6078      	str	r0, [r7, #4]
    5bc0:	f04f 0300 	mov.w	r3, #0
    5bc4:	73fb      	strb	r3, [r7, #15]
    5bc6:	f04f 0301 	mov.w	r3, #1
    5bca:	461c      	mov	r4, r3
    5bcc:	6878      	ldr	r0, [r7, #4]
    5bce:	490a      	ldr	r1, [pc, #40]	; (5bf8 <ULTRASONIDOS_obstaculo+0x40>)
    5bd0:	f000 ffac 	bl	6b2c <__aeabi_fcmplt>
    5bd4:	4603      	mov	r3, r0
    5bd6:	2b00      	cmp	r3, #0
    5bd8:	d102      	bne.n	5be0 <ULTRASONIDOS_obstaculo+0x28>
    5bda:	f04f 0300 	mov.w	r3, #0
    5bde:	461c      	mov	r4, r3
    5be0:	b2e3      	uxtb	r3, r4
    5be2:	2b00      	cmp	r3, #0
    5be4:	d002      	beq.n	5bec <ULTRASONIDOS_obstaculo+0x34>
    5be6:	f04f 0301 	mov.w	r3, #1
    5bea:	73fb      	strb	r3, [r7, #15]
    5bec:	7bfb      	ldrb	r3, [r7, #15]
    5bee:	4618      	mov	r0, r3
    5bf0:	f107 0714 	add.w	r7, r7, #20
    5bf4:	46bd      	mov	sp, r7
    5bf6:	bd90      	pop	{r4, r7, pc}
    5bf8:	45354000 	.word	0x45354000

00005bfc <ULTRASONIDOS_escalon>:
    5bfc:	b590      	push	{r4, r7, lr}
    5bfe:	b085      	sub	sp, #20
    5c00:	af00      	add	r7, sp, #0
    5c02:	6078      	str	r0, [r7, #4]
    5c04:	f04f 0300 	mov.w	r3, #0
    5c08:	73fb      	strb	r3, [r7, #15]
    5c0a:	f04f 0301 	mov.w	r3, #1
    5c0e:	461c      	mov	r4, r3
    5c10:	6878      	ldr	r0, [r7, #4]
    5c12:	490a      	ldr	r1, [pc, #40]	; (5c3c <ULTRASONIDOS_escalon+0x40>)
    5c14:	f000 ffa8 	bl	6b68 <__aeabi_fcmpgt>
    5c18:	4603      	mov	r3, r0
    5c1a:	2b00      	cmp	r3, #0
    5c1c:	d102      	bne.n	5c24 <ULTRASONIDOS_escalon+0x28>
    5c1e:	f04f 0300 	mov.w	r3, #0
    5c22:	461c      	mov	r4, r3
    5c24:	b2e3      	uxtb	r3, r4
    5c26:	2b00      	cmp	r3, #0
    5c28:	d002      	beq.n	5c30 <ULTRASONIDOS_escalon+0x34>
    5c2a:	f04f 0301 	mov.w	r3, #1
    5c2e:	73fb      	strb	r3, [r7, #15]
    5c30:	7bfb      	ldrb	r3, [r7, #15]
    5c32:	4618      	mov	r0, r3
    5c34:	f107 0714 	add.w	r7, r7, #20
    5c38:	46bd      	mov	sp, r7
    5c3a:	bd90      	pop	{r4, r7, pc}
    5c3c:	43cb0000 	.word	0x43cb0000

00005c40 <vTask_Idle>:
    5c40:	b480      	push	{r7}
    5c42:	b083      	sub	sp, #12
    5c44:	af00      	add	r7, sp, #0
    5c46:	6078      	str	r0, [r7, #4]
    5c48:	e7fe      	b.n	5c48 <vTask_Idle+0x8>
    5c4a:	bf00      	nop

00005c4c <CLOCK_inicializar_clock>:
    5c4c:	b580      	push	{r7, lr}
    5c4e:	af00      	add	r7, sp, #0
    5c50:	f44f 506e 	mov.w	r0, #15232	; 0x3b80
    5c54:	f2c0 7080 	movt	r0, #1920	; 0x780
    5c58:	f7fc fa44 	bl	20e4 <SysCtlClockSet>
    5c5c:	bd80      	pop	{r7, pc}
    5c5e:	bf00      	nop

00005c60 <vTask_Recibir_Infrarrojos>:
    5c60:	b580      	push	{r7, lr}
    5c62:	b084      	sub	sp, #16
    5c64:	af00      	add	r7, sp, #0
    5c66:	6078      	str	r0, [r7, #4]
    5c68:	687b      	ldr	r3, [r7, #4]
    5c6a:	60fb      	str	r3, [r7, #12]
    5c6c:	f7fd fc7e 	bl	356c <xTaskGetTickCount>
    5c70:	4603      	mov	r3, r0
    5c72:	60bb      	str	r3, [r7, #8]
    5c74:	f64c 3048 	movw	r0, #52040	; 0xcb48
    5c78:	f2c0 0000 	movt	r0, #0
    5c7c:	f7fd fee4 	bl	3a48 <EjecutaAutomata>
    5c80:	f107 0308 	add.w	r3, r7, #8
    5c84:	4618      	mov	r0, r3
    5c86:	68f9      	ldr	r1, [r7, #12]
    5c88:	f7fd fa44 	bl	3114 <vTaskDelayUntil>
    5c8c:	e7f2      	b.n	5c74 <vTask_Recibir_Infrarrojos+0x14>
    5c8e:	bf00      	nop

00005c90 <__aeabi_drsub>:
    5c90:	f081 4100 	eor.w	r1, r1, #2147483648	; 0x80000000
    5c94:	e002      	b.n	5c9c <__adddf3>
    5c96:	bf00      	nop

00005c98 <__aeabi_dsub>:
    5c98:	f083 4300 	eor.w	r3, r3, #2147483648	; 0x80000000

00005c9c <__adddf3>:
    5c9c:	b530      	push	{r4, r5, lr}
    5c9e:	ea4f 0441 	mov.w	r4, r1, lsl #1
    5ca2:	ea4f 0543 	mov.w	r5, r3, lsl #1
    5ca6:	ea94 0f05 	teq	r4, r5
    5caa:	bf08      	it	eq
    5cac:	ea90 0f02 	teqeq	r0, r2
    5cb0:	bf1f      	itttt	ne
    5cb2:	ea54 0c00 	orrsne.w	ip, r4, r0
    5cb6:	ea55 0c02 	orrsne.w	ip, r5, r2
    5cba:	ea7f 5c64 	mvnsne.w	ip, r4, asr #21
    5cbe:	ea7f 5c65 	mvnsne.w	ip, r5, asr #21
    5cc2:	f000 80e2 	beq.w	5e8a <__adddf3+0x1ee>
    5cc6:	ea4f 5454 	mov.w	r4, r4, lsr #21
    5cca:	ebd4 5555 	rsbs	r5, r4, r5, lsr #21
    5cce:	bfb8      	it	lt
    5cd0:	426d      	neglt	r5, r5
    5cd2:	dd0c      	ble.n	5cee <__adddf3+0x52>
    5cd4:	442c      	add	r4, r5
    5cd6:	ea80 0202 	eor.w	r2, r0, r2
    5cda:	ea81 0303 	eor.w	r3, r1, r3
    5cde:	ea82 0000 	eor.w	r0, r2, r0
    5ce2:	ea83 0101 	eor.w	r1, r3, r1
    5ce6:	ea80 0202 	eor.w	r2, r0, r2
    5cea:	ea81 0303 	eor.w	r3, r1, r3
    5cee:	2d36      	cmp	r5, #54	; 0x36
    5cf0:	bf88      	it	hi
    5cf2:	bd30      	pophi	{r4, r5, pc}
    5cf4:	f011 4f00 	tst.w	r1, #2147483648	; 0x80000000
    5cf8:	ea4f 3101 	mov.w	r1, r1, lsl #12
    5cfc:	f44f 1c80 	mov.w	ip, #1048576	; 0x100000
    5d00:	ea4c 3111 	orr.w	r1, ip, r1, lsr #12
    5d04:	d002      	beq.n	5d0c <__adddf3+0x70>
    5d06:	4240      	negs	r0, r0
    5d08:	eb61 0141 	sbc.w	r1, r1, r1, lsl #1
    5d0c:	f013 4f00 	tst.w	r3, #2147483648	; 0x80000000
    5d10:	ea4f 3303 	mov.w	r3, r3, lsl #12
    5d14:	ea4c 3313 	orr.w	r3, ip, r3, lsr #12
    5d18:	d002      	beq.n	5d20 <__adddf3+0x84>
    5d1a:	4252      	negs	r2, r2
    5d1c:	eb63 0343 	sbc.w	r3, r3, r3, lsl #1
    5d20:	ea94 0f05 	teq	r4, r5
    5d24:	f000 80a7 	beq.w	5e76 <__adddf3+0x1da>
    5d28:	f1a4 0401 	sub.w	r4, r4, #1
    5d2c:	f1d5 0e20 	rsbs	lr, r5, #32
    5d30:	db0d      	blt.n	5d4e <__adddf3+0xb2>
    5d32:	fa02 fc0e 	lsl.w	ip, r2, lr
    5d36:	fa22 f205 	lsr.w	r2, r2, r5
    5d3a:	1880      	adds	r0, r0, r2
    5d3c:	f141 0100 	adc.w	r1, r1, #0
    5d40:	fa03 f20e 	lsl.w	r2, r3, lr
    5d44:	1880      	adds	r0, r0, r2
    5d46:	fa43 f305 	asr.w	r3, r3, r5
    5d4a:	4159      	adcs	r1, r3
    5d4c:	e00e      	b.n	5d6c <__adddf3+0xd0>
    5d4e:	f1a5 0520 	sub.w	r5, r5, #32
    5d52:	f10e 0e20 	add.w	lr, lr, #32
    5d56:	2a01      	cmp	r2, #1
    5d58:	fa03 fc0e 	lsl.w	ip, r3, lr
    5d5c:	bf28      	it	cs
    5d5e:	f04c 0c02 	orrcs.w	ip, ip, #2
    5d62:	fa43 f305 	asr.w	r3, r3, r5
    5d66:	18c0      	adds	r0, r0, r3
    5d68:	eb51 71e3 	adcs.w	r1, r1, r3, asr #31
    5d6c:	f001 4500 	and.w	r5, r1, #2147483648	; 0x80000000
    5d70:	d507      	bpl.n	5d82 <__adddf3+0xe6>
    5d72:	f04f 0e00 	mov.w	lr, #0
    5d76:	f1dc 0c00 	rsbs	ip, ip, #0
    5d7a:	eb7e 0000 	sbcs.w	r0, lr, r0
    5d7e:	eb6e 0101 	sbc.w	r1, lr, r1
    5d82:	f5b1 1f80 	cmp.w	r1, #1048576	; 0x100000
    5d86:	d31b      	bcc.n	5dc0 <__adddf3+0x124>
    5d88:	f5b1 1f00 	cmp.w	r1, #2097152	; 0x200000
    5d8c:	d30c      	bcc.n	5da8 <__adddf3+0x10c>
    5d8e:	0849      	lsrs	r1, r1, #1
    5d90:	ea5f 0030 	movs.w	r0, r0, rrx
    5d94:	ea4f 0c3c 	mov.w	ip, ip, rrx
    5d98:	f104 0401 	add.w	r4, r4, #1
    5d9c:	ea4f 5244 	mov.w	r2, r4, lsl #21
    5da0:	f512 0f80 	cmn.w	r2, #4194304	; 0x400000
    5da4:	f080 809a 	bcs.w	5edc <__adddf3+0x240>
    5da8:	f1bc 4f00 	cmp.w	ip, #2147483648	; 0x80000000
    5dac:	bf08      	it	eq
    5dae:	ea5f 0c50 	movseq.w	ip, r0, lsr #1
    5db2:	f150 0000 	adcs.w	r0, r0, #0
    5db6:	eb41 5104 	adc.w	r1, r1, r4, lsl #20
    5dba:	ea41 0105 	orr.w	r1, r1, r5
    5dbe:	bd30      	pop	{r4, r5, pc}
    5dc0:	ea5f 0c4c 	movs.w	ip, ip, lsl #1
    5dc4:	4140      	adcs	r0, r0
    5dc6:	eb41 0101 	adc.w	r1, r1, r1
    5dca:	f411 1f80 	tst.w	r1, #1048576	; 0x100000
    5dce:	f1a4 0401 	sub.w	r4, r4, #1
    5dd2:	d1e9      	bne.n	5da8 <__adddf3+0x10c>
    5dd4:	f091 0f00 	teq	r1, #0
    5dd8:	bf04      	itt	eq
    5dda:	4601      	moveq	r1, r0
    5ddc:	2000      	moveq	r0, #0
    5dde:	fab1 f381 	clz	r3, r1
    5de2:	bf08      	it	eq
    5de4:	3320      	addeq	r3, #32
    5de6:	f1a3 030b 	sub.w	r3, r3, #11
    5dea:	f1b3 0220 	subs.w	r2, r3, #32
    5dee:	da0c      	bge.n	5e0a <__adddf3+0x16e>
    5df0:	320c      	adds	r2, #12
    5df2:	dd08      	ble.n	5e06 <__adddf3+0x16a>
    5df4:	f102 0c14 	add.w	ip, r2, #20
    5df8:	f1c2 020c 	rsb	r2, r2, #12
    5dfc:	fa01 f00c 	lsl.w	r0, r1, ip
    5e00:	fa21 f102 	lsr.w	r1, r1, r2
    5e04:	e00c      	b.n	5e20 <__adddf3+0x184>
    5e06:	f102 0214 	add.w	r2, r2, #20
    5e0a:	bfd8      	it	le
    5e0c:	f1c2 0c20 	rsble	ip, r2, #32
    5e10:	fa01 f102 	lsl.w	r1, r1, r2
    5e14:	fa20 fc0c 	lsr.w	ip, r0, ip
    5e18:	bfdc      	itt	le
    5e1a:	ea41 010c 	orrle.w	r1, r1, ip
    5e1e:	4090      	lslle	r0, r2
    5e20:	1ae4      	subs	r4, r4, r3
    5e22:	bfa2      	ittt	ge
    5e24:	eb01 5104 	addge.w	r1, r1, r4, lsl #20
    5e28:	4329      	orrge	r1, r5
    5e2a:	bd30      	popge	{r4, r5, pc}
    5e2c:	ea6f 0404 	mvn.w	r4, r4
    5e30:	3c1f      	subs	r4, #31
    5e32:	da1c      	bge.n	5e6e <__adddf3+0x1d2>
    5e34:	340c      	adds	r4, #12
    5e36:	dc0e      	bgt.n	5e56 <__adddf3+0x1ba>
    5e38:	f104 0414 	add.w	r4, r4, #20
    5e3c:	f1c4 0220 	rsb	r2, r4, #32
    5e40:	fa20 f004 	lsr.w	r0, r0, r4
    5e44:	fa01 f302 	lsl.w	r3, r1, r2
    5e48:	ea40 0003 	orr.w	r0, r0, r3
    5e4c:	fa21 f304 	lsr.w	r3, r1, r4
    5e50:	ea45 0103 	orr.w	r1, r5, r3
    5e54:	bd30      	pop	{r4, r5, pc}
    5e56:	f1c4 040c 	rsb	r4, r4, #12
    5e5a:	f1c4 0220 	rsb	r2, r4, #32
    5e5e:	fa20 f002 	lsr.w	r0, r0, r2
    5e62:	fa01 f304 	lsl.w	r3, r1, r4
    5e66:	ea40 0003 	orr.w	r0, r0, r3
    5e6a:	4629      	mov	r1, r5
    5e6c:	bd30      	pop	{r4, r5, pc}
    5e6e:	fa21 f004 	lsr.w	r0, r1, r4
    5e72:	4629      	mov	r1, r5
    5e74:	bd30      	pop	{r4, r5, pc}
    5e76:	f094 0f00 	teq	r4, #0
    5e7a:	f483 1380 	eor.w	r3, r3, #1048576	; 0x100000
    5e7e:	bf06      	itte	eq
    5e80:	f481 1180 	eoreq.w	r1, r1, #1048576	; 0x100000
    5e84:	3401      	addeq	r4, #1
    5e86:	3d01      	subne	r5, #1
    5e88:	e74e      	b.n	5d28 <__adddf3+0x8c>
    5e8a:	ea7f 5c64 	mvns.w	ip, r4, asr #21
    5e8e:	bf18      	it	ne
    5e90:	ea7f 5c65 	mvnsne.w	ip, r5, asr #21
    5e94:	d029      	beq.n	5eea <__adddf3+0x24e>
    5e96:	ea94 0f05 	teq	r4, r5
    5e9a:	bf08      	it	eq
    5e9c:	ea90 0f02 	teqeq	r0, r2
    5ea0:	d005      	beq.n	5eae <__adddf3+0x212>
    5ea2:	ea54 0c00 	orrs.w	ip, r4, r0
    5ea6:	bf04      	itt	eq
    5ea8:	4619      	moveq	r1, r3
    5eaa:	4610      	moveq	r0, r2
    5eac:	bd30      	pop	{r4, r5, pc}
    5eae:	ea91 0f03 	teq	r1, r3
    5eb2:	bf1e      	ittt	ne
    5eb4:	2100      	movne	r1, #0
    5eb6:	2000      	movne	r0, #0
    5eb8:	bd30      	popne	{r4, r5, pc}
    5eba:	ea5f 5c54 	movs.w	ip, r4, lsr #21
    5ebe:	d105      	bne.n	5ecc <__adddf3+0x230>
    5ec0:	0040      	lsls	r0, r0, #1
    5ec2:	4149      	adcs	r1, r1
    5ec4:	bf28      	it	cs
    5ec6:	f041 4100 	orrcs.w	r1, r1, #2147483648	; 0x80000000
    5eca:	bd30      	pop	{r4, r5, pc}
    5ecc:	f514 0480 	adds.w	r4, r4, #4194304	; 0x400000
    5ed0:	bf3c      	itt	cc
    5ed2:	f501 1180 	addcc.w	r1, r1, #1048576	; 0x100000
    5ed6:	bd30      	popcc	{r4, r5, pc}
    5ed8:	f001 4500 	and.w	r5, r1, #2147483648	; 0x80000000
    5edc:	f045 41fe 	orr.w	r1, r5, #2130706432	; 0x7f000000
    5ee0:	f441 0170 	orr.w	r1, r1, #15728640	; 0xf00000
    5ee4:	f04f 0000 	mov.w	r0, #0
    5ee8:	bd30      	pop	{r4, r5, pc}
    5eea:	ea7f 5c64 	mvns.w	ip, r4, asr #21
    5eee:	bf1a      	itte	ne
    5ef0:	4619      	movne	r1, r3
    5ef2:	4610      	movne	r0, r2
    5ef4:	ea7f 5c65 	mvnseq.w	ip, r5, asr #21
    5ef8:	bf1c      	itt	ne
    5efa:	460b      	movne	r3, r1
    5efc:	4602      	movne	r2, r0
    5efe:	ea50 3401 	orrs.w	r4, r0, r1, lsl #12
    5f02:	bf06      	itte	eq
    5f04:	ea52 3503 	orrseq.w	r5, r2, r3, lsl #12
    5f08:	ea91 0f03 	teqeq	r1, r3
    5f0c:	f441 2100 	orrne.w	r1, r1, #524288	; 0x80000
    5f10:	bd30      	pop	{r4, r5, pc}
    5f12:	bf00      	nop

00005f14 <__aeabi_ui2d>:
    5f14:	f090 0f00 	teq	r0, #0
    5f18:	bf04      	itt	eq
    5f1a:	2100      	moveq	r1, #0
    5f1c:	4770      	bxeq	lr
    5f1e:	b530      	push	{r4, r5, lr}
    5f20:	f44f 6480 	mov.w	r4, #1024	; 0x400
    5f24:	f104 0432 	add.w	r4, r4, #50	; 0x32
    5f28:	f04f 0500 	mov.w	r5, #0
    5f2c:	f04f 0100 	mov.w	r1, #0
    5f30:	e750      	b.n	5dd4 <__adddf3+0x138>
    5f32:	bf00      	nop

00005f34 <__aeabi_i2d>:
    5f34:	f090 0f00 	teq	r0, #0
    5f38:	bf04      	itt	eq
    5f3a:	2100      	moveq	r1, #0
    5f3c:	4770      	bxeq	lr
    5f3e:	b530      	push	{r4, r5, lr}
    5f40:	f44f 6480 	mov.w	r4, #1024	; 0x400
    5f44:	f104 0432 	add.w	r4, r4, #50	; 0x32
    5f48:	f010 4500 	ands.w	r5, r0, #2147483648	; 0x80000000
    5f4c:	bf48      	it	mi
    5f4e:	4240      	negmi	r0, r0
    5f50:	f04f 0100 	mov.w	r1, #0
    5f54:	e73e      	b.n	5dd4 <__adddf3+0x138>
    5f56:	bf00      	nop

00005f58 <__aeabi_f2d>:
    5f58:	0042      	lsls	r2, r0, #1
    5f5a:	ea4f 01e2 	mov.w	r1, r2, asr #3
    5f5e:	ea4f 0131 	mov.w	r1, r1, rrx
    5f62:	ea4f 7002 	mov.w	r0, r2, lsl #28
    5f66:	bf1f      	itttt	ne
    5f68:	f012 437f 	andsne.w	r3, r2, #4278190080	; 0xff000000
    5f6c:	f093 4f7f 	teqne	r3, #4278190080	; 0xff000000
    5f70:	f081 5160 	eorne.w	r1, r1, #939524096	; 0x38000000
    5f74:	4770      	bxne	lr
    5f76:	f092 0f00 	teq	r2, #0
    5f7a:	bf14      	ite	ne
    5f7c:	f093 4f7f 	teqne	r3, #4278190080	; 0xff000000
    5f80:	4770      	bxeq	lr
    5f82:	b530      	push	{r4, r5, lr}
    5f84:	f44f 7460 	mov.w	r4, #896	; 0x380
    5f88:	f001 4500 	and.w	r5, r1, #2147483648	; 0x80000000
    5f8c:	f021 4100 	bic.w	r1, r1, #2147483648	; 0x80000000
    5f90:	e720      	b.n	5dd4 <__adddf3+0x138>
    5f92:	bf00      	nop

00005f94 <__aeabi_ul2d>:
    5f94:	ea50 0201 	orrs.w	r2, r0, r1
    5f98:	bf08      	it	eq
    5f9a:	4770      	bxeq	lr
    5f9c:	b530      	push	{r4, r5, lr}
    5f9e:	f04f 0500 	mov.w	r5, #0
    5fa2:	e00a      	b.n	5fba <__aeabi_l2d+0x16>

00005fa4 <__aeabi_l2d>:
    5fa4:	ea50 0201 	orrs.w	r2, r0, r1
    5fa8:	bf08      	it	eq
    5faa:	4770      	bxeq	lr
    5fac:	b530      	push	{r4, r5, lr}
    5fae:	f011 4500 	ands.w	r5, r1, #2147483648	; 0x80000000
    5fb2:	d502      	bpl.n	5fba <__aeabi_l2d+0x16>
    5fb4:	4240      	negs	r0, r0
    5fb6:	eb61 0141 	sbc.w	r1, r1, r1, lsl #1
    5fba:	f44f 6480 	mov.w	r4, #1024	; 0x400
    5fbe:	f104 0432 	add.w	r4, r4, #50	; 0x32
    5fc2:	ea5f 5c91 	movs.w	ip, r1, lsr #22
    5fc6:	f43f aedc 	beq.w	5d82 <__adddf3+0xe6>
    5fca:	f04f 0203 	mov.w	r2, #3
    5fce:	ea5f 0cdc 	movs.w	ip, ip, lsr #3
    5fd2:	bf18      	it	ne
    5fd4:	3203      	addne	r2, #3
    5fd6:	ea5f 0cdc 	movs.w	ip, ip, lsr #3
    5fda:	bf18      	it	ne
    5fdc:	3203      	addne	r2, #3
    5fde:	eb02 02dc 	add.w	r2, r2, ip, lsr #3
    5fe2:	f1c2 0320 	rsb	r3, r2, #32
    5fe6:	fa00 fc03 	lsl.w	ip, r0, r3
    5fea:	fa20 f002 	lsr.w	r0, r0, r2
    5fee:	fa01 fe03 	lsl.w	lr, r1, r3
    5ff2:	ea40 000e 	orr.w	r0, r0, lr
    5ff6:	fa21 f102 	lsr.w	r1, r1, r2
    5ffa:	4414      	add	r4, r2
    5ffc:	e6c1      	b.n	5d82 <__adddf3+0xe6>
    5ffe:	bf00      	nop

00006000 <__aeabi_dmul>:
    6000:	b570      	push	{r4, r5, r6, lr}
    6002:	f04f 0cff 	mov.w	ip, #255	; 0xff
    6006:	f44c 6ce0 	orr.w	ip, ip, #1792	; 0x700
    600a:	ea1c 5411 	ands.w	r4, ip, r1, lsr #20
    600e:	bf1d      	ittte	ne
    6010:	ea1c 5513 	andsne.w	r5, ip, r3, lsr #20
    6014:	ea94 0f0c 	teqne	r4, ip
    6018:	ea95 0f0c 	teqne	r5, ip
    601c:	f000 f8de 	bleq	61dc <__aeabi_dmul+0x1dc>
    6020:	442c      	add	r4, r5
    6022:	ea81 0603 	eor.w	r6, r1, r3
    6026:	ea21 514c 	bic.w	r1, r1, ip, lsl #21
    602a:	ea23 534c 	bic.w	r3, r3, ip, lsl #21
    602e:	ea50 3501 	orrs.w	r5, r0, r1, lsl #12
    6032:	bf18      	it	ne
    6034:	ea52 3503 	orrsne.w	r5, r2, r3, lsl #12
    6038:	f441 1180 	orr.w	r1, r1, #1048576	; 0x100000
    603c:	f443 1380 	orr.w	r3, r3, #1048576	; 0x100000
    6040:	d038      	beq.n	60b4 <__aeabi_dmul+0xb4>
    6042:	fba0 ce02 	umull	ip, lr, r0, r2
    6046:	f04f 0500 	mov.w	r5, #0
    604a:	fbe1 e502 	umlal	lr, r5, r1, r2
    604e:	f006 4200 	and.w	r2, r6, #2147483648	; 0x80000000
    6052:	fbe0 e503 	umlal	lr, r5, r0, r3
    6056:	f04f 0600 	mov.w	r6, #0
    605a:	fbe1 5603 	umlal	r5, r6, r1, r3
    605e:	f09c 0f00 	teq	ip, #0
    6062:	bf18      	it	ne
    6064:	f04e 0e01 	orrne.w	lr, lr, #1
    6068:	f1a4 04ff 	sub.w	r4, r4, #255	; 0xff
    606c:	f5b6 7f00 	cmp.w	r6, #512	; 0x200
    6070:	f564 7440 	sbc.w	r4, r4, #768	; 0x300
    6074:	d204      	bcs.n	6080 <__aeabi_dmul+0x80>
    6076:	ea5f 0e4e 	movs.w	lr, lr, lsl #1
    607a:	416d      	adcs	r5, r5
    607c:	eb46 0606 	adc.w	r6, r6, r6
    6080:	ea42 21c6 	orr.w	r1, r2, r6, lsl #11
    6084:	ea41 5155 	orr.w	r1, r1, r5, lsr #21
    6088:	ea4f 20c5 	mov.w	r0, r5, lsl #11
    608c:	ea40 505e 	orr.w	r0, r0, lr, lsr #21
    6090:	ea4f 2ece 	mov.w	lr, lr, lsl #11
    6094:	f1b4 0cfd 	subs.w	ip, r4, #253	; 0xfd
    6098:	bf88      	it	hi
    609a:	f5bc 6fe0 	cmphi.w	ip, #1792	; 0x700
    609e:	d81e      	bhi.n	60de <__aeabi_dmul+0xde>
    60a0:	f1be 4f00 	cmp.w	lr, #2147483648	; 0x80000000
    60a4:	bf08      	it	eq
    60a6:	ea5f 0e50 	movseq.w	lr, r0, lsr #1
    60aa:	f150 0000 	adcs.w	r0, r0, #0
    60ae:	eb41 5104 	adc.w	r1, r1, r4, lsl #20
    60b2:	bd70      	pop	{r4, r5, r6, pc}
    60b4:	f006 4600 	and.w	r6, r6, #2147483648	; 0x80000000
    60b8:	ea46 0101 	orr.w	r1, r6, r1
    60bc:	ea40 0002 	orr.w	r0, r0, r2
    60c0:	ea81 0103 	eor.w	r1, r1, r3
    60c4:	ebb4 045c 	subs.w	r4, r4, ip, lsr #1
    60c8:	bfc2      	ittt	gt
    60ca:	ebd4 050c 	rsbsgt	r5, r4, ip
    60ce:	ea41 5104 	orrgt.w	r1, r1, r4, lsl #20
    60d2:	bd70      	popgt	{r4, r5, r6, pc}
    60d4:	f441 1180 	orr.w	r1, r1, #1048576	; 0x100000
    60d8:	f04f 0e00 	mov.w	lr, #0
    60dc:	3c01      	subs	r4, #1
    60de:	f300 80ab 	bgt.w	6238 <__aeabi_dmul+0x238>
    60e2:	f114 0f36 	cmn.w	r4, #54	; 0x36
    60e6:	bfde      	ittt	le
    60e8:	2000      	movle	r0, #0
    60ea:	f001 4100 	andle.w	r1, r1, #2147483648	; 0x80000000
    60ee:	bd70      	pople	{r4, r5, r6, pc}
    60f0:	f1c4 0400 	rsb	r4, r4, #0
    60f4:	3c20      	subs	r4, #32
    60f6:	da35      	bge.n	6164 <__aeabi_dmul+0x164>
    60f8:	340c      	adds	r4, #12
    60fa:	dc1b      	bgt.n	6134 <__aeabi_dmul+0x134>
    60fc:	f104 0414 	add.w	r4, r4, #20
    6100:	f1c4 0520 	rsb	r5, r4, #32
    6104:	fa00 f305 	lsl.w	r3, r0, r5
    6108:	fa20 f004 	lsr.w	r0, r0, r4
    610c:	fa01 f205 	lsl.w	r2, r1, r5
    6110:	ea40 0002 	orr.w	r0, r0, r2
    6114:	f001 4200 	and.w	r2, r1, #2147483648	; 0x80000000
    6118:	f021 4100 	bic.w	r1, r1, #2147483648	; 0x80000000
    611c:	eb10 70d3 	adds.w	r0, r0, r3, lsr #31
    6120:	fa21 f604 	lsr.w	r6, r1, r4
    6124:	eb42 0106 	adc.w	r1, r2, r6
    6128:	ea5e 0e43 	orrs.w	lr, lr, r3, lsl #1
    612c:	bf08      	it	eq
    612e:	ea20 70d3 	biceq.w	r0, r0, r3, lsr #31
    6132:	bd70      	pop	{r4, r5, r6, pc}
    6134:	f1c4 040c 	rsb	r4, r4, #12
    6138:	f1c4 0520 	rsb	r5, r4, #32
    613c:	fa00 f304 	lsl.w	r3, r0, r4
    6140:	fa20 f005 	lsr.w	r0, r0, r5
    6144:	fa01 f204 	lsl.w	r2, r1, r4
    6148:	ea40 0002 	orr.w	r0, r0, r2
    614c:	f001 4100 	and.w	r1, r1, #2147483648	; 0x80000000
    6150:	eb10 70d3 	adds.w	r0, r0, r3, lsr #31
    6154:	f141 0100 	adc.w	r1, r1, #0
    6158:	ea5e 0e43 	orrs.w	lr, lr, r3, lsl #1
    615c:	bf08      	it	eq
    615e:	ea20 70d3 	biceq.w	r0, r0, r3, lsr #31
    6162:	bd70      	pop	{r4, r5, r6, pc}
    6164:	f1c4 0520 	rsb	r5, r4, #32
    6168:	fa00 f205 	lsl.w	r2, r0, r5
    616c:	ea4e 0e02 	orr.w	lr, lr, r2
    6170:	fa20 f304 	lsr.w	r3, r0, r4
    6174:	fa01 f205 	lsl.w	r2, r1, r5
    6178:	ea43 0302 	orr.w	r3, r3, r2
    617c:	fa21 f004 	lsr.w	r0, r1, r4
    6180:	f001 4100 	and.w	r1, r1, #2147483648	; 0x80000000
    6184:	fa21 f204 	lsr.w	r2, r1, r4
    6188:	ea20 0002 	bic.w	r0, r0, r2
    618c:	eb00 70d3 	add.w	r0, r0, r3, lsr #31
    6190:	ea5e 0e43 	orrs.w	lr, lr, r3, lsl #1
    6194:	bf08      	it	eq
    6196:	ea20 70d3 	biceq.w	r0, r0, r3, lsr #31
    619a:	bd70      	pop	{r4, r5, r6, pc}
    619c:	f094 0f00 	teq	r4, #0
    61a0:	d10f      	bne.n	61c2 <__aeabi_dmul+0x1c2>
    61a2:	f001 4600 	and.w	r6, r1, #2147483648	; 0x80000000
    61a6:	0040      	lsls	r0, r0, #1
    61a8:	eb41 0101 	adc.w	r1, r1, r1
    61ac:	f411 1f80 	tst.w	r1, #1048576	; 0x100000
    61b0:	bf08      	it	eq
    61b2:	3c01      	subeq	r4, #1
    61b4:	d0f7      	beq.n	61a6 <__aeabi_dmul+0x1a6>
    61b6:	ea41 0106 	orr.w	r1, r1, r6
    61ba:	f095 0f00 	teq	r5, #0
    61be:	bf18      	it	ne
    61c0:	4770      	bxne	lr
    61c2:	f003 4600 	and.w	r6, r3, #2147483648	; 0x80000000
    61c6:	0052      	lsls	r2, r2, #1
    61c8:	eb43 0303 	adc.w	r3, r3, r3
    61cc:	f413 1f80 	tst.w	r3, #1048576	; 0x100000
    61d0:	bf08      	it	eq
    61d2:	3d01      	subeq	r5, #1
    61d4:	d0f7      	beq.n	61c6 <__aeabi_dmul+0x1c6>
    61d6:	ea43 0306 	orr.w	r3, r3, r6
    61da:	4770      	bx	lr
    61dc:	ea94 0f0c 	teq	r4, ip
    61e0:	ea0c 5513 	and.w	r5, ip, r3, lsr #20
    61e4:	bf18      	it	ne
    61e6:	ea95 0f0c 	teqne	r5, ip
    61ea:	d00c      	beq.n	6206 <__aeabi_dmul+0x206>
    61ec:	ea50 0641 	orrs.w	r6, r0, r1, lsl #1
    61f0:	bf18      	it	ne
    61f2:	ea52 0643 	orrsne.w	r6, r2, r3, lsl #1
    61f6:	d1d1      	bne.n	619c <__aeabi_dmul+0x19c>
    61f8:	ea81 0103 	eor.w	r1, r1, r3
    61fc:	f001 4100 	and.w	r1, r1, #2147483648	; 0x80000000
    6200:	f04f 0000 	mov.w	r0, #0
    6204:	bd70      	pop	{r4, r5, r6, pc}
    6206:	ea50 0641 	orrs.w	r6, r0, r1, lsl #1
    620a:	bf06      	itte	eq
    620c:	4610      	moveq	r0, r2
    620e:	4619      	moveq	r1, r3
    6210:	ea52 0643 	orrsne.w	r6, r2, r3, lsl #1
    6214:	d019      	beq.n	624a <__aeabi_dmul+0x24a>
    6216:	ea94 0f0c 	teq	r4, ip
    621a:	d102      	bne.n	6222 <__aeabi_dmul+0x222>
    621c:	ea50 3601 	orrs.w	r6, r0, r1, lsl #12
    6220:	d113      	bne.n	624a <__aeabi_dmul+0x24a>
    6222:	ea95 0f0c 	teq	r5, ip
    6226:	d105      	bne.n	6234 <__aeabi_dmul+0x234>
    6228:	ea52 3603 	orrs.w	r6, r2, r3, lsl #12
    622c:	bf1c      	itt	ne
    622e:	4610      	movne	r0, r2
    6230:	4619      	movne	r1, r3
    6232:	d10a      	bne.n	624a <__aeabi_dmul+0x24a>
    6234:	ea81 0103 	eor.w	r1, r1, r3
    6238:	f001 4100 	and.w	r1, r1, #2147483648	; 0x80000000
    623c:	f041 41fe 	orr.w	r1, r1, #2130706432	; 0x7f000000
    6240:	f441 0170 	orr.w	r1, r1, #15728640	; 0xf00000
    6244:	f04f 0000 	mov.w	r0, #0
    6248:	bd70      	pop	{r4, r5, r6, pc}
    624a:	f041 41fe 	orr.w	r1, r1, #2130706432	; 0x7f000000
    624e:	f441 0178 	orr.w	r1, r1, #16252928	; 0xf80000
    6252:	bd70      	pop	{r4, r5, r6, pc}

00006254 <__aeabi_ddiv>:
    6254:	b570      	push	{r4, r5, r6, lr}
    6256:	f04f 0cff 	mov.w	ip, #255	; 0xff
    625a:	f44c 6ce0 	orr.w	ip, ip, #1792	; 0x700
    625e:	ea1c 5411 	ands.w	r4, ip, r1, lsr #20
    6262:	bf1d      	ittte	ne
    6264:	ea1c 5513 	andsne.w	r5, ip, r3, lsr #20
    6268:	ea94 0f0c 	teqne	r4, ip
    626c:	ea95 0f0c 	teqne	r5, ip
    6270:	f000 f8a7 	bleq	63c2 <__aeabi_ddiv+0x16e>
    6274:	eba4 0405 	sub.w	r4, r4, r5
    6278:	ea81 0e03 	eor.w	lr, r1, r3
    627c:	ea52 3503 	orrs.w	r5, r2, r3, lsl #12
    6280:	ea4f 3101 	mov.w	r1, r1, lsl #12
    6284:	f000 8088 	beq.w	6398 <__aeabi_ddiv+0x144>
    6288:	ea4f 3303 	mov.w	r3, r3, lsl #12
    628c:	f04f 5580 	mov.w	r5, #268435456	; 0x10000000
    6290:	ea45 1313 	orr.w	r3, r5, r3, lsr #4
    6294:	ea43 6312 	orr.w	r3, r3, r2, lsr #24
    6298:	ea4f 2202 	mov.w	r2, r2, lsl #8
    629c:	ea45 1511 	orr.w	r5, r5, r1, lsr #4
    62a0:	ea45 6510 	orr.w	r5, r5, r0, lsr #24
    62a4:	ea4f 2600 	mov.w	r6, r0, lsl #8
    62a8:	f00e 4100 	and.w	r1, lr, #2147483648	; 0x80000000
    62ac:	429d      	cmp	r5, r3
    62ae:	bf08      	it	eq
    62b0:	4296      	cmpeq	r6, r2
    62b2:	f144 04fd 	adc.w	r4, r4, #253	; 0xfd
    62b6:	f504 7440 	add.w	r4, r4, #768	; 0x300
    62ba:	d202      	bcs.n	62c2 <__aeabi_ddiv+0x6e>
    62bc:	085b      	lsrs	r3, r3, #1
    62be:	ea4f 0232 	mov.w	r2, r2, rrx
    62c2:	1ab6      	subs	r6, r6, r2
    62c4:	eb65 0503 	sbc.w	r5, r5, r3
    62c8:	085b      	lsrs	r3, r3, #1
    62ca:	ea4f 0232 	mov.w	r2, r2, rrx
    62ce:	f44f 1080 	mov.w	r0, #1048576	; 0x100000
    62d2:	f44f 2c00 	mov.w	ip, #524288	; 0x80000
    62d6:	ebb6 0e02 	subs.w	lr, r6, r2
    62da:	eb75 0e03 	sbcs.w	lr, r5, r3
    62de:	bf22      	ittt	cs
    62e0:	1ab6      	subcs	r6, r6, r2
    62e2:	4675      	movcs	r5, lr
    62e4:	ea40 000c 	orrcs.w	r0, r0, ip
    62e8:	085b      	lsrs	r3, r3, #1
    62ea:	ea4f 0232 	mov.w	r2, r2, rrx
    62ee:	ebb6 0e02 	subs.w	lr, r6, r2
    62f2:	eb75 0e03 	sbcs.w	lr, r5, r3
    62f6:	bf22      	ittt	cs
    62f8:	1ab6      	subcs	r6, r6, r2
    62fa:	4675      	movcs	r5, lr
    62fc:	ea40 005c 	orrcs.w	r0, r0, ip, lsr #1
    6300:	085b      	lsrs	r3, r3, #1
    6302:	ea4f 0232 	mov.w	r2, r2, rrx
    6306:	ebb6 0e02 	subs.w	lr, r6, r2
    630a:	eb75 0e03 	sbcs.w	lr, r5, r3
    630e:	bf22      	ittt	cs
    6310:	1ab6      	subcs	r6, r6, r2
    6312:	4675      	movcs	r5, lr
    6314:	ea40 009c 	orrcs.w	r0, r0, ip, lsr #2
    6318:	085b      	lsrs	r3, r3, #1
    631a:	ea4f 0232 	mov.w	r2, r2, rrx
    631e:	ebb6 0e02 	subs.w	lr, r6, r2
    6322:	eb75 0e03 	sbcs.w	lr, r5, r3
    6326:	bf22      	ittt	cs
    6328:	1ab6      	subcs	r6, r6, r2
    632a:	4675      	movcs	r5, lr
    632c:	ea40 00dc 	orrcs.w	r0, r0, ip, lsr #3
    6330:	ea55 0e06 	orrs.w	lr, r5, r6
    6334:	d018      	beq.n	6368 <__aeabi_ddiv+0x114>
    6336:	ea4f 1505 	mov.w	r5, r5, lsl #4
    633a:	ea45 7516 	orr.w	r5, r5, r6, lsr #28
    633e:	ea4f 1606 	mov.w	r6, r6, lsl #4
    6342:	ea4f 03c3 	mov.w	r3, r3, lsl #3
    6346:	ea43 7352 	orr.w	r3, r3, r2, lsr #29
    634a:	ea4f 02c2 	mov.w	r2, r2, lsl #3
    634e:	ea5f 1c1c 	movs.w	ip, ip, lsr #4
    6352:	d1c0      	bne.n	62d6 <__aeabi_ddiv+0x82>
    6354:	f411 1f80 	tst.w	r1, #1048576	; 0x100000
    6358:	d10b      	bne.n	6372 <__aeabi_ddiv+0x11e>
    635a:	ea41 0100 	orr.w	r1, r1, r0
    635e:	f04f 0000 	mov.w	r0, #0
    6362:	f04f 4c00 	mov.w	ip, #2147483648	; 0x80000000
    6366:	e7b6      	b.n	62d6 <__aeabi_ddiv+0x82>
    6368:	f411 1f80 	tst.w	r1, #1048576	; 0x100000
    636c:	bf04      	itt	eq
    636e:	4301      	orreq	r1, r0
    6370:	2000      	moveq	r0, #0
    6372:	f1b4 0cfd 	subs.w	ip, r4, #253	; 0xfd
    6376:	bf88      	it	hi
    6378:	f5bc 6fe0 	cmphi.w	ip, #1792	; 0x700
    637c:	f63f aeaf 	bhi.w	60de <__aeabi_dmul+0xde>
    6380:	ebb5 0c03 	subs.w	ip, r5, r3
    6384:	bf04      	itt	eq
    6386:	ebb6 0c02 	subseq.w	ip, r6, r2
    638a:	ea5f 0c50 	movseq.w	ip, r0, lsr #1
    638e:	f150 0000 	adcs.w	r0, r0, #0
    6392:	eb41 5104 	adc.w	r1, r1, r4, lsl #20
    6396:	bd70      	pop	{r4, r5, r6, pc}
    6398:	f00e 4e00 	and.w	lr, lr, #2147483648	; 0x80000000
    639c:	ea4e 3111 	orr.w	r1, lr, r1, lsr #12
    63a0:	eb14 045c 	adds.w	r4, r4, ip, lsr #1
    63a4:	bfc2      	ittt	gt
    63a6:	ebd4 050c 	rsbsgt	r5, r4, ip
    63aa:	ea41 5104 	orrgt.w	r1, r1, r4, lsl #20
    63ae:	bd70      	popgt	{r4, r5, r6, pc}
    63b0:	f441 1180 	orr.w	r1, r1, #1048576	; 0x100000
    63b4:	f04f 0e00 	mov.w	lr, #0
    63b8:	3c01      	subs	r4, #1
    63ba:	e690      	b.n	60de <__aeabi_dmul+0xde>
    63bc:	ea45 0e06 	orr.w	lr, r5, r6
    63c0:	e68d      	b.n	60de <__aeabi_dmul+0xde>
    63c2:	ea0c 5513 	and.w	r5, ip, r3, lsr #20
    63c6:	ea94 0f0c 	teq	r4, ip
    63ca:	bf08      	it	eq
    63cc:	ea95 0f0c 	teqeq	r5, ip
    63d0:	f43f af3b 	beq.w	624a <__aeabi_dmul+0x24a>
    63d4:	ea94 0f0c 	teq	r4, ip
    63d8:	d10a      	bne.n	63f0 <__aeabi_ddiv+0x19c>
    63da:	ea50 3401 	orrs.w	r4, r0, r1, lsl #12
    63de:	f47f af34 	bne.w	624a <__aeabi_dmul+0x24a>
    63e2:	ea95 0f0c 	teq	r5, ip
    63e6:	f47f af25 	bne.w	6234 <__aeabi_dmul+0x234>
    63ea:	4610      	mov	r0, r2
    63ec:	4619      	mov	r1, r3
    63ee:	e72c      	b.n	624a <__aeabi_dmul+0x24a>
    63f0:	ea95 0f0c 	teq	r5, ip
    63f4:	d106      	bne.n	6404 <__aeabi_ddiv+0x1b0>
    63f6:	ea52 3503 	orrs.w	r5, r2, r3, lsl #12
    63fa:	f43f aefd 	beq.w	61f8 <__aeabi_dmul+0x1f8>
    63fe:	4610      	mov	r0, r2
    6400:	4619      	mov	r1, r3
    6402:	e722      	b.n	624a <__aeabi_dmul+0x24a>
    6404:	ea50 0641 	orrs.w	r6, r0, r1, lsl #1
    6408:	bf18      	it	ne
    640a:	ea52 0643 	orrsne.w	r6, r2, r3, lsl #1
    640e:	f47f aec5 	bne.w	619c <__aeabi_dmul+0x19c>
    6412:	ea50 0441 	orrs.w	r4, r0, r1, lsl #1
    6416:	f47f af0d 	bne.w	6234 <__aeabi_dmul+0x234>
    641a:	ea52 0543 	orrs.w	r5, r2, r3, lsl #1
    641e:	f47f aeeb 	bne.w	61f8 <__aeabi_dmul+0x1f8>
    6422:	e712      	b.n	624a <__aeabi_dmul+0x24a>

00006424 <__gedf2>:
    6424:	f04f 3cff 	mov.w	ip, #4294967295
    6428:	e006      	b.n	6438 <__cmpdf2+0x4>
    642a:	bf00      	nop

0000642c <__ledf2>:
    642c:	f04f 0c01 	mov.w	ip, #1
    6430:	e002      	b.n	6438 <__cmpdf2+0x4>
    6432:	bf00      	nop

00006434 <__cmpdf2>:
    6434:	f04f 0c01 	mov.w	ip, #1
    6438:	f84d cd04 	str.w	ip, [sp, #-4]!
    643c:	ea4f 0c41 	mov.w	ip, r1, lsl #1
    6440:	ea7f 5c6c 	mvns.w	ip, ip, asr #21
    6444:	ea4f 0c43 	mov.w	ip, r3, lsl #1
    6448:	bf18      	it	ne
    644a:	ea7f 5c6c 	mvnsne.w	ip, ip, asr #21
    644e:	d01b      	beq.n	6488 <__cmpdf2+0x54>
    6450:	b001      	add	sp, #4
    6452:	ea50 0c41 	orrs.w	ip, r0, r1, lsl #1
    6456:	bf0c      	ite	eq
    6458:	ea52 0c43 	orrseq.w	ip, r2, r3, lsl #1
    645c:	ea91 0f03 	teqne	r1, r3
    6460:	bf02      	ittt	eq
    6462:	ea90 0f02 	teqeq	r0, r2
    6466:	2000      	moveq	r0, #0
    6468:	4770      	bxeq	lr
    646a:	f110 0f00 	cmn.w	r0, #0
    646e:	ea91 0f03 	teq	r1, r3
    6472:	bf58      	it	pl
    6474:	4299      	cmppl	r1, r3
    6476:	bf08      	it	eq
    6478:	4290      	cmpeq	r0, r2
    647a:	bf2c      	ite	cs
    647c:	17d8      	asrcs	r0, r3, #31
    647e:	ea6f 70e3 	mvncc.w	r0, r3, asr #31
    6482:	f040 0001 	orr.w	r0, r0, #1
    6486:	4770      	bx	lr
    6488:	ea4f 0c41 	mov.w	ip, r1, lsl #1
    648c:	ea7f 5c6c 	mvns.w	ip, ip, asr #21
    6490:	d102      	bne.n	6498 <__cmpdf2+0x64>
    6492:	ea50 3c01 	orrs.w	ip, r0, r1, lsl #12
    6496:	d107      	bne.n	64a8 <__cmpdf2+0x74>
    6498:	ea4f 0c43 	mov.w	ip, r3, lsl #1
    649c:	ea7f 5c6c 	mvns.w	ip, ip, asr #21
    64a0:	d1d6      	bne.n	6450 <__cmpdf2+0x1c>
    64a2:	ea52 3c03 	orrs.w	ip, r2, r3, lsl #12
    64a6:	d0d3      	beq.n	6450 <__cmpdf2+0x1c>
    64a8:	f85d 0b04 	ldr.w	r0, [sp], #4
    64ac:	4770      	bx	lr
    64ae:	bf00      	nop

000064b0 <__aeabi_cdrcmple>:
    64b0:	4684      	mov	ip, r0
    64b2:	4610      	mov	r0, r2
    64b4:	4662      	mov	r2, ip
    64b6:	468c      	mov	ip, r1
    64b8:	4619      	mov	r1, r3
    64ba:	4663      	mov	r3, ip
    64bc:	e000      	b.n	64c0 <__aeabi_cdcmpeq>
    64be:	bf00      	nop

000064c0 <__aeabi_cdcmpeq>:
    64c0:	b501      	push	{r0, lr}
    64c2:	f7ff ffb7 	bl	6434 <__cmpdf2>
    64c6:	2800      	cmp	r0, #0
    64c8:	bf48      	it	mi
    64ca:	f110 0f00 	cmnmi.w	r0, #0
    64ce:	bd01      	pop	{r0, pc}

000064d0 <__aeabi_dcmpeq>:
    64d0:	f84d ed08 	str.w	lr, [sp, #-8]!
    64d4:	f7ff fff4 	bl	64c0 <__aeabi_cdcmpeq>
    64d8:	bf0c      	ite	eq
    64da:	2001      	moveq	r0, #1
    64dc:	2000      	movne	r0, #0
    64de:	f85d fb08 	ldr.w	pc, [sp], #8
    64e2:	bf00      	nop

000064e4 <__aeabi_dcmplt>:
    64e4:	f84d ed08 	str.w	lr, [sp, #-8]!
    64e8:	f7ff ffea 	bl	64c0 <__aeabi_cdcmpeq>
    64ec:	bf34      	ite	cc
    64ee:	2001      	movcc	r0, #1
    64f0:	2000      	movcs	r0, #0
    64f2:	f85d fb08 	ldr.w	pc, [sp], #8
    64f6:	bf00      	nop

000064f8 <__aeabi_dcmple>:
    64f8:	f84d ed08 	str.w	lr, [sp, #-8]!
    64fc:	f7ff ffe0 	bl	64c0 <__aeabi_cdcmpeq>
    6500:	bf94      	ite	ls
    6502:	2001      	movls	r0, #1
    6504:	2000      	movhi	r0, #0
    6506:	f85d fb08 	ldr.w	pc, [sp], #8
    650a:	bf00      	nop

0000650c <__aeabi_dcmpge>:
    650c:	f84d ed08 	str.w	lr, [sp, #-8]!
    6510:	f7ff ffce 	bl	64b0 <__aeabi_cdrcmple>
    6514:	bf94      	ite	ls
    6516:	2001      	movls	r0, #1
    6518:	2000      	movhi	r0, #0
    651a:	f85d fb08 	ldr.w	pc, [sp], #8
    651e:	bf00      	nop

00006520 <__aeabi_dcmpgt>:
    6520:	f84d ed08 	str.w	lr, [sp, #-8]!
    6524:	f7ff ffc4 	bl	64b0 <__aeabi_cdrcmple>
    6528:	bf34      	ite	cc
    652a:	2001      	movcc	r0, #1
    652c:	2000      	movcs	r0, #0
    652e:	f85d fb08 	ldr.w	pc, [sp], #8
    6532:	bf00      	nop

00006534 <__aeabi_d2f>:
    6534:	ea4f 0241 	mov.w	r2, r1, lsl #1
    6538:	f1b2 43e0 	subs.w	r3, r2, #1879048192	; 0x70000000
    653c:	bf24      	itt	cs
    653e:	f5b3 1c00 	subscs.w	ip, r3, #2097152	; 0x200000
    6542:	f1dc 5cfe 	rsbscs	ip, ip, #532676608	; 0x1fc00000
    6546:	d90d      	bls.n	6564 <__aeabi_d2f+0x30>
    6548:	f001 4c00 	and.w	ip, r1, #2147483648	; 0x80000000
    654c:	ea4f 02c0 	mov.w	r2, r0, lsl #3
    6550:	ea4c 7050 	orr.w	r0, ip, r0, lsr #29
    6554:	f1b2 4f00 	cmp.w	r2, #2147483648	; 0x80000000
    6558:	eb40 0083 	adc.w	r0, r0, r3, lsl #2
    655c:	bf08      	it	eq
    655e:	f020 0001 	biceq.w	r0, r0, #1
    6562:	4770      	bx	lr
    6564:	f011 4f80 	tst.w	r1, #1073741824	; 0x40000000
    6568:	d121      	bne.n	65ae <__aeabi_d2f+0x7a>
    656a:	f113 7238 	adds.w	r2, r3, #48234496	; 0x2e00000
    656e:	bfbc      	itt	lt
    6570:	f001 4000 	andlt.w	r0, r1, #2147483648	; 0x80000000
    6574:	4770      	bxlt	lr
    6576:	f441 1180 	orr.w	r1, r1, #1048576	; 0x100000
    657a:	ea4f 5252 	mov.w	r2, r2, lsr #21
    657e:	f1c2 0218 	rsb	r2, r2, #24
    6582:	f1c2 0c20 	rsb	ip, r2, #32
    6586:	fa10 f30c 	lsls.w	r3, r0, ip
    658a:	fa20 f002 	lsr.w	r0, r0, r2
    658e:	bf18      	it	ne
    6590:	f040 0001 	orrne.w	r0, r0, #1
    6594:	ea4f 23c1 	mov.w	r3, r1, lsl #11
    6598:	ea4f 23d3 	mov.w	r3, r3, lsr #11
    659c:	fa03 fc0c 	lsl.w	ip, r3, ip
    65a0:	ea40 000c 	orr.w	r0, r0, ip
    65a4:	fa23 f302 	lsr.w	r3, r3, r2
    65a8:	ea4f 0343 	mov.w	r3, r3, lsl #1
    65ac:	e7cc      	b.n	6548 <__aeabi_d2f+0x14>
    65ae:	ea7f 5362 	mvns.w	r3, r2, asr #21
    65b2:	d107      	bne.n	65c4 <__aeabi_d2f+0x90>
    65b4:	ea50 3301 	orrs.w	r3, r0, r1, lsl #12
    65b8:	bf1e      	ittt	ne
    65ba:	f04f 40fe 	movne.w	r0, #2130706432	; 0x7f000000
    65be:	f440 0040 	orrne.w	r0, r0, #12582912	; 0xc00000
    65c2:	4770      	bxne	lr
    65c4:	f001 4000 	and.w	r0, r1, #2147483648	; 0x80000000
    65c8:	f040 40fe 	orr.w	r0, r0, #2130706432	; 0x7f000000
    65cc:	f440 0000 	orr.w	r0, r0, #8388608	; 0x800000
    65d0:	4770      	bx	lr
    65d2:	bf00      	nop

000065d4 <__aeabi_frsub>:
    65d4:	f080 4000 	eor.w	r0, r0, #2147483648	; 0x80000000
    65d8:	e002      	b.n	65e0 <__addsf3>
    65da:	bf00      	nop

000065dc <__aeabi_fsub>:
    65dc:	f081 4100 	eor.w	r1, r1, #2147483648	; 0x80000000

000065e0 <__addsf3>:
    65e0:	0042      	lsls	r2, r0, #1
    65e2:	bf1f      	itttt	ne
    65e4:	ea5f 0341 	movsne.w	r3, r1, lsl #1
    65e8:	ea92 0f03 	teqne	r2, r3
    65ec:	ea7f 6c22 	mvnsne.w	ip, r2, asr #24
    65f0:	ea7f 6c23 	mvnsne.w	ip, r3, asr #24
    65f4:	d06a      	beq.n	66cc <__addsf3+0xec>
    65f6:	ea4f 6212 	mov.w	r2, r2, lsr #24
    65fa:	ebd2 6313 	rsbs	r3, r2, r3, lsr #24
    65fe:	bfc1      	itttt	gt
    6600:	18d2      	addgt	r2, r2, r3
    6602:	4041      	eorgt	r1, r0
    6604:	4048      	eorgt	r0, r1
    6606:	4041      	eorgt	r1, r0
    6608:	bfb8      	it	lt
    660a:	425b      	neglt	r3, r3
    660c:	2b19      	cmp	r3, #25
    660e:	bf88      	it	hi
    6610:	4770      	bxhi	lr
    6612:	f010 4f00 	tst.w	r0, #2147483648	; 0x80000000
    6616:	f440 0000 	orr.w	r0, r0, #8388608	; 0x800000
    661a:	f020 407f 	bic.w	r0, r0, #4278190080	; 0xff000000
    661e:	bf18      	it	ne
    6620:	4240      	negne	r0, r0
    6622:	f011 4f00 	tst.w	r1, #2147483648	; 0x80000000
    6626:	f441 0100 	orr.w	r1, r1, #8388608	; 0x800000
    662a:	f021 417f 	bic.w	r1, r1, #4278190080	; 0xff000000
    662e:	bf18      	it	ne
    6630:	4249      	negne	r1, r1
    6632:	ea92 0f03 	teq	r2, r3
    6636:	d03f      	beq.n	66b8 <__addsf3+0xd8>
    6638:	f1a2 0201 	sub.w	r2, r2, #1
    663c:	fa41 fc03 	asr.w	ip, r1, r3
    6640:	eb10 000c 	adds.w	r0, r0, ip
    6644:	f1c3 0320 	rsb	r3, r3, #32
    6648:	fa01 f103 	lsl.w	r1, r1, r3
    664c:	f000 4300 	and.w	r3, r0, #2147483648	; 0x80000000
    6650:	d502      	bpl.n	6658 <__addsf3+0x78>
    6652:	4249      	negs	r1, r1
    6654:	eb60 0040 	sbc.w	r0, r0, r0, lsl #1
    6658:	f5b0 0f00 	cmp.w	r0, #8388608	; 0x800000
    665c:	d313      	bcc.n	6686 <__addsf3+0xa6>
    665e:	f1b0 7f80 	cmp.w	r0, #16777216	; 0x1000000
    6662:	d306      	bcc.n	6672 <__addsf3+0x92>
    6664:	0840      	lsrs	r0, r0, #1
    6666:	ea4f 0131 	mov.w	r1, r1, rrx
    666a:	f102 0201 	add.w	r2, r2, #1
    666e:	2afe      	cmp	r2, #254	; 0xfe
    6670:	d251      	bcs.n	6716 <__addsf3+0x136>
    6672:	f1b1 4f00 	cmp.w	r1, #2147483648	; 0x80000000
    6676:	eb40 50c2 	adc.w	r0, r0, r2, lsl #23
    667a:	bf08      	it	eq
    667c:	f020 0001 	biceq.w	r0, r0, #1
    6680:	ea40 0003 	orr.w	r0, r0, r3
    6684:	4770      	bx	lr
    6686:	0049      	lsls	r1, r1, #1
    6688:	eb40 0000 	adc.w	r0, r0, r0
    668c:	f410 0f00 	tst.w	r0, #8388608	; 0x800000
    6690:	f1a2 0201 	sub.w	r2, r2, #1
    6694:	d1ed      	bne.n	6672 <__addsf3+0x92>
    6696:	fab0 fc80 	clz	ip, r0
    669a:	f1ac 0c08 	sub.w	ip, ip, #8
    669e:	ebb2 020c 	subs.w	r2, r2, ip
    66a2:	fa00 f00c 	lsl.w	r0, r0, ip
    66a6:	bfaa      	itet	ge
    66a8:	eb00 50c2 	addge.w	r0, r0, r2, lsl #23
    66ac:	4252      	neglt	r2, r2
    66ae:	4318      	orrge	r0, r3
    66b0:	bfbc      	itt	lt
    66b2:	40d0      	lsrlt	r0, r2
    66b4:	4318      	orrlt	r0, r3
    66b6:	4770      	bx	lr
    66b8:	f092 0f00 	teq	r2, #0
    66bc:	f481 0100 	eor.w	r1, r1, #8388608	; 0x800000
    66c0:	bf06      	itte	eq
    66c2:	f480 0000 	eoreq.w	r0, r0, #8388608	; 0x800000
    66c6:	3201      	addeq	r2, #1
    66c8:	3b01      	subne	r3, #1
    66ca:	e7b5      	b.n	6638 <__addsf3+0x58>
    66cc:	ea4f 0341 	mov.w	r3, r1, lsl #1
    66d0:	ea7f 6c22 	mvns.w	ip, r2, asr #24
    66d4:	bf18      	it	ne
    66d6:	ea7f 6c23 	mvnsne.w	ip, r3, asr #24
    66da:	d021      	beq.n	6720 <__addsf3+0x140>
    66dc:	ea92 0f03 	teq	r2, r3
    66e0:	d004      	beq.n	66ec <__addsf3+0x10c>
    66e2:	f092 0f00 	teq	r2, #0
    66e6:	bf08      	it	eq
    66e8:	4608      	moveq	r0, r1
    66ea:	4770      	bx	lr
    66ec:	ea90 0f01 	teq	r0, r1
    66f0:	bf1c      	itt	ne
    66f2:	2000      	movne	r0, #0
    66f4:	4770      	bxne	lr
    66f6:	f012 4f7f 	tst.w	r2, #4278190080	; 0xff000000
    66fa:	d104      	bne.n	6706 <__addsf3+0x126>
    66fc:	0040      	lsls	r0, r0, #1
    66fe:	bf28      	it	cs
    6700:	f040 4000 	orrcs.w	r0, r0, #2147483648	; 0x80000000
    6704:	4770      	bx	lr
    6706:	f112 7200 	adds.w	r2, r2, #33554432	; 0x2000000
    670a:	bf3c      	itt	cc
    670c:	f500 0000 	addcc.w	r0, r0, #8388608	; 0x800000
    6710:	4770      	bxcc	lr
    6712:	f000 4300 	and.w	r3, r0, #2147483648	; 0x80000000
    6716:	f043 40fe 	orr.w	r0, r3, #2130706432	; 0x7f000000
    671a:	f440 0000 	orr.w	r0, r0, #8388608	; 0x800000
    671e:	4770      	bx	lr
    6720:	ea7f 6222 	mvns.w	r2, r2, asr #24
    6724:	bf16      	itet	ne
    6726:	4608      	movne	r0, r1
    6728:	ea7f 6323 	mvnseq.w	r3, r3, asr #24
    672c:	4601      	movne	r1, r0
    672e:	0242      	lsls	r2, r0, #9
    6730:	bf06      	itte	eq
    6732:	ea5f 2341 	movseq.w	r3, r1, lsl #9
    6736:	ea90 0f01 	teqeq	r0, r1
    673a:	f440 0080 	orrne.w	r0, r0, #4194304	; 0x400000
    673e:	4770      	bx	lr

00006740 <__aeabi_ui2f>:
    6740:	f04f 0300 	mov.w	r3, #0
    6744:	e004      	b.n	6750 <__aeabi_i2f+0x8>
    6746:	bf00      	nop

00006748 <__aeabi_i2f>:
    6748:	f010 4300 	ands.w	r3, r0, #2147483648	; 0x80000000
    674c:	bf48      	it	mi
    674e:	4240      	negmi	r0, r0
    6750:	ea5f 0c00 	movs.w	ip, r0
    6754:	bf08      	it	eq
    6756:	4770      	bxeq	lr
    6758:	f043 4396 	orr.w	r3, r3, #1258291200	; 0x4b000000
    675c:	4601      	mov	r1, r0
    675e:	f04f 0000 	mov.w	r0, #0
    6762:	e01c      	b.n	679e <__aeabi_l2f+0x2a>

00006764 <__aeabi_ul2f>:
    6764:	ea50 0201 	orrs.w	r2, r0, r1
    6768:	bf08      	it	eq
    676a:	4770      	bxeq	lr
    676c:	f04f 0300 	mov.w	r3, #0
    6770:	e00a      	b.n	6788 <__aeabi_l2f+0x14>
    6772:	bf00      	nop

00006774 <__aeabi_l2f>:
    6774:	ea50 0201 	orrs.w	r2, r0, r1
    6778:	bf08      	it	eq
    677a:	4770      	bxeq	lr
    677c:	f011 4300 	ands.w	r3, r1, #2147483648	; 0x80000000
    6780:	d502      	bpl.n	6788 <__aeabi_l2f+0x14>
    6782:	4240      	negs	r0, r0
    6784:	eb61 0141 	sbc.w	r1, r1, r1, lsl #1
    6788:	ea5f 0c01 	movs.w	ip, r1
    678c:	bf02      	ittt	eq
    678e:	4684      	moveq	ip, r0
    6790:	4601      	moveq	r1, r0
    6792:	2000      	moveq	r0, #0
    6794:	f043 43b6 	orr.w	r3, r3, #1526726656	; 0x5b000000
    6798:	bf08      	it	eq
    679a:	f1a3 5380 	subeq.w	r3, r3, #268435456	; 0x10000000
    679e:	f5a3 0300 	sub.w	r3, r3, #8388608	; 0x800000
    67a2:	fabc f28c 	clz	r2, ip
    67a6:	3a08      	subs	r2, #8
    67a8:	eba3 53c2 	sub.w	r3, r3, r2, lsl #23
    67ac:	db10      	blt.n	67d0 <__aeabi_l2f+0x5c>
    67ae:	fa01 fc02 	lsl.w	ip, r1, r2
    67b2:	4463      	add	r3, ip
    67b4:	fa00 fc02 	lsl.w	ip, r0, r2
    67b8:	f1c2 0220 	rsb	r2, r2, #32
    67bc:	f1bc 4f00 	cmp.w	ip, #2147483648	; 0x80000000
    67c0:	fa20 f202 	lsr.w	r2, r0, r2
    67c4:	eb43 0002 	adc.w	r0, r3, r2
    67c8:	bf08      	it	eq
    67ca:	f020 0001 	biceq.w	r0, r0, #1
    67ce:	4770      	bx	lr
    67d0:	f102 0220 	add.w	r2, r2, #32
    67d4:	fa01 fc02 	lsl.w	ip, r1, r2
    67d8:	f1c2 0220 	rsb	r2, r2, #32
    67dc:	ea50 004c 	orrs.w	r0, r0, ip, lsl #1
    67e0:	fa21 f202 	lsr.w	r2, r1, r2
    67e4:	eb43 0002 	adc.w	r0, r3, r2
    67e8:	bf08      	it	eq
    67ea:	ea20 70dc 	biceq.w	r0, r0, ip, lsr #31
    67ee:	4770      	bx	lr

000067f0 <__aeabi_fmul>:
    67f0:	f04f 0cff 	mov.w	ip, #255	; 0xff
    67f4:	ea1c 52d0 	ands.w	r2, ip, r0, lsr #23
    67f8:	bf1e      	ittt	ne
    67fa:	ea1c 53d1 	andsne.w	r3, ip, r1, lsr #23
    67fe:	ea92 0f0c 	teqne	r2, ip
    6802:	ea93 0f0c 	teqne	r3, ip
    6806:	d06f      	beq.n	68e8 <__aeabi_fmul+0xf8>
    6808:	441a      	add	r2, r3
    680a:	ea80 0c01 	eor.w	ip, r0, r1
    680e:	0240      	lsls	r0, r0, #9
    6810:	bf18      	it	ne
    6812:	ea5f 2141 	movsne.w	r1, r1, lsl #9
    6816:	d01e      	beq.n	6856 <__aeabi_fmul+0x66>
    6818:	f04f 6300 	mov.w	r3, #134217728	; 0x8000000
    681c:	ea43 1050 	orr.w	r0, r3, r0, lsr #5
    6820:	ea43 1151 	orr.w	r1, r3, r1, lsr #5
    6824:	fba0 3101 	umull	r3, r1, r0, r1
    6828:	f00c 4000 	and.w	r0, ip, #2147483648	; 0x80000000
    682c:	f5b1 0f00 	cmp.w	r1, #8388608	; 0x800000
    6830:	bf3e      	ittt	cc
    6832:	0049      	lslcc	r1, r1, #1
    6834:	ea41 71d3 	orrcc.w	r1, r1, r3, lsr #31
    6838:	005b      	lslcc	r3, r3, #1
    683a:	ea40 0001 	orr.w	r0, r0, r1
    683e:	f162 027f 	sbc.w	r2, r2, #127	; 0x7f
    6842:	2afd      	cmp	r2, #253	; 0xfd
    6844:	d81d      	bhi.n	6882 <__aeabi_fmul+0x92>
    6846:	f1b3 4f00 	cmp.w	r3, #2147483648	; 0x80000000
    684a:	eb40 50c2 	adc.w	r0, r0, r2, lsl #23
    684e:	bf08      	it	eq
    6850:	f020 0001 	biceq.w	r0, r0, #1
    6854:	4770      	bx	lr
    6856:	f090 0f00 	teq	r0, #0
    685a:	f00c 4c00 	and.w	ip, ip, #2147483648	; 0x80000000
    685e:	bf08      	it	eq
    6860:	0249      	lsleq	r1, r1, #9
    6862:	ea4c 2050 	orr.w	r0, ip, r0, lsr #9
    6866:	ea40 2051 	orr.w	r0, r0, r1, lsr #9
    686a:	3a7f      	subs	r2, #127	; 0x7f
    686c:	bfc2      	ittt	gt
    686e:	f1d2 03ff 	rsbsgt	r3, r2, #255	; 0xff
    6872:	ea40 50c2 	orrgt.w	r0, r0, r2, lsl #23
    6876:	4770      	bxgt	lr
    6878:	f440 0000 	orr.w	r0, r0, #8388608	; 0x800000
    687c:	f04f 0300 	mov.w	r3, #0
    6880:	3a01      	subs	r2, #1
    6882:	dc5d      	bgt.n	6940 <__aeabi_fmul+0x150>
    6884:	f112 0f19 	cmn.w	r2, #25
    6888:	bfdc      	itt	le
    688a:	f000 4000 	andle.w	r0, r0, #2147483648	; 0x80000000
    688e:	4770      	bxle	lr
    6890:	f1c2 0200 	rsb	r2, r2, #0
    6894:	0041      	lsls	r1, r0, #1
    6896:	fa21 f102 	lsr.w	r1, r1, r2
    689a:	f1c2 0220 	rsb	r2, r2, #32
    689e:	fa00 fc02 	lsl.w	ip, r0, r2
    68a2:	ea5f 0031 	movs.w	r0, r1, rrx
    68a6:	f140 0000 	adc.w	r0, r0, #0
    68aa:	ea53 034c 	orrs.w	r3, r3, ip, lsl #1
    68ae:	bf08      	it	eq
    68b0:	ea20 70dc 	biceq.w	r0, r0, ip, lsr #31
    68b4:	4770      	bx	lr
    68b6:	f092 0f00 	teq	r2, #0
    68ba:	f000 4c00 	and.w	ip, r0, #2147483648	; 0x80000000
    68be:	bf02      	ittt	eq
    68c0:	0040      	lsleq	r0, r0, #1
    68c2:	f410 0f00 	tsteq.w	r0, #8388608	; 0x800000
    68c6:	3a01      	subeq	r2, #1
    68c8:	d0f9      	beq.n	68be <__aeabi_fmul+0xce>
    68ca:	ea40 000c 	orr.w	r0, r0, ip
    68ce:	f093 0f00 	teq	r3, #0
    68d2:	f001 4c00 	and.w	ip, r1, #2147483648	; 0x80000000
    68d6:	bf02      	ittt	eq
    68d8:	0049      	lsleq	r1, r1, #1
    68da:	f411 0f00 	tsteq.w	r1, #8388608	; 0x800000
    68de:	3b01      	subeq	r3, #1
    68e0:	d0f9      	beq.n	68d6 <__aeabi_fmul+0xe6>
    68e2:	ea41 010c 	orr.w	r1, r1, ip
    68e6:	e78f      	b.n	6808 <__aeabi_fmul+0x18>
    68e8:	ea0c 53d1 	and.w	r3, ip, r1, lsr #23
    68ec:	ea92 0f0c 	teq	r2, ip
    68f0:	bf18      	it	ne
    68f2:	ea93 0f0c 	teqne	r3, ip
    68f6:	d00a      	beq.n	690e <__aeabi_fmul+0x11e>
    68f8:	f030 4c00 	bics.w	ip, r0, #2147483648	; 0x80000000
    68fc:	bf18      	it	ne
    68fe:	f031 4c00 	bicsne.w	ip, r1, #2147483648	; 0x80000000
    6902:	d1d8      	bne.n	68b6 <__aeabi_fmul+0xc6>
    6904:	ea80 0001 	eor.w	r0, r0, r1
    6908:	f000 4000 	and.w	r0, r0, #2147483648	; 0x80000000
    690c:	4770      	bx	lr
    690e:	f090 0f00 	teq	r0, #0
    6912:	bf17      	itett	ne
    6914:	f090 4f00 	teqne	r0, #2147483648	; 0x80000000
    6918:	4608      	moveq	r0, r1
    691a:	f091 0f00 	teqne	r1, #0
    691e:	f091 4f00 	teqne	r1, #2147483648	; 0x80000000
    6922:	d014      	beq.n	694e <__aeabi_fmul+0x15e>
    6924:	ea92 0f0c 	teq	r2, ip
    6928:	d101      	bne.n	692e <__aeabi_fmul+0x13e>
    692a:	0242      	lsls	r2, r0, #9
    692c:	d10f      	bne.n	694e <__aeabi_fmul+0x15e>
    692e:	ea93 0f0c 	teq	r3, ip
    6932:	d103      	bne.n	693c <__aeabi_fmul+0x14c>
    6934:	024b      	lsls	r3, r1, #9
    6936:	bf18      	it	ne
    6938:	4608      	movne	r0, r1
    693a:	d108      	bne.n	694e <__aeabi_fmul+0x15e>
    693c:	ea80 0001 	eor.w	r0, r0, r1
    6940:	f000 4000 	and.w	r0, r0, #2147483648	; 0x80000000
    6944:	f040 40fe 	orr.w	r0, r0, #2130706432	; 0x7f000000
    6948:	f440 0000 	orr.w	r0, r0, #8388608	; 0x800000
    694c:	4770      	bx	lr
    694e:	f040 40fe 	orr.w	r0, r0, #2130706432	; 0x7f000000
    6952:	f440 0040 	orr.w	r0, r0, #12582912	; 0xc00000
    6956:	4770      	bx	lr

00006958 <__aeabi_fdiv>:
    6958:	f04f 0cff 	mov.w	ip, #255	; 0xff
    695c:	ea1c 52d0 	ands.w	r2, ip, r0, lsr #23
    6960:	bf1e      	ittt	ne
    6962:	ea1c 53d1 	andsne.w	r3, ip, r1, lsr #23
    6966:	ea92 0f0c 	teqne	r2, ip
    696a:	ea93 0f0c 	teqne	r3, ip
    696e:	d069      	beq.n	6a44 <__aeabi_fdiv+0xec>
    6970:	eba2 0203 	sub.w	r2, r2, r3
    6974:	ea80 0c01 	eor.w	ip, r0, r1
    6978:	0249      	lsls	r1, r1, #9
    697a:	ea4f 2040 	mov.w	r0, r0, lsl #9
    697e:	d037      	beq.n	69f0 <__aeabi_fdiv+0x98>
    6980:	f04f 5380 	mov.w	r3, #268435456	; 0x10000000
    6984:	ea43 1111 	orr.w	r1, r3, r1, lsr #4
    6988:	ea43 1310 	orr.w	r3, r3, r0, lsr #4
    698c:	f00c 4000 	and.w	r0, ip, #2147483648	; 0x80000000
    6990:	428b      	cmp	r3, r1
    6992:	bf38      	it	cc
    6994:	005b      	lslcc	r3, r3, #1
    6996:	f142 027d 	adc.w	r2, r2, #125	; 0x7d
    699a:	f44f 0c00 	mov.w	ip, #8388608	; 0x800000
    699e:	428b      	cmp	r3, r1
    69a0:	bf24      	itt	cs
    69a2:	1a5b      	subcs	r3, r3, r1
    69a4:	ea40 000c 	orrcs.w	r0, r0, ip
    69a8:	ebb3 0f51 	cmp.w	r3, r1, lsr #1
    69ac:	bf24      	itt	cs
    69ae:	eba3 0351 	subcs.w	r3, r3, r1, lsr #1
    69b2:	ea40 005c 	orrcs.w	r0, r0, ip, lsr #1
    69b6:	ebb3 0f91 	cmp.w	r3, r1, lsr #2
    69ba:	bf24      	itt	cs
    69bc:	eba3 0391 	subcs.w	r3, r3, r1, lsr #2
    69c0:	ea40 009c 	orrcs.w	r0, r0, ip, lsr #2
    69c4:	ebb3 0fd1 	cmp.w	r3, r1, lsr #3
    69c8:	bf24      	itt	cs
    69ca:	eba3 03d1 	subcs.w	r3, r3, r1, lsr #3
    69ce:	ea40 00dc 	orrcs.w	r0, r0, ip, lsr #3
    69d2:	011b      	lsls	r3, r3, #4
    69d4:	bf18      	it	ne
    69d6:	ea5f 1c1c 	movsne.w	ip, ip, lsr #4
    69da:	d1e0      	bne.n	699e <__aeabi_fdiv+0x46>
    69dc:	2afd      	cmp	r2, #253	; 0xfd
    69de:	f63f af50 	bhi.w	6882 <__aeabi_fmul+0x92>
    69e2:	428b      	cmp	r3, r1
    69e4:	eb40 50c2 	adc.w	r0, r0, r2, lsl #23
    69e8:	bf08      	it	eq
    69ea:	f020 0001 	biceq.w	r0, r0, #1
    69ee:	4770      	bx	lr
    69f0:	f00c 4c00 	and.w	ip, ip, #2147483648	; 0x80000000
    69f4:	ea4c 2050 	orr.w	r0, ip, r0, lsr #9
    69f8:	327f      	adds	r2, #127	; 0x7f
    69fa:	bfc2      	ittt	gt
    69fc:	f1d2 03ff 	rsbsgt	r3, r2, #255	; 0xff
    6a00:	ea40 50c2 	orrgt.w	r0, r0, r2, lsl #23
    6a04:	4770      	bxgt	lr
    6a06:	f440 0000 	orr.w	r0, r0, #8388608	; 0x800000
    6a0a:	f04f 0300 	mov.w	r3, #0
    6a0e:	3a01      	subs	r2, #1
    6a10:	e737      	b.n	6882 <__aeabi_fmul+0x92>
    6a12:	f092 0f00 	teq	r2, #0
    6a16:	f000 4c00 	and.w	ip, r0, #2147483648	; 0x80000000
    6a1a:	bf02      	ittt	eq
    6a1c:	0040      	lsleq	r0, r0, #1
    6a1e:	f410 0f00 	tsteq.w	r0, #8388608	; 0x800000
    6a22:	3a01      	subeq	r2, #1
    6a24:	d0f9      	beq.n	6a1a <__aeabi_fdiv+0xc2>
    6a26:	ea40 000c 	orr.w	r0, r0, ip
    6a2a:	f093 0f00 	teq	r3, #0
    6a2e:	f001 4c00 	and.w	ip, r1, #2147483648	; 0x80000000
    6a32:	bf02      	ittt	eq
    6a34:	0049      	lsleq	r1, r1, #1
    6a36:	f411 0f00 	tsteq.w	r1, #8388608	; 0x800000
    6a3a:	3b01      	subeq	r3, #1
    6a3c:	d0f9      	beq.n	6a32 <__aeabi_fdiv+0xda>
    6a3e:	ea41 010c 	orr.w	r1, r1, ip
    6a42:	e795      	b.n	6970 <__aeabi_fdiv+0x18>
    6a44:	ea0c 53d1 	and.w	r3, ip, r1, lsr #23
    6a48:	ea92 0f0c 	teq	r2, ip
    6a4c:	d108      	bne.n	6a60 <__aeabi_fdiv+0x108>
    6a4e:	0242      	lsls	r2, r0, #9
    6a50:	f47f af7d 	bne.w	694e <__aeabi_fmul+0x15e>
    6a54:	ea93 0f0c 	teq	r3, ip
    6a58:	f47f af70 	bne.w	693c <__aeabi_fmul+0x14c>
    6a5c:	4608      	mov	r0, r1
    6a5e:	e776      	b.n	694e <__aeabi_fmul+0x15e>
    6a60:	ea93 0f0c 	teq	r3, ip
    6a64:	d104      	bne.n	6a70 <__aeabi_fdiv+0x118>
    6a66:	024b      	lsls	r3, r1, #9
    6a68:	f43f af4c 	beq.w	6904 <__aeabi_fmul+0x114>
    6a6c:	4608      	mov	r0, r1
    6a6e:	e76e      	b.n	694e <__aeabi_fmul+0x15e>
    6a70:	f030 4c00 	bics.w	ip, r0, #2147483648	; 0x80000000
    6a74:	bf18      	it	ne
    6a76:	f031 4c00 	bicsne.w	ip, r1, #2147483648	; 0x80000000
    6a7a:	d1ca      	bne.n	6a12 <__aeabi_fdiv+0xba>
    6a7c:	f030 4200 	bics.w	r2, r0, #2147483648	; 0x80000000
    6a80:	f47f af5c 	bne.w	693c <__aeabi_fmul+0x14c>
    6a84:	f031 4300 	bics.w	r3, r1, #2147483648	; 0x80000000
    6a88:	f47f af3c 	bne.w	6904 <__aeabi_fmul+0x114>
    6a8c:	e75f      	b.n	694e <__aeabi_fmul+0x15e>
    6a8e:	bf00      	nop

00006a90 <__gesf2>:
    6a90:	f04f 3cff 	mov.w	ip, #4294967295
    6a94:	e006      	b.n	6aa4 <__cmpsf2+0x4>
    6a96:	bf00      	nop

00006a98 <__lesf2>:
    6a98:	f04f 0c01 	mov.w	ip, #1
    6a9c:	e002      	b.n	6aa4 <__cmpsf2+0x4>
    6a9e:	bf00      	nop

00006aa0 <__cmpsf2>:
    6aa0:	f04f 0c01 	mov.w	ip, #1
    6aa4:	f84d cd04 	str.w	ip, [sp, #-4]!
    6aa8:	ea4f 0240 	mov.w	r2, r0, lsl #1
    6aac:	ea4f 0341 	mov.w	r3, r1, lsl #1
    6ab0:	ea7f 6c22 	mvns.w	ip, r2, asr #24
    6ab4:	bf18      	it	ne
    6ab6:	ea7f 6c23 	mvnsne.w	ip, r3, asr #24
    6aba:	d011      	beq.n	6ae0 <__cmpsf2+0x40>
    6abc:	b001      	add	sp, #4
    6abe:	ea52 0c53 	orrs.w	ip, r2, r3, lsr #1
    6ac2:	bf18      	it	ne
    6ac4:	ea90 0f01 	teqne	r0, r1
    6ac8:	bf58      	it	pl
    6aca:	ebb2 0003 	subspl.w	r0, r2, r3
    6ace:	bf88      	it	hi
    6ad0:	17c8      	asrhi	r0, r1, #31
    6ad2:	bf38      	it	cc
    6ad4:	ea6f 70e1 	mvncc.w	r0, r1, asr #31
    6ad8:	bf18      	it	ne
    6ada:	f040 0001 	orrne.w	r0, r0, #1
    6ade:	4770      	bx	lr
    6ae0:	ea7f 6c22 	mvns.w	ip, r2, asr #24
    6ae4:	d102      	bne.n	6aec <__cmpsf2+0x4c>
    6ae6:	ea5f 2c40 	movs.w	ip, r0, lsl #9
    6aea:	d105      	bne.n	6af8 <__cmpsf2+0x58>
    6aec:	ea7f 6c23 	mvns.w	ip, r3, asr #24
    6af0:	d1e4      	bne.n	6abc <__cmpsf2+0x1c>
    6af2:	ea5f 2c41 	movs.w	ip, r1, lsl #9
    6af6:	d0e1      	beq.n	6abc <__cmpsf2+0x1c>
    6af8:	f85d 0b04 	ldr.w	r0, [sp], #4
    6afc:	4770      	bx	lr
    6afe:	bf00      	nop

00006b00 <__aeabi_cfrcmple>:
    6b00:	4684      	mov	ip, r0
    6b02:	4608      	mov	r0, r1
    6b04:	4661      	mov	r1, ip
    6b06:	e7ff      	b.n	6b08 <__aeabi_cfcmpeq>

00006b08 <__aeabi_cfcmpeq>:
    6b08:	b50f      	push	{r0, r1, r2, r3, lr}
    6b0a:	f7ff ffc9 	bl	6aa0 <__cmpsf2>
    6b0e:	2800      	cmp	r0, #0
    6b10:	bf48      	it	mi
    6b12:	f110 0f00 	cmnmi.w	r0, #0
    6b16:	bd0f      	pop	{r0, r1, r2, r3, pc}

00006b18 <__aeabi_fcmpeq>:
    6b18:	f84d ed08 	str.w	lr, [sp, #-8]!
    6b1c:	f7ff fff4 	bl	6b08 <__aeabi_cfcmpeq>
    6b20:	bf0c      	ite	eq
    6b22:	2001      	moveq	r0, #1
    6b24:	2000      	movne	r0, #0
    6b26:	f85d fb08 	ldr.w	pc, [sp], #8
    6b2a:	bf00      	nop

00006b2c <__aeabi_fcmplt>:
    6b2c:	f84d ed08 	str.w	lr, [sp, #-8]!
    6b30:	f7ff ffea 	bl	6b08 <__aeabi_cfcmpeq>
    6b34:	bf34      	ite	cc
    6b36:	2001      	movcc	r0, #1
    6b38:	2000      	movcs	r0, #0
    6b3a:	f85d fb08 	ldr.w	pc, [sp], #8
    6b3e:	bf00      	nop

00006b40 <__aeabi_fcmple>:
    6b40:	f84d ed08 	str.w	lr, [sp, #-8]!
    6b44:	f7ff ffe0 	bl	6b08 <__aeabi_cfcmpeq>
    6b48:	bf94      	ite	ls
    6b4a:	2001      	movls	r0, #1
    6b4c:	2000      	movhi	r0, #0
    6b4e:	f85d fb08 	ldr.w	pc, [sp], #8
    6b52:	bf00      	nop

00006b54 <__aeabi_fcmpge>:
    6b54:	f84d ed08 	str.w	lr, [sp, #-8]!
    6b58:	f7ff ffd2 	bl	6b00 <__aeabi_cfrcmple>
    6b5c:	bf94      	ite	ls
    6b5e:	2001      	movls	r0, #1
    6b60:	2000      	movhi	r0, #0
    6b62:	f85d fb08 	ldr.w	pc, [sp], #8
    6b66:	bf00      	nop

00006b68 <__aeabi_fcmpgt>:
    6b68:	f84d ed08 	str.w	lr, [sp, #-8]!
    6b6c:	f7ff ffc8 	bl	6b00 <__aeabi_cfrcmple>
    6b70:	bf34      	ite	cc
    6b72:	2001      	movcc	r0, #1
    6b74:	2000      	movcs	r0, #0
    6b76:	f85d fb08 	ldr.w	pc, [sp], #8
    6b7a:	bf00      	nop

00006b7c <__aeabi_f2uiz>:
    6b7c:	0042      	lsls	r2, r0, #1
    6b7e:	d20e      	bcs.n	6b9e <__aeabi_f2uiz+0x22>
    6b80:	f1b2 4ffe 	cmp.w	r2, #2130706432	; 0x7f000000
    6b84:	d30b      	bcc.n	6b9e <__aeabi_f2uiz+0x22>
    6b86:	f04f 039e 	mov.w	r3, #158	; 0x9e
    6b8a:	ebb3 6212 	subs.w	r2, r3, r2, lsr #24
    6b8e:	d409      	bmi.n	6ba4 <__aeabi_f2uiz+0x28>
    6b90:	ea4f 2300 	mov.w	r3, r0, lsl #8
    6b94:	f043 4300 	orr.w	r3, r3, #2147483648	; 0x80000000
    6b98:	fa23 f002 	lsr.w	r0, r3, r2
    6b9c:	4770      	bx	lr
    6b9e:	f04f 0000 	mov.w	r0, #0
    6ba2:	4770      	bx	lr
    6ba4:	f112 0f61 	cmn.w	r2, #97	; 0x61
    6ba8:	d101      	bne.n	6bae <__aeabi_f2uiz+0x32>
    6baa:	0242      	lsls	r2, r0, #9
    6bac:	d102      	bne.n	6bb4 <__aeabi_f2uiz+0x38>
    6bae:	f04f 30ff 	mov.w	r0, #4294967295
    6bb2:	4770      	bx	lr
    6bb4:	f04f 0000 	mov.w	r0, #0
    6bb8:	4770      	bx	lr
    6bba:	bf00      	nop

00006bbc <memcpy>:
    6bbc:	2a03      	cmp	r2, #3
    6bbe:	e92d 01f0 	stmdb	sp!, {r4, r5, r6, r7, r8}
    6bc2:	d809      	bhi.n	6bd8 <memcpy+0x1c>
    6bc4:	b12a      	cbz	r2, 6bd2 <memcpy+0x16>
    6bc6:	2300      	movs	r3, #0
    6bc8:	5ccc      	ldrb	r4, [r1, r3]
    6bca:	54c4      	strb	r4, [r0, r3]
    6bcc:	3301      	adds	r3, #1
    6bce:	4293      	cmp	r3, r2
    6bd0:	d1fa      	bne.n	6bc8 <memcpy+0xc>
    6bd2:	e8bd 01f0 	ldmia.w	sp!, {r4, r5, r6, r7, r8}
    6bd6:	4770      	bx	lr
    6bd8:	460b      	mov	r3, r1
    6bda:	1882      	adds	r2, r0, r2
    6bdc:	4601      	mov	r1, r0
    6bde:	e003      	b.n	6be8 <memcpy+0x2c>
    6be0:	7824      	ldrb	r4, [r4, #0]
    6be2:	3301      	adds	r3, #1
    6be4:	f801 4b01 	strb.w	r4, [r1], #1
    6be8:	f011 0f03 	tst.w	r1, #3
    6bec:	461c      	mov	r4, r3
    6bee:	d1f7      	bne.n	6be0 <memcpy+0x24>
    6bf0:	f013 0503 	ands.w	r5, r3, #3
    6bf4:	d05d      	beq.n	6cb2 <memcpy+0xf6>
    6bf6:	426e      	negs	r6, r5
    6bf8:	f1c5 0c04 	rsb	ip, r5, #4
    6bfc:	00ed      	lsls	r5, r5, #3
    6bfe:	599b      	ldr	r3, [r3, r6]
    6c00:	ea4f 0ccc 	mov.w	ip, ip, lsl #3
    6c04:	e008      	b.n	6c18 <memcpy+0x5c>
    6c06:	3404      	adds	r4, #4
    6c08:	59a7      	ldr	r7, [r4, r6]
    6c0a:	463b      	mov	r3, r7
    6c0c:	fa07 f70c 	lsl.w	r7, r7, ip
    6c10:	ea48 0707 	orr.w	r7, r8, r7
    6c14:	f841 7b04 	str.w	r7, [r1], #4
    6c18:	1a57      	subs	r7, r2, r1
    6c1a:	fa23 f805 	lsr.w	r8, r3, r5
    6c1e:	2f03      	cmp	r7, #3
    6c20:	dcf1      	bgt.n	6c06 <memcpy+0x4a>
    6c22:	e003      	b.n	6c2c <memcpy+0x70>
    6c24:	f814 3b01 	ldrb.w	r3, [r4], #1
    6c28:	f801 3b01 	strb.w	r3, [r1], #1
    6c2c:	428a      	cmp	r2, r1
    6c2e:	d8f9      	bhi.n	6c24 <memcpy+0x68>
    6c30:	e7cf      	b.n	6bd2 <memcpy+0x16>
    6c32:	f853 4c40 	ldr.w	r4, [r3, #-64]
    6c36:	f841 4c40 	str.w	r4, [r1, #-64]
    6c3a:	f853 4c3c 	ldr.w	r4, [r3, #-60]
    6c3e:	f841 4c3c 	str.w	r4, [r1, #-60]
    6c42:	f853 4c38 	ldr.w	r4, [r3, #-56]
    6c46:	f841 4c38 	str.w	r4, [r1, #-56]
    6c4a:	f853 4c34 	ldr.w	r4, [r3, #-52]
    6c4e:	f841 4c34 	str.w	r4, [r1, #-52]
    6c52:	f853 4c30 	ldr.w	r4, [r3, #-48]
    6c56:	f841 4c30 	str.w	r4, [r1, #-48]
    6c5a:	f853 4c2c 	ldr.w	r4, [r3, #-44]
    6c5e:	f841 4c2c 	str.w	r4, [r1, #-44]
    6c62:	f853 4c28 	ldr.w	r4, [r3, #-40]
    6c66:	f841 4c28 	str.w	r4, [r1, #-40]
    6c6a:	f853 4c24 	ldr.w	r4, [r3, #-36]
    6c6e:	f841 4c24 	str.w	r4, [r1, #-36]
    6c72:	f853 4c20 	ldr.w	r4, [r3, #-32]
    6c76:	f841 4c20 	str.w	r4, [r1, #-32]
    6c7a:	f853 4c1c 	ldr.w	r4, [r3, #-28]
    6c7e:	f841 4c1c 	str.w	r4, [r1, #-28]
    6c82:	f853 4c18 	ldr.w	r4, [r3, #-24]
    6c86:	f841 4c18 	str.w	r4, [r1, #-24]
    6c8a:	f853 4c14 	ldr.w	r4, [r3, #-20]
    6c8e:	f841 4c14 	str.w	r4, [r1, #-20]
    6c92:	f853 4c10 	ldr.w	r4, [r3, #-16]
    6c96:	f841 4c10 	str.w	r4, [r1, #-16]
    6c9a:	f853 4c0c 	ldr.w	r4, [r3, #-12]
    6c9e:	f841 4c0c 	str.w	r4, [r1, #-12]
    6ca2:	f853 4c08 	ldr.w	r4, [r3, #-8]
    6ca6:	f841 4c08 	str.w	r4, [r1, #-8]
    6caa:	f853 4c04 	ldr.w	r4, [r3, #-4]
    6cae:	f841 4c04 	str.w	r4, [r1, #-4]
    6cb2:	1a56      	subs	r6, r2, r1
    6cb4:	461d      	mov	r5, r3
    6cb6:	460c      	mov	r4, r1
    6cb8:	3340      	adds	r3, #64	; 0x40
    6cba:	3140      	adds	r1, #64	; 0x40
    6cbc:	2e3f      	cmp	r6, #63	; 0x3f
    6cbe:	dcb8      	bgt.n	6c32 <memcpy+0x76>
    6cc0:	462b      	mov	r3, r5
    6cc2:	e00f      	b.n	6ce4 <memcpy+0x128>
    6cc4:	f853 1c10 	ldr.w	r1, [r3, #-16]
    6cc8:	f844 1c10 	str.w	r1, [r4, #-16]
    6ccc:	f853 1c0c 	ldr.w	r1, [r3, #-12]
    6cd0:	f844 1c0c 	str.w	r1, [r4, #-12]
    6cd4:	f853 1c08 	ldr.w	r1, [r3, #-8]
    6cd8:	f844 1c08 	str.w	r1, [r4, #-8]
    6cdc:	f853 1c04 	ldr.w	r1, [r3, #-4]
    6ce0:	f844 1c04 	str.w	r1, [r4, #-4]
    6ce4:	1b16      	subs	r6, r2, r4
    6ce6:	461d      	mov	r5, r3
    6ce8:	3310      	adds	r3, #16
    6cea:	2e0f      	cmp	r6, #15
    6cec:	4621      	mov	r1, r4
    6cee:	f104 0410 	add.w	r4, r4, #16
    6cf2:	dce7      	bgt.n	6cc4 <memcpy+0x108>
    6cf4:	462b      	mov	r3, r5
    6cf6:	e002      	b.n	6cfe <memcpy+0x142>
    6cf8:	6824      	ldr	r4, [r4, #0]
    6cfa:	f841 4b04 	str.w	r4, [r1], #4
    6cfe:	1a55      	subs	r5, r2, r1
    6d00:	461c      	mov	r4, r3
    6d02:	2d03      	cmp	r5, #3
    6d04:	f103 0304 	add.w	r3, r3, #4
    6d08:	dcf6      	bgt.n	6cf8 <memcpy+0x13c>
    6d0a:	e78f      	b.n	6c2c <memcpy+0x70>

00006d0c <memset>:
    6d0c:	2a03      	cmp	r2, #3
    6d0e:	b2c9      	uxtb	r1, r1
    6d10:	b470      	push	{r4, r5, r6}
    6d12:	d808      	bhi.n	6d26 <memset+0x1a>
    6d14:	b12a      	cbz	r2, 6d22 <memset+0x16>
    6d16:	4603      	mov	r3, r0
    6d18:	1812      	adds	r2, r2, r0
    6d1a:	f803 1b01 	strb.w	r1, [r3], #1
    6d1e:	4293      	cmp	r3, r2
    6d20:	d1fb      	bne.n	6d1a <memset+0xe>
    6d22:	bc70      	pop	{r4, r5, r6}
    6d24:	4770      	bx	lr
    6d26:	1882      	adds	r2, r0, r2
    6d28:	4604      	mov	r4, r0
    6d2a:	e001      	b.n	6d30 <memset+0x24>
    6d2c:	f804 1b01 	strb.w	r1, [r4], #1
    6d30:	f014 0f03 	tst.w	r4, #3
    6d34:	d1fa      	bne.n	6d2c <memset+0x20>
    6d36:	f04f 3301 	mov.w	r3, #16843009	; 0x1010101
    6d3a:	fb03 f301 	mul.w	r3, r3, r1
    6d3e:	e01f      	b.n	6d80 <memset+0x74>
    6d40:	f844 3c40 	str.w	r3, [r4, #-64]
    6d44:	f844 3c3c 	str.w	r3, [r4, #-60]
    6d48:	f844 3c38 	str.w	r3, [r4, #-56]
    6d4c:	f844 3c34 	str.w	r3, [r4, #-52]
    6d50:	f844 3c30 	str.w	r3, [r4, #-48]
    6d54:	f844 3c2c 	str.w	r3, [r4, #-44]
    6d58:	f844 3c28 	str.w	r3, [r4, #-40]
    6d5c:	f844 3c24 	str.w	r3, [r4, #-36]
    6d60:	f844 3c20 	str.w	r3, [r4, #-32]
    6d64:	f844 3c1c 	str.w	r3, [r4, #-28]
    6d68:	f844 3c18 	str.w	r3, [r4, #-24]
    6d6c:	f844 3c14 	str.w	r3, [r4, #-20]
    6d70:	f844 3c10 	str.w	r3, [r4, #-16]
    6d74:	f844 3c0c 	str.w	r3, [r4, #-12]
    6d78:	f844 3c08 	str.w	r3, [r4, #-8]
    6d7c:	f844 3c04 	str.w	r3, [r4, #-4]
    6d80:	1b16      	subs	r6, r2, r4
    6d82:	4625      	mov	r5, r4
    6d84:	3440      	adds	r4, #64	; 0x40
    6d86:	2e3f      	cmp	r6, #63	; 0x3f
    6d88:	dcda      	bgt.n	6d40 <memset+0x34>
    6d8a:	462c      	mov	r4, r5
    6d8c:	e007      	b.n	6d9e <memset+0x92>
    6d8e:	f844 3c10 	str.w	r3, [r4, #-16]
    6d92:	f844 3c0c 	str.w	r3, [r4, #-12]
    6d96:	f844 3c08 	str.w	r3, [r4, #-8]
    6d9a:	f844 3c04 	str.w	r3, [r4, #-4]
    6d9e:	1b16      	subs	r6, r2, r4
    6da0:	4625      	mov	r5, r4
    6da2:	3410      	adds	r4, #16
    6da4:	2e0f      	cmp	r6, #15
    6da6:	dcf2      	bgt.n	6d8e <memset+0x82>
    6da8:	e001      	b.n	6dae <memset+0xa2>
    6daa:	f845 3b04 	str.w	r3, [r5], #4
    6dae:	1b54      	subs	r4, r2, r5
    6db0:	2c03      	cmp	r4, #3
    6db2:	dcfa      	bgt.n	6daa <memset+0x9e>
    6db4:	e001      	b.n	6dba <memset+0xae>
    6db6:	f805 1b01 	strb.w	r1, [r5], #1
    6dba:	4295      	cmp	r5, r2
    6dbc:	d3fb      	bcc.n	6db6 <memset+0xaa>
    6dbe:	e7b0      	b.n	6d22 <memset+0x16>

00006dc0 <_sprintf_r>:
    6dc0:	b40c      	push	{r2, r3}
    6dc2:	f44f 7302 	mov.w	r3, #520	; 0x208
    6dc6:	b570      	push	{r4, r5, r6, lr}
    6dc8:	b09c      	sub	sp, #112	; 0x70
    6dca:	ac20      	add	r4, sp, #128	; 0x80
    6dcc:	460e      	mov	r6, r1
    6dce:	f8ad 3010 	strh.w	r3, [sp, #16]
    6dd2:	a901      	add	r1, sp, #4
    6dd4:	f854 2b04 	ldr.w	r2, [r4], #4
    6dd8:	f04f 33ff 	mov.w	r3, #4294967295
    6ddc:	f8ad 3012 	strh.w	r3, [sp, #18]
    6de0:	f06f 4500 	mvn.w	r5, #2147483648	; 0x80000000
    6de4:	4623      	mov	r3, r4
    6de6:	9601      	str	r6, [sp, #4]
    6de8:	9605      	str	r6, [sp, #20]
    6dea:	9503      	str	r5, [sp, #12]
    6dec:	9506      	str	r5, [sp, #24]
    6dee:	941b      	str	r4, [sp, #108]	; 0x6c
    6df0:	f000 f89e 	bl	6f30 <_svfprintf_r>
    6df4:	9b01      	ldr	r3, [sp, #4]
    6df6:	2200      	movs	r2, #0
    6df8:	701a      	strb	r2, [r3, #0]
    6dfa:	b01c      	add	sp, #112	; 0x70
    6dfc:	e8bd 4070 	ldmia.w	sp!, {r4, r5, r6, lr}
    6e00:	b002      	add	sp, #8
    6e02:	4770      	bx	lr

00006e04 <sprintf>:
    6e04:	b40e      	push	{r1, r2, r3}
    6e06:	f240 038c 	movw	r3, #140	; 0x8c
    6e0a:	b5f0      	push	{r4, r5, r6, r7, lr}
    6e0c:	b09c      	sub	sp, #112	; 0x70
    6e0e:	ac21      	add	r4, sp, #132	; 0x84
    6e10:	f2c2 0300 	movt	r3, #8192	; 0x2000
    6e14:	4606      	mov	r6, r0
    6e16:	a901      	add	r1, sp, #4
    6e18:	f854 2b04 	ldr.w	r2, [r4], #4
    6e1c:	f06f 4500 	mvn.w	r5, #2147483648	; 0x80000000
    6e20:	6818      	ldr	r0, [r3, #0]
    6e22:	f44f 7702 	mov.w	r7, #520	; 0x208
    6e26:	4623      	mov	r3, r4
    6e28:	9601      	str	r6, [sp, #4]
    6e2a:	9605      	str	r6, [sp, #20]
    6e2c:	f04f 36ff 	mov.w	r6, #4294967295
    6e30:	f8ad 7010 	strh.w	r7, [sp, #16]
    6e34:	f8ad 6012 	strh.w	r6, [sp, #18]
    6e38:	9503      	str	r5, [sp, #12]
    6e3a:	9506      	str	r5, [sp, #24]
    6e3c:	941b      	str	r4, [sp, #108]	; 0x6c
    6e3e:	f000 f877 	bl	6f30 <_svfprintf_r>
    6e42:	9b01      	ldr	r3, [sp, #4]
    6e44:	2200      	movs	r2, #0
    6e46:	701a      	strb	r2, [r3, #0]
    6e48:	b01c      	add	sp, #112	; 0x70
    6e4a:	e8bd 40f0 	ldmia.w	sp!, {r4, r5, r6, r7, lr}
    6e4e:	b003      	add	sp, #12
    6e50:	4770      	bx	lr
    6e52:	bf00      	nop

00006e54 <strlen>:
    6e54:	f020 0103 	bic.w	r1, r0, #3
    6e58:	f010 0003 	ands.w	r0, r0, #3
    6e5c:	f1c0 0000 	rsb	r0, r0, #0
    6e60:	f851 3b04 	ldr.w	r3, [r1], #4
    6e64:	f100 0c04 	add.w	ip, r0, #4
    6e68:	ea4f 0ccc 	mov.w	ip, ip, lsl #3
    6e6c:	f06f 0200 	mvn.w	r2, #0
    6e70:	bf1c      	itt	ne
    6e72:	fa22 f20c 	lsrne.w	r2, r2, ip
    6e76:	4313      	orrne	r3, r2
    6e78:	f04f 0c01 	mov.w	ip, #1
    6e7c:	ea4c 2c0c 	orr.w	ip, ip, ip, lsl #8
    6e80:	ea4c 4c0c 	orr.w	ip, ip, ip, lsl #16
    6e84:	eba3 020c 	sub.w	r2, r3, ip
    6e88:	ea22 0203 	bic.w	r2, r2, r3
    6e8c:	ea12 12cc 	ands.w	r2, r2, ip, lsl #7
    6e90:	bf04      	itt	eq
    6e92:	f851 3b04 	ldreq.w	r3, [r1], #4
    6e96:	3004      	addeq	r0, #4
    6e98:	d0f4      	beq.n	6e84 <strlen+0x30>
    6e9a:	f013 0fff 	tst.w	r3, #255	; 0xff
    6e9e:	bf1f      	itttt	ne
    6ea0:	3001      	addne	r0, #1
    6ea2:	f413 4f7f 	tstne.w	r3, #65280	; 0xff00
    6ea6:	3001      	addne	r0, #1
    6ea8:	f413 0f7f 	tstne.w	r3, #16711680	; 0xff0000
    6eac:	bf18      	it	ne
    6eae:	3001      	addne	r0, #1
    6eb0:	4770      	bx	lr
    6eb2:	bf00      	nop

00006eb4 <strncpy>:
    6eb4:	ea41 0300 	orr.w	r3, r1, r0
    6eb8:	f013 0f03 	tst.w	r3, #3
    6ebc:	4603      	mov	r3, r0
    6ebe:	b470      	push	{r4, r5, r6}
    6ec0:	bf14      	ite	ne
    6ec2:	2500      	movne	r5, #0
    6ec4:	2501      	moveq	r5, #1
    6ec6:	2a03      	cmp	r2, #3
    6ec8:	bf94      	ite	ls
    6eca:	2500      	movls	r5, #0
    6ecc:	f005 0501 	andhi.w	r5, r5, #1
    6ed0:	460c      	mov	r4, r1
    6ed2:	4606      	mov	r6, r0
    6ed4:	b9cd      	cbnz	r5, 6f0a <strncpy+0x56>
    6ed6:	b1b2      	cbz	r2, 6f06 <strncpy+0x52>
    6ed8:	780d      	ldrb	r5, [r1, #0]
    6eda:	4634      	mov	r4, r6
    6edc:	1e53      	subs	r3, r2, #1
    6ede:	f804 5b01 	strb.w	r5, [r4], #1
    6ee2:	b155      	cbz	r5, 6efa <strncpy+0x46>
    6ee4:	1cb2      	adds	r2, r6, #2
    6ee6:	b173      	cbz	r3, 6f06 <strncpy+0x52>
    6ee8:	f811 5f01 	ldrb.w	r5, [r1, #1]!
    6eec:	4614      	mov	r4, r2
    6eee:	3b01      	subs	r3, #1
    6ef0:	f802 5c01 	strb.w	r5, [r2, #-1]
    6ef4:	3201      	adds	r2, #1
    6ef6:	2d00      	cmp	r5, #0
    6ef8:	d1f5      	bne.n	6ee6 <strncpy+0x32>
    6efa:	b123      	cbz	r3, 6f06 <strncpy+0x52>
    6efc:	2200      	movs	r2, #0
    6efe:	3b01      	subs	r3, #1
    6f00:	f804 2b01 	strb.w	r2, [r4], #1
    6f04:	d1fb      	bne.n	6efe <strncpy+0x4a>
    6f06:	bc70      	pop	{r4, r5, r6}
    6f08:	4770      	bx	lr
    6f0a:	4621      	mov	r1, r4
    6f0c:	f854 5b04 	ldr.w	r5, [r4], #4
    6f10:	f1a5 3601 	sub.w	r6, r5, #16843009	; 0x1010101
    6f14:	ea26 0605 	bic.w	r6, r6, r5
    6f18:	f016 3f80 	tst.w	r6, #2155905152	; 0x80808080
    6f1c:	d105      	bne.n	6f2a <strncpy+0x76>
    6f1e:	3a04      	subs	r2, #4
    6f20:	f843 5b04 	str.w	r5, [r3], #4
    6f24:	2a03      	cmp	r2, #3
    6f26:	4621      	mov	r1, r4
    6f28:	d8ef      	bhi.n	6f0a <strncpy+0x56>
    6f2a:	461e      	mov	r6, r3
    6f2c:	e7d3      	b.n	6ed6 <strncpy+0x22>
    6f2e:	bf00      	nop

00006f30 <_svfprintf_r>:
    6f30:	e92d 4ff0 	stmdb	sp!, {r4, r5, r6, r7, r8, r9, sl, fp, lr}
    6f34:	b0c5      	sub	sp, #276	; 0x114
    6f36:	4614      	mov	r4, r2
    6f38:	9312      	str	r3, [sp, #72]	; 0x48
    6f3a:	910c      	str	r1, [sp, #48]	; 0x30
    6f3c:	9011      	str	r0, [sp, #68]	; 0x44
    6f3e:	f002 fb63 	bl	9608 <_localeconv_r>
    6f42:	6800      	ldr	r0, [r0, #0]
    6f44:	9019      	str	r0, [sp, #100]	; 0x64
    6f46:	f7ff ff85 	bl	6e54 <strlen>
    6f4a:	901c      	str	r0, [sp, #112]	; 0x70
    6f4c:	980c      	ldr	r0, [sp, #48]	; 0x30
    6f4e:	8983      	ldrh	r3, [r0, #12]
    6f50:	f013 0f80 	tst.w	r3, #128	; 0x80
    6f54:	d003      	beq.n	6f5e <_svfprintf_r+0x2e>
    6f56:	6903      	ldr	r3, [r0, #16]
    6f58:	2b00      	cmp	r3, #0
    6f5a:	f001 8184 	beq.w	8266 <_svfprintf_r+0x1336>
    6f5e:	f10d 0a7c 	add.w	sl, sp, #124	; 0x7c
    6f62:	2300      	movs	r3, #0
    6f64:	4656      	mov	r6, sl
    6f66:	f10d 01f7 	add.w	r1, sp, #247	; 0xf7
    6f6a:	930e      	str	r3, [sp, #56]	; 0x38
    6f6c:	9409      	str	r4, [sp, #36]	; 0x24
    6f6e:	931a      	str	r3, [sp, #104]	; 0x68
    6f70:	931b      	str	r3, [sp, #108]	; 0x6c
    6f72:	9317      	str	r3, [sp, #92]	; 0x5c
    6f74:	931d      	str	r3, [sp, #116]	; 0x74
    6f76:	930f      	str	r3, [sp, #60]	; 0x3c
    6f78:	9107      	str	r1, [sp, #28]
    6f7a:	f8cd a0e4 	str.w	sl, [sp, #228]	; 0xe4
    6f7e:	933b      	str	r3, [sp, #236]	; 0xec
    6f80:	933a      	str	r3, [sp, #232]	; 0xe8
    6f82:	9a09      	ldr	r2, [sp, #36]	; 0x24
    6f84:	7813      	ldrb	r3, [r2, #0]
    6f86:	f1b3 0225 	subs.w	r2, r3, #37	; 0x25
    6f8a:	bf18      	it	ne
    6f8c:	2201      	movne	r2, #1
    6f8e:	2b00      	cmp	r3, #0
    6f90:	bf0c      	ite	eq
    6f92:	2300      	moveq	r3, #0
    6f94:	f002 0301 	andne.w	r3, r2, #1
    6f98:	2b00      	cmp	r3, #0
    6f9a:	f000 80bd 	beq.w	7118 <_svfprintf_r+0x1e8>
    6f9e:	9b09      	ldr	r3, [sp, #36]	; 0x24
    6fa0:	1c5a      	adds	r2, r3, #1
    6fa2:	4617      	mov	r7, r2
    6fa4:	3201      	adds	r2, #1
    6fa6:	783b      	ldrb	r3, [r7, #0]
    6fa8:	1e19      	subs	r1, r3, #0
    6faa:	bf18      	it	ne
    6fac:	2101      	movne	r1, #1
    6fae:	2b25      	cmp	r3, #37	; 0x25
    6fb0:	bf0c      	ite	eq
    6fb2:	2300      	moveq	r3, #0
    6fb4:	f001 0301 	andne.w	r3, r1, #1
    6fb8:	2b00      	cmp	r3, #0
    6fba:	d1f2      	bne.n	6fa2 <_svfprintf_r+0x72>
    6fbc:	9c09      	ldr	r4, [sp, #36]	; 0x24
    6fbe:	ebb7 0804 	subs.w	r8, r7, r4
    6fc2:	d010      	beq.n	6fe6 <_svfprintf_r+0xb6>
    6fc4:	9c3a      	ldr	r4, [sp, #232]	; 0xe8
    6fc6:	9809      	ldr	r0, [sp, #36]	; 0x24
    6fc8:	3401      	adds	r4, #1
    6fca:	9d3b      	ldr	r5, [sp, #236]	; 0xec
    6fcc:	2c07      	cmp	r4, #7
    6fce:	f8c6 8004 	str.w	r8, [r6, #4]
    6fd2:	6030      	str	r0, [r6, #0]
    6fd4:	4445      	add	r5, r8
    6fd6:	943a      	str	r4, [sp, #232]	; 0xe8
    6fd8:	953b      	str	r5, [sp, #236]	; 0xec
    6fda:	f300 8081 	bgt.w	70e0 <_svfprintf_r+0x1b0>
    6fde:	3608      	adds	r6, #8
    6fe0:	990f      	ldr	r1, [sp, #60]	; 0x3c
    6fe2:	4441      	add	r1, r8
    6fe4:	910f      	str	r1, [sp, #60]	; 0x3c
    6fe6:	783b      	ldrb	r3, [r7, #0]
    6fe8:	2b00      	cmp	r3, #0
    6fea:	f000 8081 	beq.w	70f0 <_svfprintf_r+0x1c0>
    6fee:	1c7c      	adds	r4, r7, #1
    6ff0:	2200      	movs	r2, #0
    6ff2:	2300      	movs	r3, #0
    6ff4:	920d      	str	r2, [sp, #52]	; 0x34
    6ff6:	f88d 310f 	strb.w	r3, [sp, #271]	; 0x10f
    6ffa:	2520      	movs	r5, #32
    6ffc:	9409      	str	r4, [sp, #36]	; 0x24
    6ffe:	212b      	movs	r1, #43	; 0x2b
    7000:	787b      	ldrb	r3, [r7, #1]
    7002:	f04f 37ff 	mov.w	r7, #4294967295
    7006:	9208      	str	r2, [sp, #32]
    7008:	4622      	mov	r2, r4
    700a:	3201      	adds	r2, #1
    700c:	f1a3 0020 	sub.w	r0, r3, #32
    7010:	2858      	cmp	r0, #88	; 0x58
    7012:	f200 831d 	bhi.w	7650 <_svfprintf_r+0x720>
    7016:	e8df f010 	tbh	[pc, r0, lsl #1]
    701a:	032e      	.short	0x032e
    701c:	031b031b 	.word	0x031b031b
    7020:	031b0337 	.word	0x031b0337
    7024:	031b031b 	.word	0x031b031b
    7028:	031b031b 	.word	0x031b031b
    702c:	03c8031b 	.word	0x03c8031b
    7030:	031b0081 	.word	0x031b0081
    7034:	0085005d 	.word	0x0085005d
    7038:	009f031b 	.word	0x009f031b
    703c:	00a500a5 	.word	0x00a500a5
    7040:	00a500a5 	.word	0x00a500a5
    7044:	00a500a5 	.word	0x00a500a5
    7048:	00a500a5 	.word	0x00a500a5
    704c:	031b00a5 	.word	0x031b00a5
    7050:	031b031b 	.word	0x031b031b
    7054:	031b031b 	.word	0x031b031b
    7058:	031b031b 	.word	0x031b031b
    705c:	031b031b 	.word	0x031b031b
    7060:	00b7031b 	.word	0x00b7031b
    7064:	031b0242 	.word	0x031b0242
    7068:	031b0242 	.word	0x031b0242
    706c:	031b031b 	.word	0x031b031b
    7070:	0280031b 	.word	0x0280031b
    7074:	031b031b 	.word	0x031b031b
    7078:	031b0286 	.word	0x031b0286
    707c:	031b031b 	.word	0x031b031b
    7080:	031b031b 	.word	0x031b031b
    7084:	031b02a4 	.word	0x031b02a4
    7088:	02b3031b 	.word	0x02b3031b
    708c:	031b031b 	.word	0x031b031b
    7090:	031b031b 	.word	0x031b031b
    7094:	031b031b 	.word	0x031b031b
    7098:	031b031b 	.word	0x031b031b
    709c:	031b031b 	.word	0x031b031b
    70a0:	033d0355 	.word	0x033d0355
    70a4:	02420242 	.word	0x02420242
    70a8:	034f0242 	.word	0x034f0242
    70ac:	031b033d 	.word	0x031b033d
    70b0:	030c031b 	.word	0x030c031b
    70b4:	039b031b 	.word	0x039b031b
    70b8:	037f0369 	.word	0x037f0369
    70bc:	031b02de 	.word	0x031b02de
    70c0:	031b02e4 	.word	0x031b02e4
    70c4:	031b03ac 	.word	0x031b03ac
    70c8:	03d3031b 	.word	0x03d3031b
    70cc:	9b0d      	ldr	r3, [sp, #52]	; 0x34
    70ce:	9012      	str	r0, [sp, #72]	; 0x48
    70d0:	425b      	negs	r3, r3
    70d2:	930d      	str	r3, [sp, #52]	; 0x34
    70d4:	9c08      	ldr	r4, [sp, #32]
    70d6:	f044 0404 	orr.w	r4, r4, #4
    70da:	9408      	str	r4, [sp, #32]
    70dc:	7813      	ldrb	r3, [r2, #0]
    70de:	e794      	b.n	700a <_svfprintf_r+0xda>
    70e0:	9811      	ldr	r0, [sp, #68]	; 0x44
    70e2:	aa39      	add	r2, sp, #228	; 0xe4
    70e4:	990c      	ldr	r1, [sp, #48]	; 0x30
    70e6:	f003 fb8f 	bl	a808 <__ssprint_r>
    70ea:	b940      	cbnz	r0, 70fe <_svfprintf_r+0x1ce>
    70ec:	4656      	mov	r6, sl
    70ee:	e777      	b.n	6fe0 <_svfprintf_r+0xb0>
    70f0:	9b3b      	ldr	r3, [sp, #236]	; 0xec
    70f2:	b123      	cbz	r3, 70fe <_svfprintf_r+0x1ce>
    70f4:	9811      	ldr	r0, [sp, #68]	; 0x44
    70f6:	aa39      	add	r2, sp, #228	; 0xe4
    70f8:	990c      	ldr	r1, [sp, #48]	; 0x30
    70fa:	f003 fb85 	bl	a808 <__ssprint_r>
    70fe:	990c      	ldr	r1, [sp, #48]	; 0x30
    7100:	9a0f      	ldr	r2, [sp, #60]	; 0x3c
    7102:	898b      	ldrh	r3, [r1, #12]
    7104:	f013 0f40 	tst.w	r3, #64	; 0x40
    7108:	bf18      	it	ne
    710a:	f04f 32ff 	movne.w	r2, #4294967295
    710e:	920f      	str	r2, [sp, #60]	; 0x3c
    7110:	980f      	ldr	r0, [sp, #60]	; 0x3c
    7112:	b045      	add	sp, #276	; 0x114
    7114:	e8bd 8ff0 	ldmia.w	sp!, {r4, r5, r6, r7, r8, r9, sl, fp, pc}
    7118:	9f09      	ldr	r7, [sp, #36]	; 0x24
    711a:	e764      	b.n	6fe6 <_svfprintf_r+0xb6>
    711c:	f88d 110f 	strb.w	r1, [sp, #271]	; 0x10f
    7120:	7813      	ldrb	r3, [r2, #0]
    7122:	e772      	b.n	700a <_svfprintf_r+0xda>
    7124:	f812 3b01 	ldrb.w	r3, [r2], #1
    7128:	2b2a      	cmp	r3, #42	; 0x2a
    712a:	f001 820b 	beq.w	8544 <_svfprintf_r+0x1614>
    712e:	f1a3 0030 	sub.w	r0, r3, #48	; 0x30
    7132:	2809      	cmp	r0, #9
    7134:	f201 81c1 	bhi.w	84ba <_svfprintf_r+0x158a>
    7138:	4614      	mov	r4, r2
    713a:	2700      	movs	r7, #0
    713c:	f814 3b01 	ldrb.w	r3, [r4], #1
    7140:	eb07 0787 	add.w	r7, r7, r7, lsl #2
    7144:	eb00 0747 	add.w	r7, r0, r7, lsl #1
    7148:	f1a3 0030 	sub.w	r0, r3, #48	; 0x30
    714c:	2809      	cmp	r0, #9
    714e:	4622      	mov	r2, r4
    7150:	d9f4      	bls.n	713c <_svfprintf_r+0x20c>
    7152:	ea47 77e7 	orr.w	r7, r7, r7, asr #31
    7156:	e759      	b.n	700c <_svfprintf_r+0xdc>
    7158:	9b08      	ldr	r3, [sp, #32]
    715a:	f043 0380 	orr.w	r3, r3, #128	; 0x80
    715e:	9308      	str	r3, [sp, #32]
    7160:	7813      	ldrb	r3, [r2, #0]
    7162:	e752      	b.n	700a <_svfprintf_r+0xda>
    7164:	4614      	mov	r4, r2
    7166:	2000      	movs	r0, #0
    7168:	f1a3 0830 	sub.w	r8, r3, #48	; 0x30
    716c:	f814 3b01 	ldrb.w	r3, [r4], #1
    7170:	eb00 0080 	add.w	r0, r0, r0, lsl #2
    7174:	f1a3 0c30 	sub.w	ip, r3, #48	; 0x30
    7178:	4622      	mov	r2, r4
    717a:	f1bc 0f09 	cmp.w	ip, #9
    717e:	eb08 0040 	add.w	r0, r8, r0, lsl #1
    7182:	d9f1      	bls.n	7168 <_svfprintf_r+0x238>
    7184:	900d      	str	r0, [sp, #52]	; 0x34
    7186:	e741      	b.n	700c <_svfprintf_r+0xdc>
    7188:	9209      	str	r2, [sp, #36]	; 0x24
    718a:	9a08      	ldr	r2, [sp, #32]
    718c:	9316      	str	r3, [sp, #88]	; 0x58
    718e:	f042 0210 	orr.w	r2, r2, #16
    7192:	9208      	str	r2, [sp, #32]
    7194:	9b08      	ldr	r3, [sp, #32]
    7196:	f013 0f20 	tst.w	r3, #32
    719a:	f000 8282 	beq.w	76a2 <_svfprintf_r+0x772>
    719e:	9c12      	ldr	r4, [sp, #72]	; 0x48
    71a0:	1de3      	adds	r3, r4, #7
    71a2:	f023 0307 	bic.w	r3, r3, #7
    71a6:	f103 0008 	add.w	r0, r3, #8
    71aa:	9012      	str	r0, [sp, #72]	; 0x48
    71ac:	e9d3 4500 	ldrd	r4, r5, [r3]
    71b0:	2c00      	cmp	r4, #0
    71b2:	f175 0200 	sbcs.w	r2, r5, #0
    71b6:	f2c0 85ce 	blt.w	7d56 <_svfprintf_r+0xe26>
    71ba:	ea54 0305 	orrs.w	r3, r4, r5
    71be:	f04f 0301 	mov.w	r3, #1
    71c2:	bf0c      	ite	eq
    71c4:	2200      	moveq	r2, #0
    71c6:	2201      	movne	r2, #1
    71c8:	2f00      	cmp	r7, #0
    71ca:	bfa2      	ittt	ge
    71cc:	9908      	ldrge	r1, [sp, #32]
    71ce:	f021 0180 	bicge.w	r1, r1, #128	; 0x80
    71d2:	9108      	strge	r1, [sp, #32]
    71d4:	2f00      	cmp	r7, #0
    71d6:	bf18      	it	ne
    71d8:	f042 0201 	orrne.w	r2, r2, #1
    71dc:	2a00      	cmp	r2, #0
    71de:	f000 83ad 	beq.w	793c <_svfprintf_r+0xa0c>
    71e2:	2b01      	cmp	r3, #1
    71e4:	f000 84ff 	beq.w	7be6 <_svfprintf_r+0xcb6>
    71e8:	2b02      	cmp	r3, #2
    71ea:	f000 84df 	beq.w	7bac <_svfprintf_r+0xc7c>
    71ee:	f10d 0bbc 	add.w	fp, sp, #188	; 0xbc
    71f2:	f10b 0327 	add.w	r3, fp, #39	; 0x27
    71f6:	08ea      	lsrs	r2, r5, #3
    71f8:	ea4f 08d4 	mov.w	r8, r4, lsr #3
    71fc:	ea48 7845 	orr.w	r8, r8, r5, lsl #29
    7200:	f004 0407 	and.w	r4, r4, #7
    7204:	4611      	mov	r1, r2
    7206:	f104 0230 	add.w	r2, r4, #48	; 0x30
    720a:	460d      	mov	r5, r1
    720c:	4644      	mov	r4, r8
    720e:	ea54 0005 	orrs.w	r0, r4, r5
    7212:	469c      	mov	ip, r3
    7214:	701a      	strb	r2, [r3, #0]
    7216:	f103 33ff 	add.w	r3, r3, #4294967295
    721a:	d1ec      	bne.n	71f6 <_svfprintf_r+0x2c6>
    721c:	9908      	ldr	r1, [sp, #32]
    721e:	f8cd c04c 	str.w	ip, [sp, #76]	; 0x4c
    7222:	f011 0f01 	tst.w	r1, #1
    7226:	f040 8588 	bne.w	7d3a <_svfprintf_r+0xe0a>
    722a:	f10b 0b28 	add.w	fp, fp, #40	; 0x28
    722e:	ebcc 020b 	rsb	r2, ip, fp
    7232:	9210      	str	r2, [sp, #64]	; 0x40
    7234:	f89d 210f 	ldrb.w	r2, [sp, #271]	; 0x10f
    7238:	2000      	movs	r0, #0
    723a:	9c10      	ldr	r4, [sp, #64]	; 0x40
    723c:	9715      	str	r7, [sp, #84]	; 0x54
    723e:	42bc      	cmp	r4, r7
    7240:	bfb8      	it	lt
    7242:	463c      	movlt	r4, r7
    7244:	9018      	str	r0, [sp, #96]	; 0x60
    7246:	940a      	str	r4, [sp, #40]	; 0x28
    7248:	b112      	cbz	r2, 7250 <_svfprintf_r+0x320>
    724a:	980a      	ldr	r0, [sp, #40]	; 0x28
    724c:	3001      	adds	r0, #1
    724e:	900a      	str	r0, [sp, #40]	; 0x28
    7250:	9908      	ldr	r1, [sp, #32]
    7252:	f011 0b02 	ands.w	fp, r1, #2
    7256:	d002      	beq.n	725e <_svfprintf_r+0x32e>
    7258:	9b0a      	ldr	r3, [sp, #40]	; 0x28
    725a:	3302      	adds	r3, #2
    725c:	930a      	str	r3, [sp, #40]	; 0x28
    725e:	9c08      	ldr	r4, [sp, #32]
    7260:	f014 0484 	ands.w	r4, r4, #132	; 0x84
    7264:	9414      	str	r4, [sp, #80]	; 0x50
    7266:	f040 82cd 	bne.w	7804 <_svfprintf_r+0x8d4>
    726a:	980d      	ldr	r0, [sp, #52]	; 0x34
    726c:	990a      	ldr	r1, [sp, #40]	; 0x28
    726e:	1a47      	subs	r7, r0, r1
    7270:	2f00      	cmp	r7, #0
    7272:	f340 82c7 	ble.w	7804 <_svfprintf_r+0x8d4>
    7276:	2f10      	cmp	r7, #16
    7278:	f341 8079 	ble.w	836e <_svfprintf_r+0x143e>
    727c:	9d3b      	ldr	r5, [sp, #236]	; 0xec
    727e:	f24d 08d4 	movw	r8, #53460	; 0xd0d4
    7282:	9c3a      	ldr	r4, [sp, #232]	; 0xe8
    7284:	f2c0 0800 	movt	r8, #0
    7288:	4629      	mov	r1, r5
    728a:	f04f 0910 	mov.w	r9, #16
    728e:	4622      	mov	r2, r4
    7290:	9d0c      	ldr	r5, [sp, #48]	; 0x30
    7292:	4644      	mov	r4, r8
    7294:	f8dd 8044 	ldr.w	r8, [sp, #68]	; 0x44
    7298:	e002      	b.n	72a0 <_svfprintf_r+0x370>
    729a:	3f10      	subs	r7, #16
    729c:	2f10      	cmp	r7, #16
    729e:	dd1b      	ble.n	72d8 <_svfprintf_r+0x3a8>
    72a0:	3201      	adds	r2, #1
    72a2:	6034      	str	r4, [r6, #0]
    72a4:	f8c6 9004 	str.w	r9, [r6, #4]
    72a8:	3110      	adds	r1, #16
    72aa:	3608      	adds	r6, #8
    72ac:	2a07      	cmp	r2, #7
    72ae:	923a      	str	r2, [sp, #232]	; 0xe8
    72b0:	f106 0308 	add.w	r3, r6, #8
    72b4:	913b      	str	r1, [sp, #236]	; 0xec
    72b6:	ddf0      	ble.n	729a <_svfprintf_r+0x36a>
    72b8:	4640      	mov	r0, r8
    72ba:	4629      	mov	r1, r5
    72bc:	aa39      	add	r2, sp, #228	; 0xe4
    72be:	4656      	mov	r6, sl
    72c0:	f003 faa2 	bl	a808 <__ssprint_r>
    72c4:	f10a 0308 	add.w	r3, sl, #8
    72c8:	2800      	cmp	r0, #0
    72ca:	f47f af18 	bne.w	70fe <_svfprintf_r+0x1ce>
    72ce:	3f10      	subs	r7, #16
    72d0:	993b      	ldr	r1, [sp, #236]	; 0xec
    72d2:	2f10      	cmp	r7, #16
    72d4:	9a3a      	ldr	r2, [sp, #232]	; 0xe8
    72d6:	dce3      	bgt.n	72a0 <_svfprintf_r+0x370>
    72d8:	46a0      	mov	r8, r4
    72da:	460d      	mov	r5, r1
    72dc:	4614      	mov	r4, r2
    72de:	3401      	adds	r4, #1
    72e0:	f8c6 8000 	str.w	r8, [r6]
    72e4:	2c07      	cmp	r4, #7
    72e6:	6077      	str	r7, [r6, #4]
    72e8:	443d      	add	r5, r7
    72ea:	943a      	str	r4, [sp, #232]	; 0xe8
    72ec:	953b      	str	r5, [sp, #236]	; 0xec
    72ee:	f300 827e 	bgt.w	77ee <_svfprintf_r+0x8be>
    72f2:	f89d 210f 	ldrb.w	r2, [sp, #271]	; 0x10f
    72f6:	461e      	mov	r6, r3
    72f8:	b16a      	cbz	r2, 7316 <_svfprintf_r+0x3e6>
    72fa:	9c3a      	ldr	r4, [sp, #232]	; 0xe8
    72fc:	ab43      	add	r3, sp, #268	; 0x10c
    72fe:	3303      	adds	r3, #3
    7300:	6033      	str	r3, [r6, #0]
    7302:	3401      	adds	r4, #1
    7304:	2301      	movs	r3, #1
    7306:	2c07      	cmp	r4, #7
    7308:	6073      	str	r3, [r6, #4]
    730a:	441d      	add	r5, r3
    730c:	943a      	str	r4, [sp, #232]	; 0xe8
    730e:	953b      	str	r5, [sp, #236]	; 0xec
    7310:	f300 83e9 	bgt.w	7ae6 <_svfprintf_r+0xbb6>
    7314:	3608      	adds	r6, #8
    7316:	f1bb 0f00 	cmp.w	fp, #0
    731a:	d00c      	beq.n	7336 <_svfprintf_r+0x406>
    731c:	9c3a      	ldr	r4, [sp, #232]	; 0xe8
    731e:	ab43      	add	r3, sp, #268	; 0x10c
    7320:	6033      	str	r3, [r6, #0]
    7322:	2302      	movs	r3, #2
    7324:	3401      	adds	r4, #1
    7326:	6073      	str	r3, [r6, #4]
    7328:	2c07      	cmp	r4, #7
    732a:	441d      	add	r5, r3
    732c:	943a      	str	r4, [sp, #232]	; 0xe8
    732e:	953b      	str	r5, [sp, #236]	; 0xec
    7330:	f300 83ce 	bgt.w	7ad0 <_svfprintf_r+0xba0>
    7334:	3608      	adds	r6, #8
    7336:	9a14      	ldr	r2, [sp, #80]	; 0x50
    7338:	2a80      	cmp	r2, #128	; 0x80
    733a:	f000 8310 	beq.w	795e <_svfprintf_r+0xa2e>
    733e:	9915      	ldr	r1, [sp, #84]	; 0x54
    7340:	9810      	ldr	r0, [sp, #64]	; 0x40
    7342:	1a0f      	subs	r7, r1, r0
    7344:	2f00      	cmp	r7, #0
    7346:	f340 835b 	ble.w	7a00 <_svfprintf_r+0xad0>
    734a:	2f10      	cmp	r7, #16
    734c:	f340 85ec 	ble.w	7f28 <_svfprintf_r+0xff8>
    7350:	9c3a      	ldr	r4, [sp, #232]	; 0xe8
    7352:	462a      	mov	r2, r5
    7354:	f8df 8a98 	ldr.w	r8, [pc, #2712]	; 7df0 <_svfprintf_r+0xec0>
    7358:	f04f 0b10 	mov.w	fp, #16
    735c:	4623      	mov	r3, r4
    735e:	9d0c      	ldr	r5, [sp, #48]	; 0x30
    7360:	4644      	mov	r4, r8
    7362:	f8dd 8044 	ldr.w	r8, [sp, #68]	; 0x44
    7366:	e002      	b.n	736e <_svfprintf_r+0x43e>
    7368:	3f10      	subs	r7, #16
    736a:	2f10      	cmp	r7, #16
    736c:	dd1b      	ble.n	73a6 <_svfprintf_r+0x476>
    736e:	3301      	adds	r3, #1
    7370:	6034      	str	r4, [r6, #0]
    7372:	f8c6 b004 	str.w	fp, [r6, #4]
    7376:	3210      	adds	r2, #16
    7378:	3608      	adds	r6, #8
    737a:	2b07      	cmp	r3, #7
    737c:	933a      	str	r3, [sp, #232]	; 0xe8
    737e:	f106 0908 	add.w	r9, r6, #8
    7382:	923b      	str	r2, [sp, #236]	; 0xec
    7384:	ddf0      	ble.n	7368 <_svfprintf_r+0x438>
    7386:	4640      	mov	r0, r8
    7388:	4629      	mov	r1, r5
    738a:	aa39      	add	r2, sp, #228	; 0xe4
    738c:	f10a 0908 	add.w	r9, sl, #8
    7390:	f003 fa3a 	bl	a808 <__ssprint_r>
    7394:	4656      	mov	r6, sl
    7396:	2800      	cmp	r0, #0
    7398:	f47f aeb1 	bne.w	70fe <_svfprintf_r+0x1ce>
    739c:	3f10      	subs	r7, #16
    739e:	9a3b      	ldr	r2, [sp, #236]	; 0xec
    73a0:	2f10      	cmp	r7, #16
    73a2:	9b3a      	ldr	r3, [sp, #232]	; 0xe8
    73a4:	dce3      	bgt.n	736e <_svfprintf_r+0x43e>
    73a6:	46a0      	mov	r8, r4
    73a8:	4615      	mov	r5, r2
    73aa:	461c      	mov	r4, r3
    73ac:	3401      	adds	r4, #1
    73ae:	f8c6 8000 	str.w	r8, [r6]
    73b2:	2c07      	cmp	r4, #7
    73b4:	6077      	str	r7, [r6, #4]
    73b6:	443d      	add	r5, r7
    73b8:	943a      	str	r4, [sp, #232]	; 0xe8
    73ba:	953b      	str	r5, [sp, #236]	; 0xec
    73bc:	f300 837d 	bgt.w	7aba <_svfprintf_r+0xb8a>
    73c0:	9a08      	ldr	r2, [sp, #32]
    73c2:	f412 7f80 	tst.w	r2, #256	; 0x100
    73c6:	f040 824e 	bne.w	7866 <_svfprintf_r+0x936>
    73ca:	9c3a      	ldr	r4, [sp, #232]	; 0xe8
    73cc:	9b10      	ldr	r3, [sp, #64]	; 0x40
    73ce:	3401      	adds	r4, #1
    73d0:	9813      	ldr	r0, [sp, #76]	; 0x4c
    73d2:	2c07      	cmp	r4, #7
    73d4:	441d      	add	r5, r3
    73d6:	f8c9 3004 	str.w	r3, [r9, #4]
    73da:	f8c9 0000 	str.w	r0, [r9]
    73de:	953b      	str	r5, [sp, #236]	; 0xec
    73e0:	943a      	str	r4, [sp, #232]	; 0xe8
    73e2:	f300 8235 	bgt.w	7850 <_svfprintf_r+0x920>
    73e6:	f109 0908 	add.w	r9, r9, #8
    73ea:	9c08      	ldr	r4, [sp, #32]
    73ec:	f014 0f04 	tst.w	r4, #4
    73f0:	d046      	beq.n	7480 <_svfprintf_r+0x550>
    73f2:	980d      	ldr	r0, [sp, #52]	; 0x34
    73f4:	990a      	ldr	r1, [sp, #40]	; 0x28
    73f6:	1a46      	subs	r6, r0, r1
    73f8:	2e00      	cmp	r6, #0
    73fa:	dd41      	ble.n	7480 <_svfprintf_r+0x550>
    73fc:	2e10      	cmp	r6, #16
    73fe:	f341 800b 	ble.w	8418 <_svfprintf_r+0x14e8>
    7402:	9c3a      	ldr	r4, [sp, #232]	; 0xe8
    7404:	f24d 08d4 	movw	r8, #53460	; 0xd0d4
    7408:	f2c0 0800 	movt	r8, #0
    740c:	2710      	movs	r7, #16
    740e:	4623      	mov	r3, r4
    7410:	f8dd b030 	ldr.w	fp, [sp, #48]	; 0x30
    7414:	4644      	mov	r4, r8
    7416:	f8dd 8044 	ldr.w	r8, [sp, #68]	; 0x44
    741a:	e002      	b.n	7422 <_svfprintf_r+0x4f2>
    741c:	3e10      	subs	r6, #16
    741e:	2e10      	cmp	r6, #16
    7420:	dd19      	ble.n	7456 <_svfprintf_r+0x526>
    7422:	3301      	adds	r3, #1
    7424:	3510      	adds	r5, #16
    7426:	2b07      	cmp	r3, #7
    7428:	f8c9 4000 	str.w	r4, [r9]
    742c:	f8c9 7004 	str.w	r7, [r9, #4]
    7430:	f109 0908 	add.w	r9, r9, #8
    7434:	933a      	str	r3, [sp, #232]	; 0xe8
    7436:	953b      	str	r5, [sp, #236]	; 0xec
    7438:	ddf0      	ble.n	741c <_svfprintf_r+0x4ec>
    743a:	4640      	mov	r0, r8
    743c:	4659      	mov	r1, fp
    743e:	aa39      	add	r2, sp, #228	; 0xe4
    7440:	46d1      	mov	r9, sl
    7442:	f003 f9e1 	bl	a808 <__ssprint_r>
    7446:	2800      	cmp	r0, #0
    7448:	f47f ae59 	bne.w	70fe <_svfprintf_r+0x1ce>
    744c:	3e10      	subs	r6, #16
    744e:	9d3b      	ldr	r5, [sp, #236]	; 0xec
    7450:	2e10      	cmp	r6, #16
    7452:	9b3a      	ldr	r3, [sp, #232]	; 0xe8
    7454:	dce5      	bgt.n	7422 <_svfprintf_r+0x4f2>
    7456:	46a0      	mov	r8, r4
    7458:	461c      	mov	r4, r3
    745a:	3401      	adds	r4, #1
    745c:	f8c9 8000 	str.w	r8, [r9]
    7460:	2c07      	cmp	r4, #7
    7462:	f8c9 6004 	str.w	r6, [r9, #4]
    7466:	4435      	add	r5, r6
    7468:	943a      	str	r4, [sp, #232]	; 0xe8
    746a:	953b      	str	r5, [sp, #236]	; 0xec
    746c:	dd08      	ble.n	7480 <_svfprintf_r+0x550>
    746e:	9811      	ldr	r0, [sp, #68]	; 0x44
    7470:	aa39      	add	r2, sp, #228	; 0xe4
    7472:	990c      	ldr	r1, [sp, #48]	; 0x30
    7474:	f003 f9c8 	bl	a808 <__ssprint_r>
    7478:	2800      	cmp	r0, #0
    747a:	f47f ae40 	bne.w	70fe <_svfprintf_r+0x1ce>
    747e:	9d3b      	ldr	r5, [sp, #236]	; 0xec
    7480:	9a0f      	ldr	r2, [sp, #60]	; 0x3c
    7482:	9c0a      	ldr	r4, [sp, #40]	; 0x28
    7484:	9b0d      	ldr	r3, [sp, #52]	; 0x34
    7486:	429c      	cmp	r4, r3
    7488:	bfac      	ite	ge
    748a:	1912      	addge	r2, r2, r4
    748c:	18d2      	addlt	r2, r2, r3
    748e:	920f      	str	r2, [sp, #60]	; 0x3c
    7490:	2d00      	cmp	r5, #0
    7492:	f040 8303 	bne.w	7a9c <_svfprintf_r+0xb6c>
    7496:	2000      	movs	r0, #0
    7498:	4656      	mov	r6, sl
    749a:	903a      	str	r0, [sp, #232]	; 0xe8
    749c:	e571      	b.n	6f82 <_svfprintf_r+0x52>
    749e:	9908      	ldr	r1, [sp, #32]
    74a0:	461d      	mov	r5, r3
    74a2:	9209      	str	r2, [sp, #36]	; 0x24
    74a4:	f011 0f08 	tst.w	r1, #8
    74a8:	9316      	str	r3, [sp, #88]	; 0x58
    74aa:	f000 8487 	beq.w	7dbc <_svfprintf_r+0xe8c>
    74ae:	9a12      	ldr	r2, [sp, #72]	; 0x48
    74b0:	1dd3      	adds	r3, r2, #7
    74b2:	f023 0307 	bic.w	r3, r3, #7
    74b6:	f103 0408 	add.w	r4, r3, #8
    74ba:	9412      	str	r4, [sp, #72]	; 0x48
    74bc:	6818      	ldr	r0, [r3, #0]
    74be:	901a      	str	r0, [sp, #104]	; 0x68
    74c0:	685b      	ldr	r3, [r3, #4]
    74c2:	931b      	str	r3, [sp, #108]	; 0x6c
    74c4:	981a      	ldr	r0, [sp, #104]	; 0x68
    74c6:	991b      	ldr	r1, [sp, #108]	; 0x6c
    74c8:	f003 f854 	bl	a574 <__fpclassifyd>
    74cc:	2801      	cmp	r0, #1
    74ce:	f040 8450 	bne.w	7d72 <_svfprintf_r+0xe42>
    74d2:	981a      	ldr	r0, [sp, #104]	; 0x68
    74d4:	2200      	movs	r2, #0
    74d6:	2300      	movs	r3, #0
    74d8:	991b      	ldr	r1, [sp, #108]	; 0x6c
    74da:	f7ff f803 	bl	64e4 <__aeabi_dcmplt>
    74de:	2800      	cmp	r0, #0
    74e0:	f040 872e 	bne.w	8340 <_svfprintf_r+0x1410>
    74e4:	f89d 210f 	ldrb.w	r2, [sp, #271]	; 0x10f
    74e8:	2003      	movs	r0, #3
    74ea:	f24d 03f8 	movw	r3, #53496	; 0xd0f8
    74ee:	f24d 01f4 	movw	r1, #53492	; 0xd0f4
    74f2:	900a      	str	r0, [sp, #40]	; 0x28
    74f4:	9816      	ldr	r0, [sp, #88]	; 0x58
    74f6:	f2c0 0100 	movt	r1, #0
    74fa:	f2c0 0300 	movt	r3, #0
    74fe:	2400      	movs	r4, #0
    7500:	2847      	cmp	r0, #71	; 0x47
    7502:	bfd8      	it	le
    7504:	460b      	movle	r3, r1
    7506:	9908      	ldr	r1, [sp, #32]
    7508:	9313      	str	r3, [sp, #76]	; 0x4c
    750a:	2303      	movs	r3, #3
    750c:	f021 0180 	bic.w	r1, r1, #128	; 0x80
    7510:	9415      	str	r4, [sp, #84]	; 0x54
    7512:	9108      	str	r1, [sp, #32]
    7514:	9310      	str	r3, [sp, #64]	; 0x40
    7516:	9418      	str	r4, [sp, #96]	; 0x60
    7518:	e696      	b.n	7248 <_svfprintf_r+0x318>
    751a:	9c08      	ldr	r4, [sp, #32]
    751c:	f044 0408 	orr.w	r4, r4, #8
    7520:	9408      	str	r4, [sp, #32]
    7522:	7813      	ldrb	r3, [r2, #0]
    7524:	e571      	b.n	700a <_svfprintf_r+0xda>
    7526:	9908      	ldr	r1, [sp, #32]
    7528:	9209      	str	r2, [sp, #36]	; 0x24
    752a:	f041 0110 	orr.w	r1, r1, #16
    752e:	9108      	str	r1, [sp, #32]
    7530:	9a08      	ldr	r2, [sp, #32]
    7532:	9316      	str	r3, [sp, #88]	; 0x58
    7534:	f012 0320 	ands.w	r3, r2, #32
    7538:	f000 80df 	beq.w	76fa <_svfprintf_r+0x7ca>
    753c:	9b12      	ldr	r3, [sp, #72]	; 0x48
    753e:	1dda      	adds	r2, r3, #7
    7540:	2300      	movs	r3, #0
    7542:	f022 0207 	bic.w	r2, r2, #7
    7546:	f102 0408 	add.w	r4, r2, #8
    754a:	9412      	str	r4, [sp, #72]	; 0x48
    754c:	e9d2 4500 	ldrd	r4, r5, [r2]
    7550:	ea54 0005 	orrs.w	r0, r4, r5
    7554:	bf0c      	ite	eq
    7556:	2200      	moveq	r2, #0
    7558:	2201      	movne	r2, #1
    755a:	2000      	movs	r0, #0
    755c:	f88d 010f 	strb.w	r0, [sp, #271]	; 0x10f
    7560:	e632      	b.n	71c8 <_svfprintf_r+0x298>
    7562:	9c08      	ldr	r4, [sp, #32]
    7564:	9209      	str	r2, [sp, #36]	; 0x24
    7566:	f044 0410 	orr.w	r4, r4, #16
    756a:	9408      	str	r4, [sp, #32]
    756c:	9808      	ldr	r0, [sp, #32]
    756e:	9316      	str	r3, [sp, #88]	; 0x58
    7570:	f010 0f20 	tst.w	r0, #32
    7574:	f000 8104 	beq.w	7780 <_svfprintf_r+0x850>
    7578:	9912      	ldr	r1, [sp, #72]	; 0x48
    757a:	2301      	movs	r3, #1
    757c:	1dca      	adds	r2, r1, #7
    757e:	e7e0      	b.n	7542 <_svfprintf_r+0x612>
    7580:	9209      	str	r2, [sp, #36]	; 0x24
    7582:	f24d 1104 	movw	r1, #53508	; 0xd104
    7586:	9a08      	ldr	r2, [sp, #32]
    7588:	f2c0 0100 	movt	r1, #0
    758c:	9316      	str	r3, [sp, #88]	; 0x58
    758e:	f012 0f20 	tst.w	r2, #32
    7592:	9117      	str	r1, [sp, #92]	; 0x5c
    7594:	f000 8120 	beq.w	77d8 <_svfprintf_r+0x8a8>
    7598:	9c12      	ldr	r4, [sp, #72]	; 0x48
    759a:	1de3      	adds	r3, r4, #7
    759c:	f023 0307 	bic.w	r3, r3, #7
    75a0:	f103 0008 	add.w	r0, r3, #8
    75a4:	9012      	str	r0, [sp, #72]	; 0x48
    75a6:	e9d3 4500 	ldrd	r4, r5, [r3]
    75aa:	ea54 0205 	orrs.w	r2, r4, r5
    75ae:	9b08      	ldr	r3, [sp, #32]
    75b0:	bf0c      	ite	eq
    75b2:	2200      	moveq	r2, #0
    75b4:	2201      	movne	r2, #1
    75b6:	4213      	tst	r3, r2
    75b8:	f000 8369 	beq.w	7c8e <_svfprintf_r+0xd5e>
    75bc:	9816      	ldr	r0, [sp, #88]	; 0x58
    75be:	2330      	movs	r3, #48	; 0x30
    75c0:	9908      	ldr	r1, [sp, #32]
    75c2:	2201      	movs	r2, #1
    75c4:	f88d 310c 	strb.w	r3, [sp, #268]	; 0x10c
    75c8:	2302      	movs	r3, #2
    75ca:	f041 0102 	orr.w	r1, r1, #2
    75ce:	f88d 010d 	strb.w	r0, [sp, #269]	; 0x10d
    75d2:	9108      	str	r1, [sp, #32]
    75d4:	e7c1      	b.n	755a <_svfprintf_r+0x62a>
    75d6:	9808      	ldr	r0, [sp, #32]
    75d8:	f040 0020 	orr.w	r0, r0, #32
    75dc:	9008      	str	r0, [sp, #32]
    75de:	7813      	ldrb	r3, [r2, #0]
    75e0:	e513      	b.n	700a <_svfprintf_r+0xda>
    75e2:	9209      	str	r2, [sp, #36]	; 0x24
    75e4:	2100      	movs	r1, #0
    75e6:	9a12      	ldr	r2, [sp, #72]	; 0x48
    75e8:	9316      	str	r3, [sp, #88]	; 0x58
    75ea:	f88d 110f 	strb.w	r1, [sp, #271]	; 0x10f
    75ee:	1d14      	adds	r4, r2, #4
    75f0:	6813      	ldr	r3, [r2, #0]
    75f2:	9313      	str	r3, [sp, #76]	; 0x4c
    75f4:	2b00      	cmp	r3, #0
    75f6:	f000 86fd 	beq.w	83f4 <_svfprintf_r+0x14c4>
    75fa:	2f00      	cmp	r7, #0
    75fc:	f2c0 86a7 	blt.w	834e <_svfprintf_r+0x141e>
    7600:	9813      	ldr	r0, [sp, #76]	; 0x4c
    7602:	2100      	movs	r1, #0
    7604:	463a      	mov	r2, r7
    7606:	f002 fadd 	bl	9bc4 <memchr>
    760a:	2800      	cmp	r0, #0
    760c:	f000 874a 	beq.w	84a4 <_svfprintf_r+0x1574>
    7610:	9b13      	ldr	r3, [sp, #76]	; 0x4c
    7612:	1ac0      	subs	r0, r0, r3
    7614:	9010      	str	r0, [sp, #64]	; 0x40
    7616:	42b8      	cmp	r0, r7
    7618:	f340 84f5 	ble.w	8006 <_svfprintf_r+0x10d6>
    761c:	2000      	movs	r0, #0
    761e:	ea27 71e7 	bic.w	r1, r7, r7, asr #31
    7622:	9015      	str	r0, [sp, #84]	; 0x54
    7624:	910a      	str	r1, [sp, #40]	; 0x28
    7626:	f89d 210f 	ldrb.w	r2, [sp, #271]	; 0x10f
    762a:	9412      	str	r4, [sp, #72]	; 0x48
    762c:	9710      	str	r7, [sp, #64]	; 0x40
    762e:	9018      	str	r0, [sp, #96]	; 0x60
    7630:	e60a      	b.n	7248 <_svfprintf_r+0x318>
    7632:	7813      	ldrb	r3, [r2, #0]
    7634:	2b6c      	cmp	r3, #108	; 0x6c
    7636:	bf0b      	itete	eq
    7638:	9b08      	ldreq	r3, [sp, #32]
    763a:	9c08      	ldrne	r4, [sp, #32]
    763c:	f043 0320 	orreq.w	r3, r3, #32
    7640:	f044 0410 	orrne.w	r4, r4, #16
    7644:	bf0a      	itet	eq
    7646:	9308      	streq	r3, [sp, #32]
    7648:	9408      	strne	r4, [sp, #32]
    764a:	f812 3f01 	ldrbeq.w	r3, [r2, #1]!
    764e:	e4dc      	b.n	700a <_svfprintf_r+0xda>
    7650:	9209      	str	r2, [sp, #36]	; 0x24
    7652:	9316      	str	r3, [sp, #88]	; 0x58
    7654:	2b00      	cmp	r3, #0
    7656:	f43f ad4b 	beq.w	70f0 <_svfprintf_r+0x1c0>
    765a:	2200      	movs	r2, #0
    765c:	2101      	movs	r1, #1
    765e:	f88d 30bc 	strb.w	r3, [sp, #188]	; 0xbc
    7662:	ac2f      	add	r4, sp, #188	; 0xbc
    7664:	2300      	movs	r3, #0
    7666:	910a      	str	r1, [sp, #40]	; 0x28
    7668:	9110      	str	r1, [sp, #64]	; 0x40
    766a:	f88d 310f 	strb.w	r3, [sp, #271]	; 0x10f
    766e:	9215      	str	r2, [sp, #84]	; 0x54
    7670:	9218      	str	r2, [sp, #96]	; 0x60
    7672:	9413      	str	r4, [sp, #76]	; 0x4c
    7674:	e5ec      	b.n	7250 <_svfprintf_r+0x320>
    7676:	f89d 310f 	ldrb.w	r3, [sp, #271]	; 0x10f
    767a:	2b00      	cmp	r3, #0
    767c:	f040 839b 	bne.w	7db6 <_svfprintf_r+0xe86>
    7680:	f88d 510f 	strb.w	r5, [sp, #271]	; 0x10f
    7684:	7813      	ldrb	r3, [r2, #0]
    7686:	e4c0      	b.n	700a <_svfprintf_r+0xda>
    7688:	9808      	ldr	r0, [sp, #32]
    768a:	f040 0001 	orr.w	r0, r0, #1
    768e:	9008      	str	r0, [sp, #32]
    7690:	7813      	ldrb	r3, [r2, #0]
    7692:	e4ba      	b.n	700a <_svfprintf_r+0xda>
    7694:	9316      	str	r3, [sp, #88]	; 0x58
    7696:	9b08      	ldr	r3, [sp, #32]
    7698:	9209      	str	r2, [sp, #36]	; 0x24
    769a:	f013 0f20 	tst.w	r3, #32
    769e:	f47f ad7e 	bne.w	719e <_svfprintf_r+0x26e>
    76a2:	9908      	ldr	r1, [sp, #32]
    76a4:	f011 0f10 	tst.w	r1, #16
    76a8:	f000 83a4 	beq.w	7df4 <_svfprintf_r+0xec4>
    76ac:	9a12      	ldr	r2, [sp, #72]	; 0x48
    76ae:	6814      	ldr	r4, [r2, #0]
    76b0:	3204      	adds	r2, #4
    76b2:	9212      	str	r2, [sp, #72]	; 0x48
    76b4:	17e5      	asrs	r5, r4, #31
    76b6:	e57b      	b.n	71b0 <_svfprintf_r+0x280>
    76b8:	9808      	ldr	r0, [sp, #32]
    76ba:	f040 0040 	orr.w	r0, r0, #64	; 0x40
    76be:	9008      	str	r0, [sp, #32]
    76c0:	7813      	ldrb	r3, [r2, #0]
    76c2:	e4a2      	b.n	700a <_svfprintf_r+0xda>
    76c4:	9316      	str	r3, [sp, #88]	; 0x58
    76c6:	2101      	movs	r1, #1
    76c8:	9b12      	ldr	r3, [sp, #72]	; 0x48
    76ca:	2000      	movs	r0, #0
    76cc:	9209      	str	r2, [sp, #36]	; 0x24
    76ce:	2200      	movs	r2, #0
    76d0:	1d1c      	adds	r4, r3, #4
    76d2:	910a      	str	r1, [sp, #40]	; 0x28
    76d4:	681b      	ldr	r3, [r3, #0]
    76d6:	9412      	str	r4, [sp, #72]	; 0x48
    76d8:	9110      	str	r1, [sp, #64]	; 0x40
    76da:	a92f      	add	r1, sp, #188	; 0xbc
    76dc:	f88d 010f 	strb.w	r0, [sp, #271]	; 0x10f
    76e0:	9215      	str	r2, [sp, #84]	; 0x54
    76e2:	9218      	str	r2, [sp, #96]	; 0x60
    76e4:	9113      	str	r1, [sp, #76]	; 0x4c
    76e6:	f88d 30bc 	strb.w	r3, [sp, #188]	; 0xbc
    76ea:	e5b1      	b.n	7250 <_svfprintf_r+0x320>
    76ec:	9209      	str	r2, [sp, #36]	; 0x24
    76ee:	9a08      	ldr	r2, [sp, #32]
    76f0:	9316      	str	r3, [sp, #88]	; 0x58
    76f2:	f012 0320 	ands.w	r3, r2, #32
    76f6:	f47f af21 	bne.w	753c <_svfprintf_r+0x60c>
    76fa:	9908      	ldr	r1, [sp, #32]
    76fc:	f011 0210 	ands.w	r2, r1, #16
    7700:	f000 8392 	beq.w	7e28 <_svfprintf_r+0xef8>
    7704:	9c12      	ldr	r4, [sp, #72]	; 0x48
    7706:	6822      	ldr	r2, [r4, #0]
    7708:	3404      	adds	r4, #4
    770a:	2500      	movs	r5, #0
    770c:	9412      	str	r4, [sp, #72]	; 0x48
    770e:	4614      	mov	r4, r2
    7710:	3a00      	subs	r2, #0
    7712:	bf18      	it	ne
    7714:	2201      	movne	r2, #1
    7716:	e720      	b.n	755a <_svfprintf_r+0x62a>
    7718:	9b12      	ldr	r3, [sp, #72]	; 0x48
    771a:	2178      	movs	r1, #120	; 0x78
    771c:	9c08      	ldr	r4, [sp, #32]
    771e:	2500      	movs	r5, #0
    7720:	9209      	str	r2, [sp, #36]	; 0x24
    7722:	f24d 1018 	movw	r0, #53528	; 0xd118
    7726:	681a      	ldr	r2, [r3, #0]
    7728:	f044 0402 	orr.w	r4, r4, #2
    772c:	3304      	adds	r3, #4
    772e:	9408      	str	r4, [sp, #32]
    7730:	9312      	str	r3, [sp, #72]	; 0x48
    7732:	4614      	mov	r4, r2
    7734:	2330      	movs	r3, #48	; 0x30
    7736:	3a00      	subs	r2, #0
    7738:	f88d 310c 	strb.w	r3, [sp, #268]	; 0x10c
    773c:	bf18      	it	ne
    773e:	2201      	movne	r2, #1
    7740:	f2c0 0000 	movt	r0, #0
    7744:	f88d 110d 	strb.w	r1, [sp, #269]	; 0x10d
    7748:	9017      	str	r0, [sp, #92]	; 0x5c
    774a:	2302      	movs	r3, #2
    774c:	9116      	str	r1, [sp, #88]	; 0x58
    774e:	e704      	b.n	755a <_svfprintf_r+0x62a>
    7750:	9908      	ldr	r1, [sp, #32]
    7752:	9209      	str	r2, [sp, #36]	; 0x24
    7754:	f011 0f20 	tst.w	r1, #32
    7758:	f000 8359 	beq.w	7e0e <_svfprintf_r+0xede>
    775c:	9a12      	ldr	r2, [sp, #72]	; 0x48
    775e:	9c0f      	ldr	r4, [sp, #60]	; 0x3c
    7760:	9812      	ldr	r0, [sp, #72]	; 0x48
    7762:	6811      	ldr	r1, [r2, #0]
    7764:	4622      	mov	r2, r4
    7766:	17e3      	asrs	r3, r4, #31
    7768:	3004      	adds	r0, #4
    776a:	9012      	str	r0, [sp, #72]	; 0x48
    776c:	e9c1 2300 	strd	r2, r3, [r1]
    7770:	e407      	b.n	6f82 <_svfprintf_r+0x52>
    7772:	9808      	ldr	r0, [sp, #32]
    7774:	9209      	str	r2, [sp, #36]	; 0x24
    7776:	f010 0f20 	tst.w	r0, #32
    777a:	9316      	str	r3, [sp, #88]	; 0x58
    777c:	f47f aefc 	bne.w	7578 <_svfprintf_r+0x648>
    7780:	9908      	ldr	r1, [sp, #32]
    7782:	f011 0f10 	tst.w	r1, #16
    7786:	f040 8291 	bne.w	7cac <_svfprintf_r+0xd7c>
    778a:	9808      	ldr	r0, [sp, #32]
    778c:	f010 0f40 	tst.w	r0, #64	; 0x40
    7790:	f000 828c 	beq.w	7cac <_svfprintf_r+0xd7c>
    7794:	9912      	ldr	r1, [sp, #72]	; 0x48
    7796:	2301      	movs	r3, #1
    7798:	2500      	movs	r5, #0
    779a:	880a      	ldrh	r2, [r1, #0]
    779c:	3104      	adds	r1, #4
    779e:	9112      	str	r1, [sp, #72]	; 0x48
    77a0:	4614      	mov	r4, r2
    77a2:	3a00      	subs	r2, #0
    77a4:	bf18      	it	ne
    77a6:	2201      	movne	r2, #1
    77a8:	e6d7      	b.n	755a <_svfprintf_r+0x62a>
    77aa:	9b12      	ldr	r3, [sp, #72]	; 0x48
    77ac:	9c12      	ldr	r4, [sp, #72]	; 0x48
    77ae:	681b      	ldr	r3, [r3, #0]
    77b0:	1d20      	adds	r0, r4, #4
    77b2:	2b00      	cmp	r3, #0
    77b4:	930d      	str	r3, [sp, #52]	; 0x34
    77b6:	f6ff ac89 	blt.w	70cc <_svfprintf_r+0x19c>
    77ba:	7813      	ldrb	r3, [r2, #0]
    77bc:	9012      	str	r0, [sp, #72]	; 0x48
    77be:	e424      	b.n	700a <_svfprintf_r+0xda>
    77c0:	9209      	str	r2, [sp, #36]	; 0x24
    77c2:	f24d 1018 	movw	r0, #53528	; 0xd118
    77c6:	9a08      	ldr	r2, [sp, #32]
    77c8:	f2c0 0000 	movt	r0, #0
    77cc:	9316      	str	r3, [sp, #88]	; 0x58
    77ce:	f012 0f20 	tst.w	r2, #32
    77d2:	9017      	str	r0, [sp, #92]	; 0x5c
    77d4:	f47f aee0 	bne.w	7598 <_svfprintf_r+0x668>
    77d8:	9908      	ldr	r1, [sp, #32]
    77da:	f011 0f10 	tst.w	r1, #16
    77de:	f000 82fa 	beq.w	7dd6 <_svfprintf_r+0xea6>
    77e2:	9a12      	ldr	r2, [sp, #72]	; 0x48
    77e4:	2500      	movs	r5, #0
    77e6:	6814      	ldr	r4, [r2, #0]
    77e8:	3204      	adds	r2, #4
    77ea:	9212      	str	r2, [sp, #72]	; 0x48
    77ec:	e6dd      	b.n	75aa <_svfprintf_r+0x67a>
    77ee:	9811      	ldr	r0, [sp, #68]	; 0x44
    77f0:	aa39      	add	r2, sp, #228	; 0xe4
    77f2:	990c      	ldr	r1, [sp, #48]	; 0x30
    77f4:	f003 f808 	bl	a808 <__ssprint_r>
    77f8:	2800      	cmp	r0, #0
    77fa:	f47f ac80 	bne.w	70fe <_svfprintf_r+0x1ce>
    77fe:	f89d 210f 	ldrb.w	r2, [sp, #271]	; 0x10f
    7802:	4656      	mov	r6, sl
    7804:	9d3b      	ldr	r5, [sp, #236]	; 0xec
    7806:	e577      	b.n	72f8 <_svfprintf_r+0x3c8>
    7808:	9a08      	ldr	r2, [sp, #32]
    780a:	f012 0f01 	tst.w	r2, #1
    780e:	f040 80fd 	bne.w	7a0c <_svfprintf_r+0xadc>
    7812:	9c3a      	ldr	r4, [sp, #232]	; 0xe8
    7814:	3501      	adds	r5, #1
    7816:	9a13      	ldr	r2, [sp, #76]	; 0x4c
    7818:	2301      	movs	r3, #1
    781a:	3401      	adds	r4, #1
    781c:	f8c9 3004 	str.w	r3, [r9, #4]
    7820:	2c07      	cmp	r4, #7
    7822:	f8c9 2000 	str.w	r2, [r9]
    7826:	953b      	str	r5, [sp, #236]	; 0xec
    7828:	943a      	str	r4, [sp, #232]	; 0xe8
    782a:	f300 8533 	bgt.w	8294 <_svfprintf_r+0x1364>
    782e:	f109 0b08 	add.w	fp, r9, #8
    7832:	f10b 0908 	add.w	r9, fp, #8
    7836:	9b1d      	ldr	r3, [sp, #116]	; 0x74
    7838:	3401      	adds	r4, #1
    783a:	2c07      	cmp	r4, #7
    783c:	441d      	add	r5, r3
    783e:	f8cb 3004 	str.w	r3, [fp, #4]
    7842:	ab3e      	add	r3, sp, #248	; 0xf8
    7844:	f8cb 3000 	str.w	r3, [fp]
    7848:	953b      	str	r5, [sp, #236]	; 0xec
    784a:	943a      	str	r4, [sp, #232]	; 0xe8
    784c:	f77f adcd 	ble.w	73ea <_svfprintf_r+0x4ba>
    7850:	9811      	ldr	r0, [sp, #68]	; 0x44
    7852:	aa39      	add	r2, sp, #228	; 0xe4
    7854:	990c      	ldr	r1, [sp, #48]	; 0x30
    7856:	f002 ffd7 	bl	a808 <__ssprint_r>
    785a:	2800      	cmp	r0, #0
    785c:	f47f ac4f 	bne.w	70fe <_svfprintf_r+0x1ce>
    7860:	46d1      	mov	r9, sl
    7862:	9d3b      	ldr	r5, [sp, #236]	; 0xec
    7864:	e5c1      	b.n	73ea <_svfprintf_r+0x4ba>
    7866:	9916      	ldr	r1, [sp, #88]	; 0x58
    7868:	2965      	cmp	r1, #101	; 0x65
    786a:	f340 80cb 	ble.w	7a04 <_svfprintf_r+0xad4>
    786e:	981a      	ldr	r0, [sp, #104]	; 0x68
    7870:	2200      	movs	r2, #0
    7872:	2300      	movs	r3, #0
    7874:	991b      	ldr	r1, [sp, #108]	; 0x6c
    7876:	f7fe fe2b 	bl	64d0 <__aeabi_dcmpeq>
    787a:	2800      	cmp	r0, #0
    787c:	f000 813e 	beq.w	7afc <_svfprintf_r+0xbcc>
    7880:	9c3a      	ldr	r4, [sp, #232]	; 0xe8
    7882:	f24d 1334 	movw	r3, #53556	; 0xd134
    7886:	f2c0 0300 	movt	r3, #0
    788a:	f8c9 3000 	str.w	r3, [r9]
    788e:	3401      	adds	r4, #1
    7890:	2301      	movs	r3, #1
    7892:	2c07      	cmp	r4, #7
    7894:	f8c9 3004 	str.w	r3, [r9, #4]
    7898:	441d      	add	r5, r3
    789a:	943a      	str	r4, [sp, #232]	; 0xe8
    789c:	953b      	str	r5, [sp, #236]	; 0xec
    789e:	bfd8      	it	le
    78a0:	f109 0908 	addle.w	r9, r9, #8
    78a4:	f300 8347 	bgt.w	7f36 <_svfprintf_r+0x1006>
    78a8:	9b42      	ldr	r3, [sp, #264]	; 0x108
    78aa:	9a0e      	ldr	r2, [sp, #56]	; 0x38
    78ac:	4293      	cmp	r3, r2
    78ae:	db04      	blt.n	78ba <_svfprintf_r+0x98a>
    78b0:	9b08      	ldr	r3, [sp, #32]
    78b2:	f013 0f01 	tst.w	r3, #1
    78b6:	f43f ad98 	beq.w	73ea <_svfprintf_r+0x4ba>
    78ba:	9c3a      	ldr	r4, [sp, #232]	; 0xe8
    78bc:	981c      	ldr	r0, [sp, #112]	; 0x70
    78be:	3401      	adds	r4, #1
    78c0:	9919      	ldr	r1, [sp, #100]	; 0x64
    78c2:	2c07      	cmp	r4, #7
    78c4:	4405      	add	r5, r0
    78c6:	f8c9 0004 	str.w	r0, [r9, #4]
    78ca:	bfd8      	it	le
    78cc:	f109 0308 	addle.w	r3, r9, #8
    78d0:	f8c9 1000 	str.w	r1, [r9]
    78d4:	953b      	str	r5, [sp, #236]	; 0xec
    78d6:	943a      	str	r4, [sp, #232]	; 0xe8
    78d8:	f300 83bd 	bgt.w	8056 <_svfprintf_r+0x1126>
    78dc:	9a0e      	ldr	r2, [sp, #56]	; 0x38
    78de:	1e56      	subs	r6, r2, #1
    78e0:	2e00      	cmp	r6, #0
    78e2:	f340 831e 	ble.w	7f22 <_svfprintf_r+0xff2>
    78e6:	2e10      	cmp	r6, #16
    78e8:	f340 8601 	ble.w	84ee <_svfprintf_r+0x15be>
    78ec:	9c3a      	ldr	r4, [sp, #232]	; 0xe8
    78ee:	2710      	movs	r7, #16
    78f0:	f8df 84fc 	ldr.w	r8, [pc, #1276]	; 7df0 <_svfprintf_r+0xec0>
    78f4:	4622      	mov	r2, r4
    78f6:	f8dd b030 	ldr.w	fp, [sp, #48]	; 0x30
    78fa:	4644      	mov	r4, r8
    78fc:	f8dd 8044 	ldr.w	r8, [sp, #68]	; 0x44
    7900:	e003      	b.n	790a <_svfprintf_r+0x9da>
    7902:	3e10      	subs	r6, #16
    7904:	2e10      	cmp	r6, #16
    7906:	f340 81c4 	ble.w	7c92 <_svfprintf_r+0xd62>
    790a:	3201      	adds	r2, #1
    790c:	601c      	str	r4, [r3, #0]
    790e:	605f      	str	r7, [r3, #4]
    7910:	3510      	adds	r5, #16
    7912:	3308      	adds	r3, #8
    7914:	2a07      	cmp	r2, #7
    7916:	923a      	str	r2, [sp, #232]	; 0xe8
    7918:	f103 0908 	add.w	r9, r3, #8
    791c:	953b      	str	r5, [sp, #236]	; 0xec
    791e:	ddf0      	ble.n	7902 <_svfprintf_r+0x9d2>
    7920:	4640      	mov	r0, r8
    7922:	4659      	mov	r1, fp
    7924:	aa39      	add	r2, sp, #228	; 0xe4
    7926:	f10a 0908 	add.w	r9, sl, #8
    792a:	f002 ff6d 	bl	a808 <__ssprint_r>
    792e:	4653      	mov	r3, sl
    7930:	2800      	cmp	r0, #0
    7932:	f47f abe4 	bne.w	70fe <_svfprintf_r+0x1ce>
    7936:	9d3b      	ldr	r5, [sp, #236]	; 0xec
    7938:	9a3a      	ldr	r2, [sp, #232]	; 0xe8
    793a:	e7e2      	b.n	7902 <_svfprintf_r+0x9d2>
    793c:	2b00      	cmp	r3, #0
    793e:	f040 80b7 	bne.w	7ab0 <_svfprintf_r+0xb80>
    7942:	9c08      	ldr	r4, [sp, #32]
    7944:	f014 0f01 	tst.w	r4, #1
    7948:	f000 812b 	beq.w	7ba2 <_svfprintf_r+0xc72>
    794c:	2001      	movs	r0, #1
    794e:	2330      	movs	r3, #48	; 0x30
    7950:	f10d 01e3 	add.w	r1, sp, #227	; 0xe3
    7954:	9010      	str	r0, [sp, #64]	; 0x40
    7956:	f88d 30e3 	strb.w	r3, [sp, #227]	; 0xe3
    795a:	9113      	str	r1, [sp, #76]	; 0x4c
    795c:	e46a      	b.n	7234 <_svfprintf_r+0x304>
    795e:	9b0d      	ldr	r3, [sp, #52]	; 0x34
    7960:	9c0a      	ldr	r4, [sp, #40]	; 0x28
    7962:	1b1f      	subs	r7, r3, r4
    7964:	2f00      	cmp	r7, #0
    7966:	f77f acea 	ble.w	733e <_svfprintf_r+0x40e>
    796a:	2f10      	cmp	r7, #16
    796c:	f340 8588 	ble.w	8480 <_svfprintf_r+0x1550>
    7970:	9c3a      	ldr	r4, [sp, #232]	; 0xe8
    7972:	4633      	mov	r3, r6
    7974:	f8df 8478 	ldr.w	r8, [pc, #1144]	; 7df0 <_svfprintf_r+0xec0>
    7978:	f04f 0910 	mov.w	r9, #16
    797c:	4622      	mov	r2, r4
    797e:	f8dd b030 	ldr.w	fp, [sp, #48]	; 0x30
    7982:	4644      	mov	r4, r8
    7984:	f8dd 8044 	ldr.w	r8, [sp, #68]	; 0x44
    7988:	e002      	b.n	7990 <_svfprintf_r+0xa60>
    798a:	3f10      	subs	r7, #16
    798c:	2f10      	cmp	r7, #16
    798e:	dd1b      	ble.n	79c8 <_svfprintf_r+0xa98>
    7990:	3201      	adds	r2, #1
    7992:	601c      	str	r4, [r3, #0]
    7994:	f8c3 9004 	str.w	r9, [r3, #4]
    7998:	3510      	adds	r5, #16
    799a:	3308      	adds	r3, #8
    799c:	2a07      	cmp	r2, #7
    799e:	923a      	str	r2, [sp, #232]	; 0xe8
    79a0:	f103 0608 	add.w	r6, r3, #8
    79a4:	953b      	str	r5, [sp, #236]	; 0xec
    79a6:	ddf0      	ble.n	798a <_svfprintf_r+0xa5a>
    79a8:	4640      	mov	r0, r8
    79aa:	4659      	mov	r1, fp
    79ac:	aa39      	add	r2, sp, #228	; 0xe4
    79ae:	f10a 0608 	add.w	r6, sl, #8
    79b2:	f002 ff29 	bl	a808 <__ssprint_r>
    79b6:	4653      	mov	r3, sl
    79b8:	2800      	cmp	r0, #0
    79ba:	f47f aba0 	bne.w	70fe <_svfprintf_r+0x1ce>
    79be:	3f10      	subs	r7, #16
    79c0:	9d3b      	ldr	r5, [sp, #236]	; 0xec
    79c2:	2f10      	cmp	r7, #16
    79c4:	9a3a      	ldr	r2, [sp, #232]	; 0xe8
    79c6:	dce3      	bgt.n	7990 <_svfprintf_r+0xa60>
    79c8:	46a0      	mov	r8, r4
    79ca:	4614      	mov	r4, r2
    79cc:	3401      	adds	r4, #1
    79ce:	f8c3 8000 	str.w	r8, [r3]
    79d2:	2c07      	cmp	r4, #7
    79d4:	605f      	str	r7, [r3, #4]
    79d6:	443d      	add	r5, r7
    79d8:	943a      	str	r4, [sp, #232]	; 0xe8
    79da:	953b      	str	r5, [sp, #236]	; 0xec
    79dc:	f77f acaf 	ble.w	733e <_svfprintf_r+0x40e>
    79e0:	9811      	ldr	r0, [sp, #68]	; 0x44
    79e2:	aa39      	add	r2, sp, #228	; 0xe4
    79e4:	990c      	ldr	r1, [sp, #48]	; 0x30
    79e6:	f002 ff0f 	bl	a808 <__ssprint_r>
    79ea:	2800      	cmp	r0, #0
    79ec:	f47f ab87 	bne.w	70fe <_svfprintf_r+0x1ce>
    79f0:	9915      	ldr	r1, [sp, #84]	; 0x54
    79f2:	4656      	mov	r6, sl
    79f4:	9810      	ldr	r0, [sp, #64]	; 0x40
    79f6:	9d3b      	ldr	r5, [sp, #236]	; 0xec
    79f8:	1a0f      	subs	r7, r1, r0
    79fa:	2f00      	cmp	r7, #0
    79fc:	f73f aca5 	bgt.w	734a <_svfprintf_r+0x41a>
    7a00:	46b1      	mov	r9, r6
    7a02:	e4dd      	b.n	73c0 <_svfprintf_r+0x490>
    7a04:	990e      	ldr	r1, [sp, #56]	; 0x38
    7a06:	2901      	cmp	r1, #1
    7a08:	f77f aefe 	ble.w	7808 <_svfprintf_r+0x8d8>
    7a0c:	9c3a      	ldr	r4, [sp, #232]	; 0xe8
    7a0e:	3501      	adds	r5, #1
    7a10:	9b13      	ldr	r3, [sp, #76]	; 0x4c
    7a12:	3401      	adds	r4, #1
    7a14:	f8c9 3000 	str.w	r3, [r9]
    7a18:	2301      	movs	r3, #1
    7a1a:	2c07      	cmp	r4, #7
    7a1c:	f8c9 3004 	str.w	r3, [r9, #4]
    7a20:	bfd8      	it	le
    7a22:	f109 0908 	addle.w	r9, r9, #8
    7a26:	953b      	str	r5, [sp, #236]	; 0xec
    7a28:	943a      	str	r4, [sp, #232]	; 0xe8
    7a2a:	bfd8      	it	le
    7a2c:	f109 0608 	addle.w	r6, r9, #8
    7a30:	f300 8141 	bgt.w	7cb6 <_svfprintf_r+0xd86>
    7a34:	3401      	adds	r4, #1
    7a36:	991c      	ldr	r1, [sp, #112]	; 0x70
    7a38:	9819      	ldr	r0, [sp, #100]	; 0x64
    7a3a:	2c07      	cmp	r4, #7
    7a3c:	440d      	add	r5, r1
    7a3e:	bfd8      	it	le
    7a40:	f106 0b08 	addle.w	fp, r6, #8
    7a44:	f8c9 1004 	str.w	r1, [r9, #4]
    7a48:	f8c9 0000 	str.w	r0, [r9]
    7a4c:	943a      	str	r4, [sp, #232]	; 0xe8
    7a4e:	953b      	str	r5, [sp, #236]	; 0xec
    7a50:	f300 813f 	bgt.w	7cd2 <_svfprintf_r+0xda2>
    7a54:	981a      	ldr	r0, [sp, #104]	; 0x68
    7a56:	2200      	movs	r2, #0
    7a58:	2300      	movs	r3, #0
    7a5a:	991b      	ldr	r1, [sp, #108]	; 0x6c
    7a5c:	f7fe fd38 	bl	64d0 <__aeabi_dcmpeq>
    7a60:	2800      	cmp	r0, #0
    7a62:	f040 80ce 	bne.w	7c02 <_svfprintf_r+0xcd2>
    7a66:	9b0e      	ldr	r3, [sp, #56]	; 0x38
    7a68:	3401      	adds	r4, #1
    7a6a:	9813      	ldr	r0, [sp, #76]	; 0x4c
    7a6c:	1e5a      	subs	r2, r3, #1
    7a6e:	6072      	str	r2, [r6, #4]
    7a70:	1c43      	adds	r3, r0, #1
    7a72:	2c07      	cmp	r4, #7
    7a74:	6033      	str	r3, [r6, #0]
    7a76:	4415      	add	r5, r2
    7a78:	943a      	str	r4, [sp, #232]	; 0xe8
    7a7a:	953b      	str	r5, [sp, #236]	; 0xec
    7a7c:	f77f aed9 	ble.w	7832 <_svfprintf_r+0x902>
    7a80:	9811      	ldr	r0, [sp, #68]	; 0x44
    7a82:	aa39      	add	r2, sp, #228	; 0xe4
    7a84:	990c      	ldr	r1, [sp, #48]	; 0x30
    7a86:	f002 febf 	bl	a808 <__ssprint_r>
    7a8a:	2800      	cmp	r0, #0
    7a8c:	f47f ab37 	bne.w	70fe <_svfprintf_r+0x1ce>
    7a90:	f10a 0908 	add.w	r9, sl, #8
    7a94:	46d3      	mov	fp, sl
    7a96:	9d3b      	ldr	r5, [sp, #236]	; 0xec
    7a98:	9c3a      	ldr	r4, [sp, #232]	; 0xe8
    7a9a:	e6cc      	b.n	7836 <_svfprintf_r+0x906>
    7a9c:	9811      	ldr	r0, [sp, #68]	; 0x44
    7a9e:	aa39      	add	r2, sp, #228	; 0xe4
    7aa0:	990c      	ldr	r1, [sp, #48]	; 0x30
    7aa2:	f002 feb1 	bl	a808 <__ssprint_r>
    7aa6:	2800      	cmp	r0, #0
    7aa8:	f43f acf5 	beq.w	7496 <_svfprintf_r+0x566>
    7aac:	f7ff bb27 	b.w	70fe <_svfprintf_r+0x1ce>
    7ab0:	9210      	str	r2, [sp, #64]	; 0x40
    7ab2:	aa39      	add	r2, sp, #228	; 0xe4
    7ab4:	9213      	str	r2, [sp, #76]	; 0x4c
    7ab6:	f7ff bbbd 	b.w	7234 <_svfprintf_r+0x304>
    7aba:	9811      	ldr	r0, [sp, #68]	; 0x44
    7abc:	aa39      	add	r2, sp, #228	; 0xe4
    7abe:	990c      	ldr	r1, [sp, #48]	; 0x30
    7ac0:	f002 fea2 	bl	a808 <__ssprint_r>
    7ac4:	2800      	cmp	r0, #0
    7ac6:	f47f ab1a 	bne.w	70fe <_svfprintf_r+0x1ce>
    7aca:	46d1      	mov	r9, sl
    7acc:	9d3b      	ldr	r5, [sp, #236]	; 0xec
    7ace:	e477      	b.n	73c0 <_svfprintf_r+0x490>
    7ad0:	9811      	ldr	r0, [sp, #68]	; 0x44
    7ad2:	aa39      	add	r2, sp, #228	; 0xe4
    7ad4:	990c      	ldr	r1, [sp, #48]	; 0x30
    7ad6:	f002 fe97 	bl	a808 <__ssprint_r>
    7ada:	2800      	cmp	r0, #0
    7adc:	f47f ab0f 	bne.w	70fe <_svfprintf_r+0x1ce>
    7ae0:	9d3b      	ldr	r5, [sp, #236]	; 0xec
    7ae2:	4656      	mov	r6, sl
    7ae4:	e427      	b.n	7336 <_svfprintf_r+0x406>
    7ae6:	9811      	ldr	r0, [sp, #68]	; 0x44
    7ae8:	aa39      	add	r2, sp, #228	; 0xe4
    7aea:	990c      	ldr	r1, [sp, #48]	; 0x30
    7aec:	f002 fe8c 	bl	a808 <__ssprint_r>
    7af0:	2800      	cmp	r0, #0
    7af2:	f47f ab04 	bne.w	70fe <_svfprintf_r+0x1ce>
    7af6:	9d3b      	ldr	r5, [sp, #236]	; 0xec
    7af8:	4656      	mov	r6, sl
    7afa:	e40c      	b.n	7316 <_svfprintf_r+0x3e6>
    7afc:	9e42      	ldr	r6, [sp, #264]	; 0x108
    7afe:	2e00      	cmp	r6, #0
    7b00:	f340 8224 	ble.w	7f4c <_svfprintf_r+0x101c>
    7b04:	9e0e      	ldr	r6, [sp, #56]	; 0x38
    7b06:	9c18      	ldr	r4, [sp, #96]	; 0x60
    7b08:	9813      	ldr	r0, [sp, #76]	; 0x4c
    7b0a:	42a6      	cmp	r6, r4
    7b0c:	bfa8      	it	ge
    7b0e:	4626      	movge	r6, r4
    7b10:	990e      	ldr	r1, [sp, #56]	; 0x38
    7b12:	2e00      	cmp	r6, #0
    7b14:	eb00 0b01 	add.w	fp, r0, r1
    7b18:	dd0e      	ble.n	7b38 <_svfprintf_r+0xc08>
    7b1a:	9c3a      	ldr	r4, [sp, #232]	; 0xe8
    7b1c:	19ad      	adds	r5, r5, r6
    7b1e:	f8c9 0000 	str.w	r0, [r9]
    7b22:	3401      	adds	r4, #1
    7b24:	f8c9 6004 	str.w	r6, [r9, #4]
    7b28:	2c07      	cmp	r4, #7
    7b2a:	953b      	str	r5, [sp, #236]	; 0xec
    7b2c:	943a      	str	r4, [sp, #232]	; 0xe8
    7b2e:	bfd8      	it	le
    7b30:	f109 0908 	addle.w	r9, r9, #8
    7b34:	f300 8425 	bgt.w	8382 <_svfprintf_r+0x1452>
    7b38:	9a18      	ldr	r2, [sp, #96]	; 0x60
    7b3a:	ea26 76e6 	bic.w	r6, r6, r6, asr #31
    7b3e:	1b96      	subs	r6, r2, r6
    7b40:	2e00      	cmp	r6, #0
    7b42:	f340 8402 	ble.w	834a <_svfprintf_r+0x141a>
    7b46:	2e10      	cmp	r6, #16
    7b48:	f340 84f6 	ble.w	8538 <_svfprintf_r+0x1608>
    7b4c:	9c3a      	ldr	r4, [sp, #232]	; 0xe8
    7b4e:	4629      	mov	r1, r5
    7b50:	f8df 829c 	ldr.w	r8, [pc, #668]	; 7df0 <_svfprintf_r+0xec0>
    7b54:	2710      	movs	r7, #16
    7b56:	4622      	mov	r2, r4
    7b58:	9d0c      	ldr	r5, [sp, #48]	; 0x30
    7b5a:	4644      	mov	r4, r8
    7b5c:	f8dd 8044 	ldr.w	r8, [sp, #68]	; 0x44
    7b60:	e003      	b.n	7b6a <_svfprintf_r+0xc3a>
    7b62:	3e10      	subs	r6, #16
    7b64:	2e10      	cmp	r6, #16
    7b66:	f340 8171 	ble.w	7e4c <_svfprintf_r+0xf1c>
    7b6a:	3201      	adds	r2, #1
    7b6c:	3110      	adds	r1, #16
    7b6e:	2a07      	cmp	r2, #7
    7b70:	f8c9 4000 	str.w	r4, [r9]
    7b74:	f8c9 7004 	str.w	r7, [r9, #4]
    7b78:	f109 0908 	add.w	r9, r9, #8
    7b7c:	923a      	str	r2, [sp, #232]	; 0xe8
    7b7e:	f109 0308 	add.w	r3, r9, #8
    7b82:	913b      	str	r1, [sp, #236]	; 0xec
    7b84:	dded      	ble.n	7b62 <_svfprintf_r+0xc32>
    7b86:	4640      	mov	r0, r8
    7b88:	4629      	mov	r1, r5
    7b8a:	aa39      	add	r2, sp, #228	; 0xe4
    7b8c:	46d1      	mov	r9, sl
    7b8e:	f002 fe3b 	bl	a808 <__ssprint_r>
    7b92:	f10a 0308 	add.w	r3, sl, #8
    7b96:	2800      	cmp	r0, #0
    7b98:	f47f aab1 	bne.w	70fe <_svfprintf_r+0x1ce>
    7b9c:	993b      	ldr	r1, [sp, #236]	; 0xec
    7b9e:	9a3a      	ldr	r2, [sp, #232]	; 0xe8
    7ba0:	e7df      	b.n	7b62 <_svfprintf_r+0xc32>
    7ba2:	9310      	str	r3, [sp, #64]	; 0x40
    7ba4:	ab39      	add	r3, sp, #228	; 0xe4
    7ba6:	9313      	str	r3, [sp, #76]	; 0x4c
    7ba8:	f7ff bb44 	b.w	7234 <_svfprintf_r+0x304>
    7bac:	f10d 0bbc 	add.w	fp, sp, #188	; 0xbc
    7bb0:	9917      	ldr	r1, [sp, #92]	; 0x5c
    7bb2:	f10b 0027 	add.w	r0, fp, #39	; 0x27
    7bb6:	f004 020f 	and.w	r2, r4, #15
    7bba:	0923      	lsrs	r3, r4, #4
    7bbc:	ea43 7305 	orr.w	r3, r3, r5, lsl #28
    7bc0:	ea4f 1c15 	mov.w	ip, r5, lsr #4
    7bc4:	5c8a      	ldrb	r2, [r1, r2]
    7bc6:	461c      	mov	r4, r3
    7bc8:	4603      	mov	r3, r0
    7bca:	4665      	mov	r5, ip
    7bcc:	3801      	subs	r0, #1
    7bce:	701a      	strb	r2, [r3, #0]
    7bd0:	ea54 0205 	orrs.w	r2, r4, r5
    7bd4:	d1ef      	bne.n	7bb6 <_svfprintf_r+0xc86>
    7bd6:	f10b 0b28 	add.w	fp, fp, #40	; 0x28
    7bda:	9313      	str	r3, [sp, #76]	; 0x4c
    7bdc:	ebc3 030b 	rsb	r3, r3, fp
    7be0:	9310      	str	r3, [sp, #64]	; 0x40
    7be2:	f7ff bb27 	b.w	7234 <_svfprintf_r+0x304>
    7be6:	2c0a      	cmp	r4, #10
    7be8:	f175 0100 	sbcs.w	r1, r5, #0
    7bec:	d27f      	bcs.n	7cee <_svfprintf_r+0xdbe>
    7bee:	3430      	adds	r4, #48	; 0x30
    7bf0:	2201      	movs	r2, #1
    7bf2:	f10d 03e3 	add.w	r3, sp, #227	; 0xe3
    7bf6:	9210      	str	r2, [sp, #64]	; 0x40
    7bf8:	f88d 40e3 	strb.w	r4, [sp, #227]	; 0xe3
    7bfc:	9313      	str	r3, [sp, #76]	; 0x4c
    7bfe:	f7ff bb19 	b.w	7234 <_svfprintf_r+0x304>
    7c02:	990e      	ldr	r1, [sp, #56]	; 0x38
    7c04:	1e4f      	subs	r7, r1, #1
    7c06:	2f00      	cmp	r7, #0
    7c08:	bfdc      	itt	le
    7c0a:	f106 0908 	addle.w	r9, r6, #8
    7c0e:	46b3      	movle	fp, r6
    7c10:	f77f ae11 	ble.w	7836 <_svfprintf_r+0x906>
    7c14:	2f10      	cmp	r7, #16
    7c16:	bfd8      	it	le
    7c18:	f8df 81d4 	ldrle.w	r8, [pc, #468]	; 7df0 <_svfprintf_r+0xec0>
    7c1c:	dd2c      	ble.n	7c78 <_svfprintf_r+0xd48>
    7c1e:	f8df 81d0 	ldr.w	r8, [pc, #464]	; 7df0 <_svfprintf_r+0xec0>
    7c22:	4623      	mov	r3, r4
    7c24:	462a      	mov	r2, r5
    7c26:	f04f 0910 	mov.w	r9, #16
    7c2a:	4644      	mov	r4, r8
    7c2c:	9d0c      	ldr	r5, [sp, #48]	; 0x30
    7c2e:	f8dd 8044 	ldr.w	r8, [sp, #68]	; 0x44
    7c32:	e002      	b.n	7c3a <_svfprintf_r+0xd0a>
    7c34:	3f10      	subs	r7, #16
    7c36:	2f10      	cmp	r7, #16
    7c38:	dd1b      	ble.n	7c72 <_svfprintf_r+0xd42>
    7c3a:	3301      	adds	r3, #1
    7c3c:	6034      	str	r4, [r6, #0]
    7c3e:	f8c6 9004 	str.w	r9, [r6, #4]
    7c42:	3210      	adds	r2, #16
    7c44:	3608      	adds	r6, #8
    7c46:	2b07      	cmp	r3, #7
    7c48:	933a      	str	r3, [sp, #232]	; 0xe8
    7c4a:	f106 0b08 	add.w	fp, r6, #8
    7c4e:	923b      	str	r2, [sp, #236]	; 0xec
    7c50:	ddf0      	ble.n	7c34 <_svfprintf_r+0xd04>
    7c52:	4640      	mov	r0, r8
    7c54:	4629      	mov	r1, r5
    7c56:	aa39      	add	r2, sp, #228	; 0xe4
    7c58:	f10a 0b08 	add.w	fp, sl, #8
    7c5c:	f002 fdd4 	bl	a808 <__ssprint_r>
    7c60:	4656      	mov	r6, sl
    7c62:	2800      	cmp	r0, #0
    7c64:	f47f aa4b 	bne.w	70fe <_svfprintf_r+0x1ce>
    7c68:	3f10      	subs	r7, #16
    7c6a:	9a3b      	ldr	r2, [sp, #236]	; 0xec
    7c6c:	2f10      	cmp	r7, #16
    7c6e:	9b3a      	ldr	r3, [sp, #232]	; 0xe8
    7c70:	dce3      	bgt.n	7c3a <_svfprintf_r+0xd0a>
    7c72:	46a0      	mov	r8, r4
    7c74:	4615      	mov	r5, r2
    7c76:	461c      	mov	r4, r3
    7c78:	3401      	adds	r4, #1
    7c7a:	f8c6 8000 	str.w	r8, [r6]
    7c7e:	2c07      	cmp	r4, #7
    7c80:	6077      	str	r7, [r6, #4]
    7c82:	443d      	add	r5, r7
    7c84:	943a      	str	r4, [sp, #232]	; 0xe8
    7c86:	953b      	str	r5, [sp, #236]	; 0xec
    7c88:	f77f add3 	ble.w	7832 <_svfprintf_r+0x902>
    7c8c:	e6f8      	b.n	7a80 <_svfprintf_r+0xb50>
    7c8e:	2302      	movs	r3, #2
    7c90:	e463      	b.n	755a <_svfprintf_r+0x62a>
    7c92:	46a0      	mov	r8, r4
    7c94:	4614      	mov	r4, r2
    7c96:	3401      	adds	r4, #1
    7c98:	f8c3 8000 	str.w	r8, [r3]
    7c9c:	2c07      	cmp	r4, #7
    7c9e:	605e      	str	r6, [r3, #4]
    7ca0:	4435      	add	r5, r6
    7ca2:	943a      	str	r4, [sp, #232]	; 0xe8
    7ca4:	953b      	str	r5, [sp, #236]	; 0xec
    7ca6:	f77f aba0 	ble.w	73ea <_svfprintf_r+0x4ba>
    7caa:	e5d1      	b.n	7850 <_svfprintf_r+0x920>
    7cac:	9b12      	ldr	r3, [sp, #72]	; 0x48
    7cae:	9c12      	ldr	r4, [sp, #72]	; 0x48
    7cb0:	681a      	ldr	r2, [r3, #0]
    7cb2:	2301      	movs	r3, #1
    7cb4:	e528      	b.n	7708 <_svfprintf_r+0x7d8>
    7cb6:	9811      	ldr	r0, [sp, #68]	; 0x44
    7cb8:	aa39      	add	r2, sp, #228	; 0xe4
    7cba:	990c      	ldr	r1, [sp, #48]	; 0x30
    7cbc:	f002 fda4 	bl	a808 <__ssprint_r>
    7cc0:	2800      	cmp	r0, #0
    7cc2:	f47f aa1c 	bne.w	70fe <_svfprintf_r+0x1ce>
    7cc6:	9d3b      	ldr	r5, [sp, #236]	; 0xec
    7cc8:	f10a 0608 	add.w	r6, sl, #8
    7ccc:	9c3a      	ldr	r4, [sp, #232]	; 0xe8
    7cce:	46d1      	mov	r9, sl
    7cd0:	e6b0      	b.n	7a34 <_svfprintf_r+0xb04>
    7cd2:	9811      	ldr	r0, [sp, #68]	; 0x44
    7cd4:	aa39      	add	r2, sp, #228	; 0xe4
    7cd6:	990c      	ldr	r1, [sp, #48]	; 0x30
    7cd8:	f002 fd96 	bl	a808 <__ssprint_r>
    7cdc:	2800      	cmp	r0, #0
    7cde:	f47f aa0e 	bne.w	70fe <_svfprintf_r+0x1ce>
    7ce2:	9d3b      	ldr	r5, [sp, #236]	; 0xec
    7ce4:	f10a 0b08 	add.w	fp, sl, #8
    7ce8:	9c3a      	ldr	r4, [sp, #232]	; 0xe8
    7cea:	4656      	mov	r6, sl
    7cec:	e6b2      	b.n	7a54 <_svfprintf_r+0xb24>
    7cee:	f10d 0bbc 	add.w	fp, sp, #188	; 0xbc
    7cf2:	46b1      	mov	r9, r6
    7cf4:	f10b 0827 	add.w	r8, fp, #39	; 0x27
    7cf8:	4620      	mov	r0, r4
    7cfa:	4629      	mov	r1, r5
    7cfc:	220a      	movs	r2, #10
    7cfe:	2300      	movs	r3, #0
    7d00:	f004 f888 	bl	be14 <__aeabi_uldivmod>
    7d04:	4646      	mov	r6, r8
    7d06:	4620      	mov	r0, r4
    7d08:	4629      	mov	r1, r5
    7d0a:	2300      	movs	r3, #0
    7d0c:	f108 38ff 	add.w	r8, r8, #4294967295
    7d10:	f102 0430 	add.w	r4, r2, #48	; 0x30
    7d14:	220a      	movs	r2, #10
    7d16:	7034      	strb	r4, [r6, #0]
    7d18:	f004 f87c 	bl	be14 <__aeabi_uldivmod>
    7d1c:	4604      	mov	r4, r0
    7d1e:	460d      	mov	r5, r1
    7d20:	ea54 0005 	orrs.w	r0, r4, r5
    7d24:	d1e8      	bne.n	7cf8 <_svfprintf_r+0xdc8>
    7d26:	9613      	str	r6, [sp, #76]	; 0x4c
    7d28:	f10b 0b28 	add.w	fp, fp, #40	; 0x28
    7d2c:	9913      	ldr	r1, [sp, #76]	; 0x4c
    7d2e:	464e      	mov	r6, r9
    7d30:	ebc1 010b 	rsb	r1, r1, fp
    7d34:	9110      	str	r1, [sp, #64]	; 0x40
    7d36:	f7ff ba7d 	b.w	7234 <_svfprintf_r+0x304>
    7d3a:	2a30      	cmp	r2, #48	; 0x30
    7d3c:	f000 8347 	beq.w	83ce <_svfprintf_r+0x149e>
    7d40:	9313      	str	r3, [sp, #76]	; 0x4c
    7d42:	f10b 0b28 	add.w	fp, fp, #40	; 0x28
    7d46:	9813      	ldr	r0, [sp, #76]	; 0x4c
    7d48:	ebc3 040b 	rsb	r4, r3, fp
    7d4c:	2330      	movs	r3, #48	; 0x30
    7d4e:	9410      	str	r4, [sp, #64]	; 0x40
    7d50:	7003      	strb	r3, [r0, #0]
    7d52:	f7ff ba6f 	b.w	7234 <_svfprintf_r+0x304>
    7d56:	4264      	negs	r4, r4
    7d58:	eb65 0545 	sbc.w	r5, r5, r5, lsl #1
    7d5c:	232d      	movs	r3, #45	; 0x2d
    7d5e:	ea54 0005 	orrs.w	r0, r4, r5
    7d62:	f88d 310f 	strb.w	r3, [sp, #271]	; 0x10f
    7d66:	bf0c      	ite	eq
    7d68:	2200      	moveq	r2, #0
    7d6a:	2201      	movne	r2, #1
    7d6c:	2301      	movs	r3, #1
    7d6e:	f7ff ba2b 	b.w	71c8 <_svfprintf_r+0x298>
    7d72:	981a      	ldr	r0, [sp, #104]	; 0x68
    7d74:	991b      	ldr	r1, [sp, #108]	; 0x6c
    7d76:	f002 fbfd 	bl	a574 <__fpclassifyd>
    7d7a:	2800      	cmp	r0, #0
    7d7c:	f040 8176 	bne.w	806c <_svfprintf_r+0x113c>
    7d80:	9015      	str	r0, [sp, #84]	; 0x54
    7d82:	f24d 1300 	movw	r3, #53504	; 0xd100
    7d86:	f24d 02fc 	movw	r2, #53500	; 0xd0fc
    7d8a:	9816      	ldr	r0, [sp, #88]	; 0x58
    7d8c:	f2c0 0200 	movt	r2, #0
    7d90:	f2c0 0300 	movt	r3, #0
    7d94:	2847      	cmp	r0, #71	; 0x47
    7d96:	bfd8      	it	le
    7d98:	4613      	movle	r3, r2
    7d9a:	9313      	str	r3, [sp, #76]	; 0x4c
    7d9c:	9b15      	ldr	r3, [sp, #84]	; 0x54
    7d9e:	2403      	movs	r4, #3
    7da0:	9908      	ldr	r1, [sp, #32]
    7da2:	940a      	str	r4, [sp, #40]	; 0x28
    7da4:	f021 0180 	bic.w	r1, r1, #128	; 0x80
    7da8:	f89d 210f 	ldrb.w	r2, [sp, #271]	; 0x10f
    7dac:	9108      	str	r1, [sp, #32]
    7dae:	9410      	str	r4, [sp, #64]	; 0x40
    7db0:	9318      	str	r3, [sp, #96]	; 0x60
    7db2:	f7ff ba49 	b.w	7248 <_svfprintf_r+0x318>
    7db6:	7813      	ldrb	r3, [r2, #0]
    7db8:	f7ff b927 	b.w	700a <_svfprintf_r+0xda>
    7dbc:	9912      	ldr	r1, [sp, #72]	; 0x48
    7dbe:	1dcb      	adds	r3, r1, #7
    7dc0:	f023 0307 	bic.w	r3, r3, #7
    7dc4:	f103 0208 	add.w	r2, r3, #8
    7dc8:	9212      	str	r2, [sp, #72]	; 0x48
    7dca:	681c      	ldr	r4, [r3, #0]
    7dcc:	941a      	str	r4, [sp, #104]	; 0x68
    7dce:	685b      	ldr	r3, [r3, #4]
    7dd0:	931b      	str	r3, [sp, #108]	; 0x6c
    7dd2:	f7ff bb77 	b.w	74c4 <_svfprintf_r+0x594>
    7dd6:	9b08      	ldr	r3, [sp, #32]
    7dd8:	f013 0f40 	tst.w	r3, #64	; 0x40
    7ddc:	f000 8127 	beq.w	802e <_svfprintf_r+0x10fe>
    7de0:	9812      	ldr	r0, [sp, #72]	; 0x48
    7de2:	2500      	movs	r5, #0
    7de4:	8804      	ldrh	r4, [r0, #0]
    7de6:	3004      	adds	r0, #4
    7de8:	9012      	str	r0, [sp, #72]	; 0x48
    7dea:	f7ff bbde 	b.w	75aa <_svfprintf_r+0x67a>
    7dee:	bf00      	nop
    7df0:	0000d0e4 	.word	0x0000d0e4
    7df4:	9b08      	ldr	r3, [sp, #32]
    7df6:	f013 0f40 	tst.w	r3, #64	; 0x40
    7dfa:	f000 8111 	beq.w	8020 <_svfprintf_r+0x10f0>
    7dfe:	9812      	ldr	r0, [sp, #72]	; 0x48
    7e00:	f9b0 4000 	ldrsh.w	r4, [r0]
    7e04:	3004      	adds	r0, #4
    7e06:	9012      	str	r0, [sp, #72]	; 0x48
    7e08:	17e5      	asrs	r5, r4, #31
    7e0a:	f7ff b9d1 	b.w	71b0 <_svfprintf_r+0x280>
    7e0e:	9908      	ldr	r1, [sp, #32]
    7e10:	f011 0f10 	tst.w	r1, #16
    7e14:	f000 8112 	beq.w	803c <_svfprintf_r+0x110c>
    7e18:	9a12      	ldr	r2, [sp, #72]	; 0x48
    7e1a:	9c0f      	ldr	r4, [sp, #60]	; 0x3c
    7e1c:	6813      	ldr	r3, [r2, #0]
    7e1e:	3204      	adds	r2, #4
    7e20:	9212      	str	r2, [sp, #72]	; 0x48
    7e22:	601c      	str	r4, [r3, #0]
    7e24:	f7ff b8ad 	b.w	6f82 <_svfprintf_r+0x52>
    7e28:	9808      	ldr	r0, [sp, #32]
    7e2a:	f010 0340 	ands.w	r3, r0, #64	; 0x40
    7e2e:	f000 820f 	beq.w	8250 <_svfprintf_r+0x1320>
    7e32:	9b12      	ldr	r3, [sp, #72]	; 0x48
    7e34:	2500      	movs	r5, #0
    7e36:	9c12      	ldr	r4, [sp, #72]	; 0x48
    7e38:	8819      	ldrh	r1, [r3, #0]
    7e3a:	3404      	adds	r4, #4
    7e3c:	4613      	mov	r3, r2
    7e3e:	9412      	str	r4, [sp, #72]	; 0x48
    7e40:	1e0a      	subs	r2, r1, #0
    7e42:	460c      	mov	r4, r1
    7e44:	bf18      	it	ne
    7e46:	2201      	movne	r2, #1
    7e48:	f7ff bb87 	b.w	755a <_svfprintf_r+0x62a>
    7e4c:	46a0      	mov	r8, r4
    7e4e:	460d      	mov	r5, r1
    7e50:	4614      	mov	r4, r2
    7e52:	3401      	adds	r4, #1
    7e54:	f8c9 8000 	str.w	r8, [r9]
    7e58:	2c07      	cmp	r4, #7
    7e5a:	f8c9 6004 	str.w	r6, [r9, #4]
    7e5e:	4435      	add	r5, r6
    7e60:	943a      	str	r4, [sp, #232]	; 0xe8
    7e62:	953b      	str	r5, [sp, #236]	; 0xec
    7e64:	f300 82bb 	bgt.w	83de <_svfprintf_r+0x14ae>
    7e68:	9a42      	ldr	r2, [sp, #264]	; 0x108
    7e6a:	9c0e      	ldr	r4, [sp, #56]	; 0x38
    7e6c:	42a2      	cmp	r2, r4
    7e6e:	db4a      	blt.n	7f06 <_svfprintf_r+0xfd6>
    7e70:	9808      	ldr	r0, [sp, #32]
    7e72:	f010 0f01 	tst.w	r0, #1
    7e76:	d146      	bne.n	7f06 <_svfprintf_r+0xfd6>
    7e78:	9c13      	ldr	r4, [sp, #76]	; 0x4c
    7e7a:	9818      	ldr	r0, [sp, #96]	; 0x60
    7e7c:	1821      	adds	r1, r4, r0
    7e7e:	9c0e      	ldr	r4, [sp, #56]	; 0x38
    7e80:	ebc1 070b 	rsb	r7, r1, fp
    7e84:	1aa2      	subs	r2, r4, r2
    7e86:	42ba      	cmp	r2, r7
    7e88:	bfb8      	it	lt
    7e8a:	4617      	movlt	r7, r2
    7e8c:	2f00      	cmp	r7, #0
    7e8e:	dd0a      	ble.n	7ea6 <_svfprintf_r+0xf76>
    7e90:	9c3a      	ldr	r4, [sp, #232]	; 0xe8
    7e92:	19ed      	adds	r5, r5, r7
    7e94:	6019      	str	r1, [r3, #0]
    7e96:	3401      	adds	r4, #1
    7e98:	605f      	str	r7, [r3, #4]
    7e9a:	2c07      	cmp	r4, #7
    7e9c:	953b      	str	r5, [sp, #236]	; 0xec
    7e9e:	943a      	str	r4, [sp, #232]	; 0xe8
    7ea0:	f300 8287 	bgt.w	83b2 <_svfprintf_r+0x1482>
    7ea4:	3308      	adds	r3, #8
    7ea6:	ea27 76e7 	bic.w	r6, r7, r7, asr #31
    7eaa:	1b96      	subs	r6, r2, r6
    7eac:	2e00      	cmp	r6, #0
    7eae:	dd38      	ble.n	7f22 <_svfprintf_r+0xff2>
    7eb0:	2e10      	cmp	r6, #16
    7eb2:	f340 831c 	ble.w	84ee <_svfprintf_r+0x15be>
    7eb6:	9c3a      	ldr	r4, [sp, #232]	; 0xe8
    7eb8:	2710      	movs	r7, #16
    7eba:	f8df 86c8 	ldr.w	r8, [pc, #1736]	; 8584 <_svfprintf_r+0x1654>
    7ebe:	4622      	mov	r2, r4
    7ec0:	f8dd b030 	ldr.w	fp, [sp, #48]	; 0x30
    7ec4:	4644      	mov	r4, r8
    7ec6:	f8dd 8044 	ldr.w	r8, [sp, #68]	; 0x44
    7eca:	e003      	b.n	7ed4 <_svfprintf_r+0xfa4>
    7ecc:	3e10      	subs	r6, #16
    7ece:	2e10      	cmp	r6, #16
    7ed0:	f77f aedf 	ble.w	7c92 <_svfprintf_r+0xd62>
    7ed4:	3201      	adds	r2, #1
    7ed6:	601c      	str	r4, [r3, #0]
    7ed8:	605f      	str	r7, [r3, #4]
    7eda:	3510      	adds	r5, #16
    7edc:	3308      	adds	r3, #8
    7ede:	2a07      	cmp	r2, #7
    7ee0:	923a      	str	r2, [sp, #232]	; 0xe8
    7ee2:	f103 0908 	add.w	r9, r3, #8
    7ee6:	953b      	str	r5, [sp, #236]	; 0xec
    7ee8:	ddf0      	ble.n	7ecc <_svfprintf_r+0xf9c>
    7eea:	4640      	mov	r0, r8
    7eec:	4659      	mov	r1, fp
    7eee:	aa39      	add	r2, sp, #228	; 0xe4
    7ef0:	f10a 0908 	add.w	r9, sl, #8
    7ef4:	f002 fc88 	bl	a808 <__ssprint_r>
    7ef8:	4653      	mov	r3, sl
    7efa:	2800      	cmp	r0, #0
    7efc:	f47f a8ff 	bne.w	70fe <_svfprintf_r+0x1ce>
    7f00:	9d3b      	ldr	r5, [sp, #236]	; 0xec
    7f02:	9a3a      	ldr	r2, [sp, #232]	; 0xe8
    7f04:	e7e2      	b.n	7ecc <_svfprintf_r+0xf9c>
    7f06:	9c3a      	ldr	r4, [sp, #232]	; 0xe8
    7f08:	991c      	ldr	r1, [sp, #112]	; 0x70
    7f0a:	3401      	adds	r4, #1
    7f0c:	9819      	ldr	r0, [sp, #100]	; 0x64
    7f0e:	2c07      	cmp	r4, #7
    7f10:	440d      	add	r5, r1
    7f12:	6059      	str	r1, [r3, #4]
    7f14:	6018      	str	r0, [r3, #0]
    7f16:	953b      	str	r5, [sp, #236]	; 0xec
    7f18:	943a      	str	r4, [sp, #232]	; 0xe8
    7f1a:	f300 823e 	bgt.w	839a <_svfprintf_r+0x146a>
    7f1e:	3308      	adds	r3, #8
    7f20:	e7aa      	b.n	7e78 <_svfprintf_r+0xf48>
    7f22:	4699      	mov	r9, r3
    7f24:	f7ff ba61 	b.w	73ea <_svfprintf_r+0x4ba>
    7f28:	f106 0908 	add.w	r9, r6, #8
    7f2c:	9c3a      	ldr	r4, [sp, #232]	; 0xe8
    7f2e:	f8df 8654 	ldr.w	r8, [pc, #1620]	; 8584 <_svfprintf_r+0x1654>
    7f32:	f7ff ba3b 	b.w	73ac <_svfprintf_r+0x47c>
    7f36:	9811      	ldr	r0, [sp, #68]	; 0x44
    7f38:	aa39      	add	r2, sp, #228	; 0xe4
    7f3a:	990c      	ldr	r1, [sp, #48]	; 0x30
    7f3c:	f002 fc64 	bl	a808 <__ssprint_r>
    7f40:	2800      	cmp	r0, #0
    7f42:	f47f a8dc 	bne.w	70fe <_svfprintf_r+0x1ce>
    7f46:	9d3b      	ldr	r5, [sp, #236]	; 0xec
    7f48:	46d1      	mov	r9, sl
    7f4a:	e4ad      	b.n	78a8 <_svfprintf_r+0x978>
    7f4c:	9c3a      	ldr	r4, [sp, #232]	; 0xe8
    7f4e:	f24d 1334 	movw	r3, #53556	; 0xd134
    7f52:	f2c0 0300 	movt	r3, #0
    7f56:	f8c9 3000 	str.w	r3, [r9]
    7f5a:	3401      	adds	r4, #1
    7f5c:	2301      	movs	r3, #1
    7f5e:	2c07      	cmp	r4, #7
    7f60:	f8c9 3004 	str.w	r3, [r9, #4]
    7f64:	441d      	add	r5, r3
    7f66:	943a      	str	r4, [sp, #232]	; 0xe8
    7f68:	953b      	str	r5, [sp, #236]	; 0xec
    7f6a:	bfd8      	it	le
    7f6c:	f109 0908 	addle.w	r9, r9, #8
    7f70:	f300 819f 	bgt.w	82b2 <_svfprintf_r+0x1382>
    7f74:	b936      	cbnz	r6, 7f84 <_svfprintf_r+0x1054>
    7f76:	9b0e      	ldr	r3, [sp, #56]	; 0x38
    7f78:	b923      	cbnz	r3, 7f84 <_svfprintf_r+0x1054>
    7f7a:	9c08      	ldr	r4, [sp, #32]
    7f7c:	f014 0f01 	tst.w	r4, #1
    7f80:	f43f aa33 	beq.w	73ea <_svfprintf_r+0x4ba>
    7f84:	9c3a      	ldr	r4, [sp, #232]	; 0xe8
    7f86:	981c      	ldr	r0, [sp, #112]	; 0x70
    7f88:	3401      	adds	r4, #1
    7f8a:	9919      	ldr	r1, [sp, #100]	; 0x64
    7f8c:	2c07      	cmp	r4, #7
    7f8e:	4405      	add	r5, r0
    7f90:	f8c9 0004 	str.w	r0, [r9, #4]
    7f94:	f8c9 1000 	str.w	r1, [r9]
    7f98:	bfd8      	it	le
    7f9a:	f109 0908 	addle.w	r9, r9, #8
    7f9e:	953b      	str	r5, [sp, #236]	; 0xec
    7fa0:	943a      	str	r4, [sp, #232]	; 0xe8
    7fa2:	f300 81be 	bgt.w	8322 <_svfprintf_r+0x13f2>
    7fa6:	4276      	negs	r6, r6
    7fa8:	2e00      	cmp	r6, #0
    7faa:	f340 81ab 	ble.w	8304 <_svfprintf_r+0x13d4>
    7fae:	2e10      	cmp	r6, #16
    7fb0:	bfd8      	it	le
    7fb2:	f8df 85d0 	ldrle.w	r8, [pc, #1488]	; 8584 <_svfprintf_r+0x1654>
    7fb6:	f340 818d 	ble.w	82d4 <_svfprintf_r+0x13a4>
    7fba:	f8df 85c8 	ldr.w	r8, [pc, #1480]	; 8584 <_svfprintf_r+0x1654>
    7fbe:	4623      	mov	r3, r4
    7fc0:	2710      	movs	r7, #16
    7fc2:	f8dd b030 	ldr.w	fp, [sp, #48]	; 0x30
    7fc6:	4644      	mov	r4, r8
    7fc8:	f8dd 8044 	ldr.w	r8, [sp, #68]	; 0x44
    7fcc:	e003      	b.n	7fd6 <_svfprintf_r+0x10a6>
    7fce:	3e10      	subs	r6, #16
    7fd0:	2e10      	cmp	r6, #16
    7fd2:	f340 817d 	ble.w	82d0 <_svfprintf_r+0x13a0>
    7fd6:	3301      	adds	r3, #1
    7fd8:	3510      	adds	r5, #16
    7fda:	2b07      	cmp	r3, #7
    7fdc:	f8c9 4000 	str.w	r4, [r9]
    7fe0:	f8c9 7004 	str.w	r7, [r9, #4]
    7fe4:	f109 0908 	add.w	r9, r9, #8
    7fe8:	933a      	str	r3, [sp, #232]	; 0xe8
    7fea:	953b      	str	r5, [sp, #236]	; 0xec
    7fec:	ddef      	ble.n	7fce <_svfprintf_r+0x109e>
    7fee:	4640      	mov	r0, r8
    7ff0:	4659      	mov	r1, fp
    7ff2:	aa39      	add	r2, sp, #228	; 0xe4
    7ff4:	46d1      	mov	r9, sl
    7ff6:	f002 fc07 	bl	a808 <__ssprint_r>
    7ffa:	2800      	cmp	r0, #0
    7ffc:	f47f a87f 	bne.w	70fe <_svfprintf_r+0x1ce>
    8000:	9d3b      	ldr	r5, [sp, #236]	; 0xec
    8002:	9b3a      	ldr	r3, [sp, #232]	; 0xe8
    8004:	e7e3      	b.n	7fce <_svfprintf_r+0x109e>
    8006:	9b10      	ldr	r3, [sp, #64]	; 0x40
    8008:	2200      	movs	r2, #0
    800a:	9412      	str	r4, [sp, #72]	; 0x48
    800c:	2400      	movs	r4, #0
    800e:	9215      	str	r2, [sp, #84]	; 0x54
    8010:	ea23 73e3 	bic.w	r3, r3, r3, asr #31
    8014:	f89d 210f 	ldrb.w	r2, [sp, #271]	; 0x10f
    8018:	930a      	str	r3, [sp, #40]	; 0x28
    801a:	9418      	str	r4, [sp, #96]	; 0x60
    801c:	f7ff b914 	b.w	7248 <_svfprintf_r+0x318>
    8020:	9912      	ldr	r1, [sp, #72]	; 0x48
    8022:	680c      	ldr	r4, [r1, #0]
    8024:	3104      	adds	r1, #4
    8026:	9112      	str	r1, [sp, #72]	; 0x48
    8028:	17e5      	asrs	r5, r4, #31
    802a:	f7ff b8c1 	b.w	71b0 <_svfprintf_r+0x280>
    802e:	9912      	ldr	r1, [sp, #72]	; 0x48
    8030:	2500      	movs	r5, #0
    8032:	680c      	ldr	r4, [r1, #0]
    8034:	3104      	adds	r1, #4
    8036:	9112      	str	r1, [sp, #72]	; 0x48
    8038:	f7ff bab7 	b.w	75aa <_svfprintf_r+0x67a>
    803c:	9808      	ldr	r0, [sp, #32]
    803e:	f010 0f40 	tst.w	r0, #64	; 0x40
    8042:	f000 811f 	beq.w	8284 <_svfprintf_r+0x1354>
    8046:	9912      	ldr	r1, [sp, #72]	; 0x48
    8048:	9a0f      	ldr	r2, [sp, #60]	; 0x3c
    804a:	680b      	ldr	r3, [r1, #0]
    804c:	3104      	adds	r1, #4
    804e:	9112      	str	r1, [sp, #72]	; 0x48
    8050:	801a      	strh	r2, [r3, #0]
    8052:	f7fe bf96 	b.w	6f82 <_svfprintf_r+0x52>
    8056:	9811      	ldr	r0, [sp, #68]	; 0x44
    8058:	aa39      	add	r2, sp, #228	; 0xe4
    805a:	990c      	ldr	r1, [sp, #48]	; 0x30
    805c:	f002 fbd4 	bl	a808 <__ssprint_r>
    8060:	2800      	cmp	r0, #0
    8062:	f47f a84c 	bne.w	70fe <_svfprintf_r+0x1ce>
    8066:	9d3b      	ldr	r5, [sp, #236]	; 0xec
    8068:	4653      	mov	r3, sl
    806a:	e437      	b.n	78dc <_svfprintf_r+0x9ac>
    806c:	f1b7 3fff 	cmp.w	r7, #4294967295
    8070:	f000 8164 	beq.w	833c <_svfprintf_r+0x140c>
    8074:	9c16      	ldr	r4, [sp, #88]	; 0x58
    8076:	f1a4 0e67 	sub.w	lr, r4, #103	; 0x67
    807a:	f1de 0300 	rsbs	r3, lr, #0
    807e:	eb43 030e 	adc.w	r3, r3, lr
    8082:	2c47      	cmp	r4, #71	; 0x47
    8084:	bf08      	it	eq
    8086:	f043 0301 	orreq.w	r3, r3, #1
    808a:	b113      	cbz	r3, 8092 <_svfprintf_r+0x1162>
    808c:	2f00      	cmp	r7, #0
    808e:	bf08      	it	eq
    8090:	2701      	moveq	r7, #1
    8092:	9b1b      	ldr	r3, [sp, #108]	; 0x6c
    8094:	9916      	ldr	r1, [sp, #88]	; 0x58
    8096:	2b00      	cmp	r3, #0
    8098:	9808      	ldr	r0, [sp, #32]
    809a:	f1a1 0466 	sub.w	r4, r1, #102	; 0x66
    809e:	bfb9      	ittee	lt
    80a0:	f103 4900 	addlt.w	r9, r3, #2147483648	; 0x80000000
    80a4:	f04f 0b2d 	movlt.w	fp, #45	; 0x2d
    80a8:	f8dd 906c 	ldrge.w	r9, [sp, #108]	; 0x6c
    80ac:	f04f 0b00 	movge.w	fp, #0
    80b0:	f1d4 0c00 	rsbs	ip, r4, #0
    80b4:	eb4c 0c04 	adc.w	ip, ip, r4
    80b8:	f440 7080 	orr.w	r0, r0, #256	; 0x100
    80bc:	2946      	cmp	r1, #70	; 0x46
    80be:	bf08      	it	eq
    80c0:	f04c 0c01 	orreq.w	ip, ip, #1
    80c4:	9008      	str	r0, [sp, #32]
    80c6:	f1bc 0f00 	cmp.w	ip, #0
    80ca:	f040 81b7 	bne.w	843c <_svfprintf_r+0x150c>
    80ce:	f1a1 0065 	sub.w	r0, r1, #101	; 0x65
    80d2:	4243      	negs	r3, r0
    80d4:	eb43 0300 	adc.w	r3, r3, r0
    80d8:	2945      	cmp	r1, #69	; 0x45
    80da:	bf08      	it	eq
    80dc:	f043 0301 	orreq.w	r3, r3, #1
    80e0:	2b00      	cmp	r3, #0
    80e2:	f000 81ef 	beq.w	84c4 <_svfprintf_r+0x1594>
    80e6:	f107 0801 	add.w	r8, r7, #1
    80ea:	2302      	movs	r3, #2
    80ec:	9a1a      	ldr	r2, [sp, #104]	; 0x68
    80ee:	a942      	add	r1, sp, #264	; 0x108
    80f0:	f8cd 902c 	str.w	r9, [sp, #44]	; 0x2c
    80f4:	9300      	str	r3, [sp, #0]
    80f6:	920a      	str	r2, [sp, #40]	; 0x28
    80f8:	e9dd 230a 	ldrd	r2, r3, [sp, #40]	; 0x28
    80fc:	9811      	ldr	r0, [sp, #68]	; 0x44
    80fe:	9102      	str	r1, [sp, #8]
    8100:	a941      	add	r1, sp, #260	; 0x104
    8102:	f8cd c018 	str.w	ip, [sp, #24]
    8106:	9103      	str	r1, [sp, #12]
    8108:	a940      	add	r1, sp, #256	; 0x100
    810a:	f8cd 8004 	str.w	r8, [sp, #4]
    810e:	9104      	str	r1, [sp, #16]
    8110:	f000 fad0 	bl	86b4 <_dtoa_r>
    8114:	f8dd c018 	ldr.w	ip, [sp, #24]
    8118:	9013      	str	r0, [sp, #76]	; 0x4c
    811a:	9816      	ldr	r0, [sp, #88]	; 0x58
    811c:	f1b0 0367 	subs.w	r3, r0, #103	; 0x67
    8120:	bf18      	it	ne
    8122:	2301      	movne	r3, #1
    8124:	2847      	cmp	r0, #71	; 0x47
    8126:	bf0c      	ite	eq
    8128:	2300      	moveq	r3, #0
    812a:	f003 0301 	andne.w	r3, r3, #1
    812e:	b92b      	cbnz	r3, 813c <_svfprintf_r+0x120c>
    8130:	9908      	ldr	r1, [sp, #32]
    8132:	f011 0f01 	tst.w	r1, #1
    8136:	bf08      	it	eq
    8138:	9b40      	ldreq	r3, [sp, #256]	; 0x100
    813a:	d016      	beq.n	816a <_svfprintf_r+0x123a>
    813c:	9a13      	ldr	r2, [sp, #76]	; 0x4c
    813e:	eb02 0408 	add.w	r4, r2, r8
    8142:	f1bc 0f00 	cmp.w	ip, #0
    8146:	d005      	beq.n	8154 <_svfprintf_r+0x1224>
    8148:	7813      	ldrb	r3, [r2, #0]
    814a:	2b30      	cmp	r3, #48	; 0x30
    814c:	f000 81df 	beq.w	850e <_svfprintf_r+0x15de>
    8150:	9b42      	ldr	r3, [sp, #264]	; 0x108
    8152:	18e4      	adds	r4, r4, r3
    8154:	981a      	ldr	r0, [sp, #104]	; 0x68
    8156:	2200      	movs	r2, #0
    8158:	2300      	movs	r3, #0
    815a:	4649      	mov	r1, r9
    815c:	f7fe f9b8 	bl	64d0 <__aeabi_dcmpeq>
    8160:	2800      	cmp	r0, #0
    8162:	f000 8181 	beq.w	8468 <_svfprintf_r+0x1538>
    8166:	4623      	mov	r3, r4
    8168:	9440      	str	r4, [sp, #256]	; 0x100
    816a:	9c16      	ldr	r4, [sp, #88]	; 0x58
    816c:	9813      	ldr	r0, [sp, #76]	; 0x4c
    816e:	f1a4 0167 	sub.w	r1, r4, #103	; 0x67
    8172:	424a      	negs	r2, r1
    8174:	ebc0 0303 	rsb	r3, r0, r3
    8178:	eb42 0201 	adc.w	r2, r2, r1
    817c:	930e      	str	r3, [sp, #56]	; 0x38
    817e:	2c47      	cmp	r4, #71	; 0x47
    8180:	bf14      	ite	ne
    8182:	4613      	movne	r3, r2
    8184:	f042 0301 	orreq.w	r3, r2, #1
    8188:	2b00      	cmp	r3, #0
    818a:	f000 815a 	beq.w	8442 <_svfprintf_r+0x1512>
    818e:	9b42      	ldr	r3, [sp, #264]	; 0x108
    8190:	f113 0f03 	cmn.w	r3, #3
    8194:	9310      	str	r3, [sp, #64]	; 0x40
    8196:	db02      	blt.n	819e <_svfprintf_r+0x126e>
    8198:	429f      	cmp	r7, r3
    819a:	f280 8178 	bge.w	848e <_svfprintf_r+0x155e>
    819e:	9916      	ldr	r1, [sp, #88]	; 0x58
    81a0:	3902      	subs	r1, #2
    81a2:	9116      	str	r1, [sp, #88]	; 0x58
    81a4:	3b01      	subs	r3, #1
    81a6:	9c16      	ldr	r4, [sp, #88]	; 0x58
    81a8:	2b00      	cmp	r3, #0
    81aa:	9342      	str	r3, [sp, #264]	; 0x108
    81ac:	f88d 40f8 	strb.w	r4, [sp, #248]	; 0xf8
    81b0:	f2c0 81a4 	blt.w	84fc <_svfprintf_r+0x15cc>
    81b4:	222b      	movs	r2, #43	; 0x2b
    81b6:	f88d 20f9 	strb.w	r2, [sp, #249]	; 0xf9
    81ba:	2b09      	cmp	r3, #9
    81bc:	f340 8185 	ble.w	84ca <_svfprintf_r+0x159a>
    81c0:	f246 6467 	movw	r4, #26215	; 0x6667
    81c4:	f10d 00f6 	add.w	r0, sp, #246	; 0xf6
    81c8:	f2c6 6466 	movt	r4, #26214	; 0x6666
    81cc:	fb84 2103 	smull	r2, r1, r4, r3
    81d0:	17da      	asrs	r2, r3, #31
    81d2:	4605      	mov	r5, r0
    81d4:	ebc2 02a1 	rsb	r2, r2, r1, asr #2
    81d8:	eb02 0182 	add.w	r1, r2, r2, lsl #2
    81dc:	eba3 0141 	sub.w	r1, r3, r1, lsl #1
    81e0:	4613      	mov	r3, r2
    81e2:	3130      	adds	r1, #48	; 0x30
    81e4:	2a09      	cmp	r2, #9
    81e6:	f800 1901 	strb.w	r1, [r0], #-1
    81ea:	dcef      	bgt.n	81cc <_svfprintf_r+0x129c>
    81ec:	3330      	adds	r3, #48	; 0x30
    81ee:	1e6a      	subs	r2, r5, #1
    81f0:	f805 3c01 	strb.w	r3, [r5, #-1]
    81f4:	f10d 03f7 	add.w	r3, sp, #247	; 0xf7
    81f8:	429a      	cmp	r2, r3
    81fa:	bf28      	it	cs
    81fc:	f10d 01fa 	addcs.w	r1, sp, #250	; 0xfa
    8200:	d209      	bcs.n	8216 <_svfprintf_r+0x12e6>
    8202:	f10d 03fa 	add.w	r3, sp, #250	; 0xfa
    8206:	f812 1b01 	ldrb.w	r1, [r2], #1
    820a:	f803 1b01 	strb.w	r1, [r3], #1
    820e:	4619      	mov	r1, r3
    8210:	9c07      	ldr	r4, [sp, #28]
    8212:	4294      	cmp	r4, r2
    8214:	d8f7      	bhi.n	8206 <_svfprintf_r+0x12d6>
    8216:	ab3e      	add	r3, sp, #248	; 0xf8
    8218:	980e      	ldr	r0, [sp, #56]	; 0x38
    821a:	1acb      	subs	r3, r1, r3
    821c:	990e      	ldr	r1, [sp, #56]	; 0x38
    821e:	1818      	adds	r0, r3, r0
    8220:	931d      	str	r3, [sp, #116]	; 0x74
    8222:	2901      	cmp	r1, #1
    8224:	9010      	str	r0, [sp, #64]	; 0x40
    8226:	f340 817f 	ble.w	8528 <_svfprintf_r+0x15f8>
    822a:	9b10      	ldr	r3, [sp, #64]	; 0x40
    822c:	2400      	movs	r4, #0
    822e:	9418      	str	r4, [sp, #96]	; 0x60
    8230:	3301      	adds	r3, #1
    8232:	9310      	str	r3, [sp, #64]	; 0x40
    8234:	f1bb 0f00 	cmp.w	fp, #0
    8238:	f040 80f5 	bne.w	8426 <_svfprintf_r+0x14f6>
    823c:	9b10      	ldr	r3, [sp, #64]	; 0x40
    823e:	f89d 210f 	ldrb.w	r2, [sp, #271]	; 0x10f
    8242:	ea23 73e3 	bic.w	r3, r3, r3, asr #31
    8246:	f8cd b054 	str.w	fp, [sp, #84]	; 0x54
    824a:	930a      	str	r3, [sp, #40]	; 0x28
    824c:	f7fe bffc 	b.w	7248 <_svfprintf_r+0x318>
    8250:	9812      	ldr	r0, [sp, #72]	; 0x48
    8252:	2500      	movs	r5, #0
    8254:	6802      	ldr	r2, [r0, #0]
    8256:	3004      	adds	r0, #4
    8258:	9012      	str	r0, [sp, #72]	; 0x48
    825a:	4614      	mov	r4, r2
    825c:	3a00      	subs	r2, #0
    825e:	bf18      	it	ne
    8260:	2201      	movne	r2, #1
    8262:	f7ff b97a 	b.w	755a <_svfprintf_r+0x62a>
    8266:	2140      	movs	r1, #64	; 0x40
    8268:	9811      	ldr	r0, [sp, #68]	; 0x44
    826a:	f001 f9ed 	bl	9648 <_malloc_r>
    826e:	990c      	ldr	r1, [sp, #48]	; 0x30
    8270:	6008      	str	r0, [r1, #0]
    8272:	6108      	str	r0, [r1, #16]
    8274:	2800      	cmp	r0, #0
    8276:	f000 817a 	beq.w	856e <_svfprintf_r+0x163e>
    827a:	980c      	ldr	r0, [sp, #48]	; 0x30
    827c:	2340      	movs	r3, #64	; 0x40
    827e:	6143      	str	r3, [r0, #20]
    8280:	f7fe be6d 	b.w	6f5e <_svfprintf_r+0x2e>
    8284:	9c12      	ldr	r4, [sp, #72]	; 0x48
    8286:	980f      	ldr	r0, [sp, #60]	; 0x3c
    8288:	6823      	ldr	r3, [r4, #0]
    828a:	3404      	adds	r4, #4
    828c:	9412      	str	r4, [sp, #72]	; 0x48
    828e:	6018      	str	r0, [r3, #0]
    8290:	f7fe be77 	b.w	6f82 <_svfprintf_r+0x52>
    8294:	9811      	ldr	r0, [sp, #68]	; 0x44
    8296:	aa39      	add	r2, sp, #228	; 0xe4
    8298:	990c      	ldr	r1, [sp, #48]	; 0x30
    829a:	f002 fab5 	bl	a808 <__ssprint_r>
    829e:	2800      	cmp	r0, #0
    82a0:	f47e af2d 	bne.w	70fe <_svfprintf_r+0x1ce>
    82a4:	9d3b      	ldr	r5, [sp, #236]	; 0xec
    82a6:	f10d 0984 	add.w	r9, sp, #132	; 0x84
    82aa:	9c3a      	ldr	r4, [sp, #232]	; 0xe8
    82ac:	46d3      	mov	fp, sl
    82ae:	f7ff bac2 	b.w	7836 <_svfprintf_r+0x906>
    82b2:	9811      	ldr	r0, [sp, #68]	; 0x44
    82b4:	aa39      	add	r2, sp, #228	; 0xe4
    82b6:	990c      	ldr	r1, [sp, #48]	; 0x30
    82b8:	f002 faa6 	bl	a808 <__ssprint_r>
    82bc:	2800      	cmp	r0, #0
    82be:	f47e af1e 	bne.w	70fe <_svfprintf_r+0x1ce>
    82c2:	9e42      	ldr	r6, [sp, #264]	; 0x108
    82c4:	46d1      	mov	r9, sl
    82c6:	9d3b      	ldr	r5, [sp, #236]	; 0xec
    82c8:	2e00      	cmp	r6, #0
    82ca:	f47f ae5b 	bne.w	7f84 <_svfprintf_r+0x1054>
    82ce:	e652      	b.n	7f76 <_svfprintf_r+0x1046>
    82d0:	46a0      	mov	r8, r4
    82d2:	461c      	mov	r4, r3
    82d4:	3401      	adds	r4, #1
    82d6:	f8c9 8000 	str.w	r8, [r9]
    82da:	2c07      	cmp	r4, #7
    82dc:	f8c9 6004 	str.w	r6, [r9, #4]
    82e0:	4435      	add	r5, r6
    82e2:	943a      	str	r4, [sp, #232]	; 0xe8
    82e4:	953b      	str	r5, [sp, #236]	; 0xec
    82e6:	bfd8      	it	le
    82e8:	f109 0908 	addle.w	r9, r9, #8
    82ec:	dd0a      	ble.n	8304 <_svfprintf_r+0x13d4>
    82ee:	9811      	ldr	r0, [sp, #68]	; 0x44
    82f0:	aa39      	add	r2, sp, #228	; 0xe4
    82f2:	990c      	ldr	r1, [sp, #48]	; 0x30
    82f4:	f002 fa88 	bl	a808 <__ssprint_r>
    82f8:	2800      	cmp	r0, #0
    82fa:	f47e af00 	bne.w	70fe <_svfprintf_r+0x1ce>
    82fe:	9d3b      	ldr	r5, [sp, #236]	; 0xec
    8300:	46d1      	mov	r9, sl
    8302:	9c3a      	ldr	r4, [sp, #232]	; 0xe8
    8304:	3401      	adds	r4, #1
    8306:	9b0e      	ldr	r3, [sp, #56]	; 0x38
    8308:	9a13      	ldr	r2, [sp, #76]	; 0x4c
    830a:	2c07      	cmp	r4, #7
    830c:	441d      	add	r5, r3
    830e:	f8c9 3004 	str.w	r3, [r9, #4]
    8312:	f8c9 2000 	str.w	r2, [r9]
    8316:	943a      	str	r4, [sp, #232]	; 0xe8
    8318:	953b      	str	r5, [sp, #236]	; 0xec
    831a:	f77f a864 	ble.w	73e6 <_svfprintf_r+0x4b6>
    831e:	f7ff ba97 	b.w	7850 <_svfprintf_r+0x920>
    8322:	9811      	ldr	r0, [sp, #68]	; 0x44
    8324:	aa39      	add	r2, sp, #228	; 0xe4
    8326:	990c      	ldr	r1, [sp, #48]	; 0x30
    8328:	f002 fa6e 	bl	a808 <__ssprint_r>
    832c:	2800      	cmp	r0, #0
    832e:	f47e aee6 	bne.w	70fe <_svfprintf_r+0x1ce>
    8332:	9e42      	ldr	r6, [sp, #264]	; 0x108
    8334:	46d1      	mov	r9, sl
    8336:	9d3b      	ldr	r5, [sp, #236]	; 0xec
    8338:	9c3a      	ldr	r4, [sp, #232]	; 0xe8
    833a:	e634      	b.n	7fa6 <_svfprintf_r+0x1076>
    833c:	2706      	movs	r7, #6
    833e:	e6a8      	b.n	8092 <_svfprintf_r+0x1162>
    8340:	222d      	movs	r2, #45	; 0x2d
    8342:	f88d 210f 	strb.w	r2, [sp, #271]	; 0x10f
    8346:	f7ff b8cf 	b.w	74e8 <_svfprintf_r+0x5b8>
    834a:	464b      	mov	r3, r9
    834c:	e58c      	b.n	7e68 <_svfprintf_r+0xf38>
    834e:	9813      	ldr	r0, [sp, #76]	; 0x4c
    8350:	2100      	movs	r1, #0
    8352:	9115      	str	r1, [sp, #84]	; 0x54
    8354:	f7fe fd7e 	bl	6e54 <strlen>
    8358:	9b15      	ldr	r3, [sp, #84]	; 0x54
    835a:	9412      	str	r4, [sp, #72]	; 0x48
    835c:	9318      	str	r3, [sp, #96]	; 0x60
    835e:	ea20 72e0 	bic.w	r2, r0, r0, asr #31
    8362:	9010      	str	r0, [sp, #64]	; 0x40
    8364:	920a      	str	r2, [sp, #40]	; 0x28
    8366:	f89d 210f 	ldrb.w	r2, [sp, #271]	; 0x10f
    836a:	f7fe bf6d 	b.w	7248 <_svfprintf_r+0x318>
    836e:	f24d 08d4 	movw	r8, #53460	; 0xd0d4
    8372:	f106 0308 	add.w	r3, r6, #8
    8376:	9d3b      	ldr	r5, [sp, #236]	; 0xec
    8378:	f2c0 0800 	movt	r8, #0
    837c:	9c3a      	ldr	r4, [sp, #232]	; 0xe8
    837e:	f7fe bfae 	b.w	72de <_svfprintf_r+0x3ae>
    8382:	9811      	ldr	r0, [sp, #68]	; 0x44
    8384:	aa39      	add	r2, sp, #228	; 0xe4
    8386:	990c      	ldr	r1, [sp, #48]	; 0x30
    8388:	f002 fa3e 	bl	a808 <__ssprint_r>
    838c:	2800      	cmp	r0, #0
    838e:	f47e aeb6 	bne.w	70fe <_svfprintf_r+0x1ce>
    8392:	9d3b      	ldr	r5, [sp, #236]	; 0xec
    8394:	46d1      	mov	r9, sl
    8396:	f7ff bbcf 	b.w	7b38 <_svfprintf_r+0xc08>
    839a:	9811      	ldr	r0, [sp, #68]	; 0x44
    839c:	aa39      	add	r2, sp, #228	; 0xe4
    839e:	990c      	ldr	r1, [sp, #48]	; 0x30
    83a0:	f002 fa32 	bl	a808 <__ssprint_r>
    83a4:	2800      	cmp	r0, #0
    83a6:	f47e aeaa 	bne.w	70fe <_svfprintf_r+0x1ce>
    83aa:	9a42      	ldr	r2, [sp, #264]	; 0x108
    83ac:	4653      	mov	r3, sl
    83ae:	9d3b      	ldr	r5, [sp, #236]	; 0xec
    83b0:	e562      	b.n	7e78 <_svfprintf_r+0xf48>
    83b2:	9811      	ldr	r0, [sp, #68]	; 0x44
    83b4:	aa39      	add	r2, sp, #228	; 0xe4
    83b6:	990c      	ldr	r1, [sp, #48]	; 0x30
    83b8:	f002 fa26 	bl	a808 <__ssprint_r>
    83bc:	2800      	cmp	r0, #0
    83be:	f47e ae9e 	bne.w	70fe <_svfprintf_r+0x1ce>
    83c2:	9a42      	ldr	r2, [sp, #264]	; 0x108
    83c4:	4653      	mov	r3, sl
    83c6:	980e      	ldr	r0, [sp, #56]	; 0x38
    83c8:	9d3b      	ldr	r5, [sp, #236]	; 0xec
    83ca:	1a82      	subs	r2, r0, r2
    83cc:	e56b      	b.n	7ea6 <_svfprintf_r+0xf76>
    83ce:	9b13      	ldr	r3, [sp, #76]	; 0x4c
    83d0:	f10b 0b28 	add.w	fp, fp, #40	; 0x28
    83d4:	ebc3 030b 	rsb	r3, r3, fp
    83d8:	9310      	str	r3, [sp, #64]	; 0x40
    83da:	f7fe bf2b 	b.w	7234 <_svfprintf_r+0x304>
    83de:	9811      	ldr	r0, [sp, #68]	; 0x44
    83e0:	aa39      	add	r2, sp, #228	; 0xe4
    83e2:	990c      	ldr	r1, [sp, #48]	; 0x30
    83e4:	f002 fa10 	bl	a808 <__ssprint_r>
    83e8:	2800      	cmp	r0, #0
    83ea:	f47e ae88 	bne.w	70fe <_svfprintf_r+0x1ce>
    83ee:	4653      	mov	r3, sl
    83f0:	9d3b      	ldr	r5, [sp, #236]	; 0xec
    83f2:	e539      	b.n	7e68 <_svfprintf_r+0xf38>
    83f4:	2f06      	cmp	r7, #6
    83f6:	bf28      	it	cs
    83f8:	2706      	movcs	r7, #6
    83fa:	f24d 102c 	movw	r0, #53548	; 0xd12c
    83fe:	ea27 71e7 	bic.w	r1, r7, r7, asr #31
    8402:	f2c0 0000 	movt	r0, #0
    8406:	461a      	mov	r2, r3
    8408:	9710      	str	r7, [sp, #64]	; 0x40
    840a:	910a      	str	r1, [sp, #40]	; 0x28
    840c:	9412      	str	r4, [sp, #72]	; 0x48
    840e:	9315      	str	r3, [sp, #84]	; 0x54
    8410:	9318      	str	r3, [sp, #96]	; 0x60
    8412:	9013      	str	r0, [sp, #76]	; 0x4c
    8414:	f7fe bf18 	b.w	7248 <_svfprintf_r+0x318>
    8418:	f24d 08d4 	movw	r8, #53460	; 0xd0d4
    841c:	9c3a      	ldr	r4, [sp, #232]	; 0xe8
    841e:	f2c0 0800 	movt	r8, #0
    8422:	f7ff b81a 	b.w	745a <_svfprintf_r+0x52a>
    8426:	9c10      	ldr	r4, [sp, #64]	; 0x40
    8428:	222d      	movs	r2, #45	; 0x2d
    842a:	2000      	movs	r0, #0
    842c:	f88d 210f 	strb.w	r2, [sp, #271]	; 0x10f
    8430:	ea24 74e4 	bic.w	r4, r4, r4, asr #31
    8434:	9015      	str	r0, [sp, #84]	; 0x54
    8436:	940a      	str	r4, [sp, #40]	; 0x28
    8438:	f7fe bf07 	b.w	724a <_svfprintf_r+0x31a>
    843c:	46b8      	mov	r8, r7
    843e:	2303      	movs	r3, #3
    8440:	e654      	b.n	80ec <_svfprintf_r+0x11bc>
    8442:	9a16      	ldr	r2, [sp, #88]	; 0x58
    8444:	2a66      	cmp	r2, #102	; 0x66
    8446:	d160      	bne.n	850a <_svfprintf_r+0x15da>
    8448:	9b42      	ldr	r3, [sp, #264]	; 0x108
    844a:	2b00      	cmp	r3, #0
    844c:	9310      	str	r3, [sp, #64]	; 0x40
    844e:	f340 8086 	ble.w	855e <_svfprintf_r+0x162e>
    8452:	b91f      	cbnz	r7, 845c <_svfprintf_r+0x152c>
    8454:	9808      	ldr	r0, [sp, #32]
    8456:	f010 0f01 	tst.w	r0, #1
    845a:	d002      	beq.n	8462 <_svfprintf_r+0x1532>
    845c:	1c5a      	adds	r2, r3, #1
    845e:	19d2      	adds	r2, r2, r7
    8460:	9210      	str	r2, [sp, #64]	; 0x40
    8462:	9318      	str	r3, [sp, #96]	; 0x60
    8464:	9516      	str	r5, [sp, #88]	; 0x58
    8466:	e6e5      	b.n	8234 <_svfprintf_r+0x1304>
    8468:	9b40      	ldr	r3, [sp, #256]	; 0x100
    846a:	429c      	cmp	r4, r3
    846c:	f67f ae7d 	bls.w	816a <_svfprintf_r+0x123a>
    8470:	2230      	movs	r2, #48	; 0x30
    8472:	f803 2b01 	strb.w	r2, [r3], #1
    8476:	42a3      	cmp	r3, r4
    8478:	9340      	str	r3, [sp, #256]	; 0x100
    847a:	d3fa      	bcc.n	8472 <_svfprintf_r+0x1542>
    847c:	4623      	mov	r3, r4
    847e:	e674      	b.n	816a <_svfprintf_r+0x123a>
    8480:	4633      	mov	r3, r6
    8482:	9c3a      	ldr	r4, [sp, #232]	; 0xe8
    8484:	3608      	adds	r6, #8
    8486:	f8df 80fc 	ldr.w	r8, [pc, #252]	; 8584 <_svfprintf_r+0x1654>
    848a:	f7ff ba9f 	b.w	79cc <_svfprintf_r+0xa9c>
    848e:	9a0e      	ldr	r2, [sp, #56]	; 0x38
    8490:	4293      	cmp	r3, r2
    8492:	db22      	blt.n	84da <_svfprintf_r+0x15aa>
    8494:	9c08      	ldr	r4, [sp, #32]
    8496:	f014 0f01 	tst.w	r4, #1
    849a:	d034      	beq.n	8506 <_svfprintf_r+0x15d6>
    849c:	1c58      	adds	r0, r3, #1
    849e:	2567      	movs	r5, #103	; 0x67
    84a0:	9010      	str	r0, [sp, #64]	; 0x40
    84a2:	e7de      	b.n	8462 <_svfprintf_r+0x1532>
    84a4:	ea27 72e7 	bic.w	r2, r7, r7, asr #31
    84a8:	9015      	str	r0, [sp, #84]	; 0x54
    84aa:	920a      	str	r2, [sp, #40]	; 0x28
    84ac:	9412      	str	r4, [sp, #72]	; 0x48
    84ae:	f89d 210f 	ldrb.w	r2, [sp, #271]	; 0x10f
    84b2:	9710      	str	r7, [sp, #64]	; 0x40
    84b4:	9018      	str	r0, [sp, #96]	; 0x60
    84b6:	f7fe bec7 	b.w	7248 <_svfprintf_r+0x318>
    84ba:	2700      	movs	r7, #0
    84bc:	ea47 77e7 	orr.w	r7, r7, r7, asr #31
    84c0:	f7fe bda4 	b.w	700c <_svfprintf_r+0xdc>
    84c4:	46b8      	mov	r8, r7
    84c6:	2302      	movs	r3, #2
    84c8:	e610      	b.n	80ec <_svfprintf_r+0x11bc>
    84ca:	3330      	adds	r3, #48	; 0x30
    84cc:	2230      	movs	r2, #48	; 0x30
    84ce:	a93f      	add	r1, sp, #252	; 0xfc
    84d0:	f88d 20fa 	strb.w	r2, [sp, #250]	; 0xfa
    84d4:	f88d 30fb 	strb.w	r3, [sp, #251]	; 0xfb
    84d8:	e69d      	b.n	8216 <_svfprintf_r+0x12e6>
    84da:	2b00      	cmp	r3, #0
    84dc:	990e      	ldr	r1, [sp, #56]	; 0x38
    84de:	bfd4      	ite	le
    84e0:	f1c3 0202 	rsble	r2, r3, #2
    84e4:	2201      	movgt	r2, #1
    84e6:	1852      	adds	r2, r2, r1
    84e8:	2567      	movs	r5, #103	; 0x67
    84ea:	9210      	str	r2, [sp, #64]	; 0x40
    84ec:	e7b9      	b.n	8462 <_svfprintf_r+0x1532>
    84ee:	f103 0908 	add.w	r9, r3, #8
    84f2:	9c3a      	ldr	r4, [sp, #232]	; 0xe8
    84f4:	f8df 808c 	ldr.w	r8, [pc, #140]	; 8584 <_svfprintf_r+0x1654>
    84f8:	f7ff bbcd 	b.w	7c96 <_svfprintf_r+0xd66>
    84fc:	222d      	movs	r2, #45	; 0x2d
    84fe:	425b      	negs	r3, r3
    8500:	f88d 20f9 	strb.w	r2, [sp, #249]	; 0xf9
    8504:	e659      	b.n	81ba <_svfprintf_r+0x128a>
    8506:	2567      	movs	r5, #103	; 0x67
    8508:	e7ab      	b.n	8462 <_svfprintf_r+0x1532>
    850a:	9b42      	ldr	r3, [sp, #264]	; 0x108
    850c:	e64a      	b.n	81a4 <_svfprintf_r+0x1274>
    850e:	981a      	ldr	r0, [sp, #104]	; 0x68
    8510:	2200      	movs	r2, #0
    8512:	2300      	movs	r3, #0
    8514:	4649      	mov	r1, r9
    8516:	f7fd ffdb 	bl	64d0 <__aeabi_dcmpeq>
    851a:	2800      	cmp	r0, #0
    851c:	f47f ae18 	bne.w	8150 <_svfprintf_r+0x1220>
    8520:	f1c8 0301 	rsb	r3, r8, #1
    8524:	9342      	str	r3, [sp, #264]	; 0x108
    8526:	e613      	b.n	8150 <_svfprintf_r+0x1220>
    8528:	9a08      	ldr	r2, [sp, #32]
    852a:	f012 0301 	ands.w	r3, r2, #1
    852e:	bf08      	it	eq
    8530:	9318      	streq	r3, [sp, #96]	; 0x60
    8532:	f43f ae7f 	beq.w	8234 <_svfprintf_r+0x1304>
    8536:	e678      	b.n	822a <_svfprintf_r+0x12fa>
    8538:	f109 0308 	add.w	r3, r9, #8
    853c:	9c3a      	ldr	r4, [sp, #232]	; 0xe8
    853e:	f8df 8044 	ldr.w	r8, [pc, #68]	; 8584 <_svfprintf_r+0x1654>
    8542:	e486      	b.n	7e52 <_svfprintf_r+0xf22>
    8544:	9812      	ldr	r0, [sp, #72]	; 0x48
    8546:	6807      	ldr	r7, [r0, #0]
    8548:	3004      	adds	r0, #4
    854a:	2f00      	cmp	r7, #0
    854c:	bfbe      	ittt	lt
    854e:	f04f 37ff 	movlt.w	r7, #4294967295
    8552:	7813      	ldrblt	r3, [r2, #0]
    8554:	9012      	strlt	r0, [sp, #72]	; 0x48
    8556:	f6bf a930 	bge.w	77ba <_svfprintf_r+0x88a>
    855a:	f7fe bd56 	b.w	700a <_svfprintf_r+0xda>
    855e:	b91f      	cbnz	r7, 8568 <_svfprintf_r+0x1638>
    8560:	9908      	ldr	r1, [sp, #32]
    8562:	f011 0f01 	tst.w	r1, #1
    8566:	d00a      	beq.n	857e <_svfprintf_r+0x164e>
    8568:	3702      	adds	r7, #2
    856a:	9710      	str	r7, [sp, #64]	; 0x40
    856c:	e779      	b.n	8462 <_svfprintf_r+0x1532>
    856e:	9c11      	ldr	r4, [sp, #68]	; 0x44
    8570:	f04f 32ff 	mov.w	r2, #4294967295
    8574:	230c      	movs	r3, #12
    8576:	920f      	str	r2, [sp, #60]	; 0x3c
    8578:	6023      	str	r3, [r4, #0]
    857a:	f7fe bdc9 	b.w	7110 <_svfprintf_r+0x1e0>
    857e:	2201      	movs	r2, #1
    8580:	9210      	str	r2, [sp, #64]	; 0x40
    8582:	e76e      	b.n	8462 <_svfprintf_r+0x1532>
    8584:	0000d0e4 	.word	0x0000d0e4

00008588 <quorem>:
    8588:	e92d 4ff0 	stmdb	sp!, {r4, r5, r6, r7, r8, r9, sl, fp, lr}
    858c:	b083      	sub	sp, #12
    858e:	6903      	ldr	r3, [r0, #16]
    8590:	4681      	mov	r9, r0
    8592:	690d      	ldr	r5, [r1, #16]
    8594:	9101      	str	r1, [sp, #4]
    8596:	429d      	cmp	r5, r3
    8598:	f300 8089 	bgt.w	86ae <quorem+0x126>
    859c:	1cea      	adds	r2, r5, #3
    859e:	f101 0414 	add.w	r4, r1, #20
    85a2:	f100 0814 	add.w	r8, r0, #20
    85a6:	3d01      	subs	r5, #1
    85a8:	0092      	lsls	r2, r2, #2
    85aa:	188b      	adds	r3, r1, r2
    85ac:	1882      	adds	r2, r0, r2
    85ae:	1d1f      	adds	r7, r3, #4
    85b0:	6859      	ldr	r1, [r3, #4]
    85b2:	6850      	ldr	r0, [r2, #4]
    85b4:	3101      	adds	r1, #1
    85b6:	f003 fac7 	bl	bb48 <__aeabi_uidiv>
    85ba:	4606      	mov	r6, r0
    85bc:	2800      	cmp	r0, #0
    85be:	d03c      	beq.n	863a <quorem+0xb2>
    85c0:	2000      	movs	r0, #0
    85c2:	4642      	mov	r2, r8
    85c4:	4623      	mov	r3, r4
    85c6:	4686      	mov	lr, r0
    85c8:	f853 cb04 	ldr.w	ip, [r3], #4
    85cc:	6811      	ldr	r1, [r2, #0]
    85ce:	fa1f fb8c 	uxth.w	fp, ip
    85d2:	ea4f 4c1c 	mov.w	ip, ip, lsr #16
    85d6:	fa1f fa81 	uxth.w	sl, r1
    85da:	fb0b 0b06 	mla	fp, fp, r6, r0
    85de:	44d6      	add	lr, sl
    85e0:	fb0c f006 	mul.w	r0, ip, r6
    85e4:	eb00 401b 	add.w	r0, r0, fp, lsr #16
    85e8:	fa1f fb8b 	uxth.w	fp, fp
    85ec:	ebcb 0a0e 	rsb	sl, fp, lr
    85f0:	fa1f fe80 	uxth.w	lr, r0
    85f4:	0c00      	lsrs	r0, r0, #16
    85f6:	ebce 4e11 	rsb	lr, lr, r1, lsr #16
    85fa:	429f      	cmp	r7, r3
    85fc:	eb0e 4e2a 	add.w	lr, lr, sl, asr #16
    8600:	fa1f fc8a 	uxth.w	ip, sl
    8604:	ea4c 410e 	orr.w	r1, ip, lr, lsl #16
    8608:	ea4f 4e2e 	mov.w	lr, lr, asr #16
    860c:	f842 1b04 	str.w	r1, [r2], #4
    8610:	d2da      	bcs.n	85c8 <quorem+0x40>
    8612:	1d2a      	adds	r2, r5, #4
    8614:	eb09 0382 	add.w	r3, r9, r2, lsl #2
    8618:	6859      	ldr	r1, [r3, #4]
    861a:	b971      	cbnz	r1, 863a <quorem+0xb2>
    861c:	4598      	cmp	r8, r3
    861e:	d20a      	bcs.n	8636 <quorem+0xae>
    8620:	f859 2022 	ldr.w	r2, [r9, r2, lsl #2]
    8624:	b93a      	cbnz	r2, 8636 <quorem+0xae>
    8626:	3b04      	subs	r3, #4
    8628:	e002      	b.n	8630 <quorem+0xa8>
    862a:	f853 2904 	ldr.w	r2, [r3], #-4
    862e:	b912      	cbnz	r2, 8636 <quorem+0xae>
    8630:	3d01      	subs	r5, #1
    8632:	4598      	cmp	r8, r3
    8634:	d3f9      	bcc.n	862a <quorem+0xa2>
    8636:	f8c9 5010 	str.w	r5, [r9, #16]
    863a:	4648      	mov	r0, r9
    863c:	9901      	ldr	r1, [sp, #4]
    863e:	f001 fd7d 	bl	a13c <__mcmp>
    8642:	2800      	cmp	r0, #0
    8644:	db2f      	blt.n	86a6 <quorem+0x11e>
    8646:	3601      	adds	r6, #1
    8648:	4643      	mov	r3, r8
    864a:	f04f 0c00 	mov.w	ip, #0
    864e:	f854 0b04 	ldr.w	r0, [r4], #4
    8652:	6819      	ldr	r1, [r3, #0]
    8654:	fa1f fa80 	uxth.w	sl, r0
    8658:	0c00      	lsrs	r0, r0, #16
    865a:	b28a      	uxth	r2, r1
    865c:	ebc0 4111 	rsb	r1, r0, r1, lsr #16
    8660:	ebca 0202 	rsb	r2, sl, r2
    8664:	42a7      	cmp	r7, r4
    8666:	4494      	add	ip, r2
    8668:	eb01 422c 	add.w	r2, r1, ip, asr #16
    866c:	fa1f fc8c 	uxth.w	ip, ip
    8670:	ea4c 4102 	orr.w	r1, ip, r2, lsl #16
    8674:	ea4f 4c22 	mov.w	ip, r2, asr #16
    8678:	f843 1b04 	str.w	r1, [r3], #4
    867c:	d2e7      	bcs.n	864e <quorem+0xc6>
    867e:	1d2a      	adds	r2, r5, #4
    8680:	eb09 0382 	add.w	r3, r9, r2, lsl #2
    8684:	6859      	ldr	r1, [r3, #4]
    8686:	b971      	cbnz	r1, 86a6 <quorem+0x11e>
    8688:	4598      	cmp	r8, r3
    868a:	d20a      	bcs.n	86a2 <quorem+0x11a>
    868c:	f859 2022 	ldr.w	r2, [r9, r2, lsl #2]
    8690:	b93a      	cbnz	r2, 86a2 <quorem+0x11a>
    8692:	3b04      	subs	r3, #4
    8694:	e002      	b.n	869c <quorem+0x114>
    8696:	f853 2904 	ldr.w	r2, [r3], #-4
    869a:	b912      	cbnz	r2, 86a2 <quorem+0x11a>
    869c:	3d01      	subs	r5, #1
    869e:	4598      	cmp	r8, r3
    86a0:	d3f9      	bcc.n	8696 <quorem+0x10e>
    86a2:	f8c9 5010 	str.w	r5, [r9, #16]
    86a6:	4630      	mov	r0, r6
    86a8:	b003      	add	sp, #12
    86aa:	e8bd 8ff0 	ldmia.w	sp!, {r4, r5, r6, r7, r8, r9, sl, fp, pc}
    86ae:	2000      	movs	r0, #0
    86b0:	e7fa      	b.n	86a8 <quorem+0x120>
    86b2:	bf00      	nop

000086b4 <_dtoa_r>:
    86b4:	e92d 4ff0 	stmdb	sp!, {r4, r5, r6, r7, r8, r9, sl, fp, lr}
    86b8:	b09f      	sub	sp, #124	; 0x7c
    86ba:	6a45      	ldr	r5, [r0, #36]	; 0x24
    86bc:	4604      	mov	r4, r0
    86be:	4690      	mov	r8, r2
    86c0:	4699      	mov	r9, r3
    86c2:	9e2b      	ldr	r6, [sp, #172]	; 0xac
    86c4:	2d00      	cmp	r5, #0
    86c6:	f000 839d 	beq.w	8e04 <_dtoa_r+0x750>
    86ca:	682b      	ldr	r3, [r5, #0]
    86cc:	b153      	cbz	r3, 86e4 <_dtoa_r+0x30>
    86ce:	686a      	ldr	r2, [r5, #4]
    86d0:	2501      	movs	r5, #1
    86d2:	4619      	mov	r1, r3
    86d4:	4095      	lsls	r5, r2
    86d6:	609d      	str	r5, [r3, #8]
    86d8:	605a      	str	r2, [r3, #4]
    86da:	f001 faef 	bl	9cbc <_Bfree>
    86de:	6a63      	ldr	r3, [r4, #36]	; 0x24
    86e0:	2200      	movs	r2, #0
    86e2:	601a      	str	r2, [r3, #0]
    86e4:	f1b9 0500 	subs.w	r5, r9, #0
    86e8:	f2c0 80d2 	blt.w	8890 <_dtoa_r+0x1dc>
    86ec:	2300      	movs	r3, #0
    86ee:	6033      	str	r3, [r6, #0]
    86f0:	2300      	movs	r3, #0
    86f2:	461a      	mov	r2, r3
    86f4:	f6c7 73f0 	movt	r3, #32752	; 0x7ff0
    86f8:	f6c7 72f0 	movt	r2, #32752	; 0x7ff0
    86fc:	ea05 0303 	and.w	r3, r5, r3
    8700:	4293      	cmp	r3, r2
    8702:	f000 80ae 	beq.w	8862 <_dtoa_r+0x1ae>
    8706:	2200      	movs	r2, #0
    8708:	2300      	movs	r3, #0
    870a:	4640      	mov	r0, r8
    870c:	4649      	mov	r1, r9
    870e:	e9cd 8904 	strd	r8, r9, [sp, #16]
    8712:	2601      	movs	r6, #1
    8714:	f7fd fedc 	bl	64d0 <__aeabi_dcmpeq>
    8718:	b980      	cbnz	r0, 873c <_dtoa_r+0x88>
    871a:	f016 0fff 	tst.w	r6, #255	; 0xff
    871e:	d111      	bne.n	8744 <_dtoa_r+0x90>
    8720:	9f2a      	ldr	r7, [sp, #168]	; 0xa8
    8722:	2301      	movs	r3, #1
    8724:	982c      	ldr	r0, [sp, #176]	; 0xb0
    8726:	603b      	str	r3, [r7, #0]
    8728:	2800      	cmp	r0, #0
    872a:	f000 80eb 	beq.w	8904 <_dtoa_r+0x250>
    872e:	4b7e      	ldr	r3, [pc, #504]	; (8928 <_dtoa_r+0x274>)
    8730:	992c      	ldr	r1, [sp, #176]	; 0xb0
    8732:	1e58      	subs	r0, r3, #1
    8734:	600b      	str	r3, [r1, #0]
    8736:	b01f      	add	sp, #124	; 0x7c
    8738:	e8bd 8ff0 	ldmia.w	sp!, {r4, r5, r6, r7, r8, r9, sl, fp, pc}
    873c:	2600      	movs	r6, #0
    873e:	f016 0fff 	tst.w	r6, #255	; 0xff
    8742:	d0ed      	beq.n	8720 <_dtoa_r+0x6c>
    8744:	4620      	mov	r0, r4
    8746:	e9dd 2304 	ldrd	r2, r3, [sp, #16]
    874a:	a91c      	add	r1, sp, #112	; 0x70
    874c:	9100      	str	r1, [sp, #0]
    874e:	a91d      	add	r1, sp, #116	; 0x74
    8750:	9101      	str	r1, [sp, #4]
    8752:	f001 fe07 	bl	a364 <__d2b>
    8756:	f3c5 560a 	ubfx	r6, r5, #20, #11
    875a:	4682      	mov	sl, r0
    875c:	2e00      	cmp	r6, #0
    875e:	f000 80ac 	beq.w	88ba <_dtoa_r+0x206>
    8762:	9f05      	ldr	r7, [sp, #20]
    8764:	f5a6 767e 	sub.w	r6, r6, #1016	; 0x3f8
    8768:	3e07      	subs	r6, #7
    876a:	2000      	movs	r0, #0
    876c:	f027 437f 	bic.w	r3, r7, #4278190080	; 0xff000000
    8770:	9f1d      	ldr	r7, [sp, #116]	; 0x74
    8772:	f423 0370 	bic.w	r3, r3, #15728640	; 0xf00000
    8776:	9017      	str	r0, [sp, #92]	; 0x5c
    8778:	f043 537e 	orr.w	r3, r3, #1065353216	; 0x3f800000
    877c:	f443 03e0 	orr.w	r3, r3, #7340032	; 0x700000
    8780:	9305      	str	r3, [sp, #20]
    8782:	2300      	movs	r3, #0
    8784:	e9dd 0104 	ldrd	r0, r1, [sp, #16]
    8788:	2200      	movs	r2, #0
    878a:	f6c3 73f8 	movt	r3, #16376	; 0x3ff8
    878e:	f7fd fa83 	bl	5c98 <__aeabi_dsub>
    8792:	a35f      	add	r3, pc, #380	; (adr r3, 8910 <_dtoa_r+0x25c>)
    8794:	e9d3 2300 	ldrd	r2, r3, [r3]
    8798:	f7fd fc32 	bl	6000 <__aeabi_dmul>
    879c:	a35e      	add	r3, pc, #376	; (adr r3, 8918 <_dtoa_r+0x264>)
    879e:	e9d3 2300 	ldrd	r2, r3, [r3]
    87a2:	f7fd fa7b 	bl	5c9c <__adddf3>
    87a6:	e9cd 0104 	strd	r0, r1, [sp, #16]
    87aa:	4630      	mov	r0, r6
    87ac:	f7fd fbc2 	bl	5f34 <__aeabi_i2d>
    87b0:	a35b      	add	r3, pc, #364	; (adr r3, 8920 <_dtoa_r+0x26c>)
    87b2:	e9d3 2300 	ldrd	r2, r3, [r3]
    87b6:	f7fd fc23 	bl	6000 <__aeabi_dmul>
    87ba:	4602      	mov	r2, r0
    87bc:	460b      	mov	r3, r1
    87be:	e9dd 0104 	ldrd	r0, r1, [sp, #16]
    87c2:	f7fd fa6b 	bl	5c9c <__adddf3>
    87c6:	e9cd 0104 	strd	r0, r1, [sp, #16]
    87ca:	f003 fafb 	bl	bdc4 <__aeabi_d2iz>
    87ce:	2200      	movs	r2, #0
    87d0:	2300      	movs	r3, #0
    87d2:	4605      	mov	r5, r0
    87d4:	e9dd 0104 	ldrd	r0, r1, [sp, #16]
    87d8:	f7fd fe84 	bl	64e4 <__aeabi_dcmplt>
    87dc:	b140      	cbz	r0, 87f0 <_dtoa_r+0x13c>
    87de:	4628      	mov	r0, r5
    87e0:	f7fd fba8 	bl	5f34 <__aeabi_i2d>
    87e4:	e9dd 2304 	ldrd	r2, r3, [sp, #16]
    87e8:	f7fd fe72 	bl	64d0 <__aeabi_dcmpeq>
    87ec:	b900      	cbnz	r0, 87f0 <_dtoa_r+0x13c>
    87ee:	3d01      	subs	r5, #1
    87f0:	2d16      	cmp	r5, #22
    87f2:	f200 8262 	bhi.w	8cba <_dtoa_r+0x606>
    87f6:	f24d 1168 	movw	r1, #53608	; 0xd168
    87fa:	4642      	mov	r2, r8
    87fc:	f2c0 0100 	movt	r1, #0
    8800:	464b      	mov	r3, r9
    8802:	eb01 01c5 	add.w	r1, r1, r5, lsl #3
    8806:	e9d1 0100 	ldrd	r0, r1, [r1]
    880a:	f7fd fe89 	bl	6520 <__aeabi_dcmpgt>
    880e:	2800      	cmp	r0, #0
    8810:	f000 830e 	beq.w	8e30 <_dtoa_r+0x77c>
    8814:	3d01      	subs	r5, #1
    8816:	2000      	movs	r0, #0
    8818:	9016      	str	r0, [sp, #88]	; 0x58
    881a:	3f01      	subs	r7, #1
    881c:	1bbe      	subs	r6, r7, r6
    881e:	f100 8302 	bmi.w	8e26 <_dtoa_r+0x772>
    8822:	2700      	movs	r7, #0
    8824:	960e      	str	r6, [sp, #56]	; 0x38
    8826:	9712      	str	r7, [sp, #72]	; 0x48
    8828:	2d00      	cmp	r5, #0
    882a:	f2c0 82f4 	blt.w	8e16 <_dtoa_r+0x762>
    882e:	980e      	ldr	r0, [sp, #56]	; 0x38
    8830:	f04f 0b00 	mov.w	fp, #0
    8834:	9515      	str	r5, [sp, #84]	; 0x54
    8836:	1940      	adds	r0, r0, r5
    8838:	900e      	str	r0, [sp, #56]	; 0x38
    883a:	9b28      	ldr	r3, [sp, #160]	; 0xa0
    883c:	2b09      	cmp	r3, #9
    883e:	d875      	bhi.n	892c <_dtoa_r+0x278>
    8840:	2b05      	cmp	r3, #5
    8842:	f340 869b 	ble.w	957c <_dtoa_r+0xec8>
    8846:	2700      	movs	r7, #0
    8848:	3b04      	subs	r3, #4
    884a:	9328      	str	r3, [sp, #160]	; 0xa0
    884c:	9828      	ldr	r0, [sp, #160]	; 0xa0
    884e:	1e83      	subs	r3, r0, #2
    8850:	2b03      	cmp	r3, #3
    8852:	f200 8413 	bhi.w	907c <_dtoa_r+0x9c8>
    8856:	e8df f013 	tbh	[pc, r3, lsl #1]
    885a:	040b      	.short	0x040b
    885c:	03db03fa 	.word	0x03db03fa
    8860:	040e      	.short	0x040e
    8862:	982a      	ldr	r0, [sp, #168]	; 0xa8
    8864:	f242 730f 	movw	r3, #9999	; 0x270f
    8868:	6003      	str	r3, [r0, #0]
    886a:	f24d 1044 	movw	r0, #53572	; 0xd144
    886e:	f2c0 0000 	movt	r0, #0
    8872:	f1b8 0f00 	cmp.w	r8, #0
    8876:	d011      	beq.n	889c <_dtoa_r+0x1e8>
    8878:	992c      	ldr	r1, [sp, #176]	; 0xb0
    887a:	2900      	cmp	r1, #0
    887c:	f43f af5b 	beq.w	8736 <_dtoa_r+0x82>
    8880:	78c2      	ldrb	r2, [r0, #3]
    8882:	1cc3      	adds	r3, r0, #3
    8884:	b10a      	cbz	r2, 888a <_dtoa_r+0x1d6>
    8886:	f100 0308 	add.w	r3, r0, #8
    888a:	9a2c      	ldr	r2, [sp, #176]	; 0xb0
    888c:	6013      	str	r3, [r2, #0]
    888e:	e752      	b.n	8736 <_dtoa_r+0x82>
    8890:	f025 4500 	bic.w	r5, r5, #2147483648	; 0x80000000
    8894:	2301      	movs	r3, #1
    8896:	46a9      	mov	r9, r5
    8898:	6033      	str	r3, [r6, #0]
    889a:	e729      	b.n	86f0 <_dtoa_r+0x3c>
    889c:	f24d 1238 	movw	r2, #53560	; 0xd138
    88a0:	f24d 1344 	movw	r3, #53572	; 0xd144
    88a4:	f3c5 0013 	ubfx	r0, r5, #0, #20
    88a8:	f2c0 0200 	movt	r2, #0
    88ac:	f2c0 0300 	movt	r3, #0
    88b0:	2800      	cmp	r0, #0
    88b2:	bf0c      	ite	eq
    88b4:	4610      	moveq	r0, r2
    88b6:	4618      	movne	r0, r3
    88b8:	e7de      	b.n	8878 <_dtoa_r+0x1c4>
    88ba:	9f1d      	ldr	r7, [sp, #116]	; 0x74
    88bc:	9b1c      	ldr	r3, [sp, #112]	; 0x70
    88be:	18fb      	adds	r3, r7, r3
    88c0:	f503 6386 	add.w	r3, r3, #1072	; 0x430
    88c4:	1c9e      	adds	r6, r3, #2
    88c6:	2e20      	cmp	r6, #32
    88c8:	bfdc      	itt	le
    88ca:	f1c6 0020 	rsble	r0, r6, #32
    88ce:	fa08 f000 	lslle.w	r0, r8, r0
    88d2:	dd07      	ble.n	88e4 <_dtoa_r+0x230>
    88d4:	f1c6 0040 	rsb	r0, r6, #64	; 0x40
    88d8:	3b1e      	subs	r3, #30
    88da:	4085      	lsls	r5, r0
    88dc:	fa28 f303 	lsr.w	r3, r8, r3
    88e0:	ea45 0003 	orr.w	r0, r5, r3
    88e4:	2101      	movs	r1, #1
    88e6:	9117      	str	r1, [sp, #92]	; 0x5c
    88e8:	f7fd fb14 	bl	5f14 <__aeabi_ui2d>
    88ec:	f5a6 6686 	sub.w	r6, r6, #1072	; 0x430
    88f0:	3e03      	subs	r6, #3
    88f2:	460b      	mov	r3, r1
    88f4:	4602      	mov	r2, r0
    88f6:	e9cd 2304 	strd	r2, r3, [sp, #16]
    88fa:	9b05      	ldr	r3, [sp, #20]
    88fc:	f1a3 73f8 	sub.w	r3, r3, #32505856	; 0x1f00000
    8900:	9305      	str	r3, [sp, #20]
    8902:	e73e      	b.n	8782 <_dtoa_r+0xce>
    8904:	f24d 1034 	movw	r0, #53556	; 0xd134
    8908:	f2c0 0000 	movt	r0, #0
    890c:	e713      	b.n	8736 <_dtoa_r+0x82>
    890e:	bf00      	nop
    8910:	636f4361 	.word	0x636f4361
    8914:	3fd287a7 	.word	0x3fd287a7
    8918:	8b60c8b3 	.word	0x8b60c8b3
    891c:	3fc68a28 	.word	0x3fc68a28
    8920:	509f79fb 	.word	0x509f79fb
    8924:	3fd34413 	.word	0x3fd34413
    8928:	0000d135 	.word	0x0000d135
    892c:	2000      	movs	r0, #0
    892e:	f04f 31ff 	mov.w	r1, #4294967295
    8932:	4607      	mov	r7, r0
    8934:	2201      	movs	r2, #1
    8936:	9028      	str	r0, [sp, #160]	; 0xa0
    8938:	9113      	str	r1, [sp, #76]	; 0x4c
    893a:	9214      	str	r2, [sp, #80]	; 0x50
    893c:	910d      	str	r1, [sp, #52]	; 0x34
    893e:	9029      	str	r0, [sp, #164]	; 0xa4
    8940:	6a66      	ldr	r6, [r4, #36]	; 0x24
    8942:	2300      	movs	r3, #0
    8944:	6073      	str	r3, [r6, #4]
    8946:	4620      	mov	r0, r4
    8948:	6871      	ldr	r1, [r6, #4]
    894a:	f001 f983 	bl	9c54 <_Balloc>
    894e:	6a63      	ldr	r3, [r4, #36]	; 0x24
    8950:	6030      	str	r0, [r6, #0]
    8952:	681b      	ldr	r3, [r3, #0]
    8954:	930f      	str	r3, [sp, #60]	; 0x3c
    8956:	2f00      	cmp	r7, #0
    8958:	f000 80eb 	beq.w	8b32 <_dtoa_r+0x47e>
    895c:	2d00      	cmp	r5, #0
    895e:	4640      	mov	r0, r8
    8960:	4649      	mov	r1, r9
    8962:	e9cd 890a 	strd	r8, r9, [sp, #40]	; 0x28
    8966:	e9cd 0104 	strd	r0, r1, [sp, #16]
    896a:	f340 8431 	ble.w	91d0 <_dtoa_r+0xb1c>
    896e:	f24d 1368 	movw	r3, #53608	; 0xd168
    8972:	f005 020f 	and.w	r2, r5, #15
    8976:	f2c0 0300 	movt	r3, #0
    897a:	112e      	asrs	r6, r5, #4
    897c:	eb03 03c2 	add.w	r3, r3, r2, lsl #3
    8980:	f016 0f10 	tst.w	r6, #16
    8984:	bf08      	it	eq
    8986:	f04f 0802 	moveq.w	r8, #2
    898a:	e9d3 0100 	ldrd	r0, r1, [r3]
    898e:	e9cd 0110 	strd	r0, r1, [sp, #64]	; 0x40
    8992:	f040 8250 	bne.w	8e36 <_dtoa_r+0x782>
    8996:	b1be      	cbz	r6, 89c8 <_dtoa_r+0x314>
    8998:	f24d 2730 	movw	r7, #53808	; 0xd230
    899c:	e9dd 2310 	ldrd	r2, r3, [sp, #64]	; 0x40
    89a0:	f2c0 0700 	movt	r7, #0
    89a4:	f016 0f01 	tst.w	r6, #1
    89a8:	4610      	mov	r0, r2
    89aa:	4619      	mov	r1, r3
    89ac:	d007      	beq.n	89be <_dtoa_r+0x30a>
    89ae:	e9d7 2300 	ldrd	r2, r3, [r7]
    89b2:	f108 0801 	add.w	r8, r8, #1
    89b6:	f7fd fb23 	bl	6000 <__aeabi_dmul>
    89ba:	4602      	mov	r2, r0
    89bc:	460b      	mov	r3, r1
    89be:	3708      	adds	r7, #8
    89c0:	1076      	asrs	r6, r6, #1
    89c2:	d1ef      	bne.n	89a4 <_dtoa_r+0x2f0>
    89c4:	e9cd 2310 	strd	r2, r3, [sp, #64]	; 0x40
    89c8:	e9dd 010a 	ldrd	r0, r1, [sp, #40]	; 0x28
    89cc:	e9dd 2310 	ldrd	r2, r3, [sp, #64]	; 0x40
    89d0:	f7fd fc40 	bl	6254 <__aeabi_ddiv>
    89d4:	e9cd 010a 	strd	r0, r1, [sp, #40]	; 0x28
    89d8:	9916      	ldr	r1, [sp, #88]	; 0x58
    89da:	2900      	cmp	r1, #0
    89dc:	d03d      	beq.n	8a5a <_dtoa_r+0x3a6>
    89de:	2300      	movs	r3, #0
    89e0:	e9dd 010a 	ldrd	r0, r1, [sp, #40]	; 0x28
    89e4:	2200      	movs	r2, #0
    89e6:	f6c3 73f0 	movt	r3, #16368	; 0x3ff0
    89ea:	2601      	movs	r6, #1
    89ec:	f7fd fd7a 	bl	64e4 <__aeabi_dcmplt>
    89f0:	2800      	cmp	r0, #0
    89f2:	f000 830b 	beq.w	900c <_dtoa_r+0x958>
    89f6:	9a0d      	ldr	r2, [sp, #52]	; 0x34
    89f8:	2a00      	cmp	r2, #0
    89fa:	bfd4      	ite	le
    89fc:	2600      	movle	r6, #0
    89fe:	f006 0601 	andgt.w	r6, r6, #1
    8a02:	b356      	cbz	r6, 8a5a <_dtoa_r+0x3a6>
    8a04:	9b13      	ldr	r3, [sp, #76]	; 0x4c
    8a06:	2b00      	cmp	r3, #0
    8a08:	f340 808f 	ble.w	8b2a <_dtoa_r+0x476>
    8a0c:	2300      	movs	r3, #0
    8a0e:	2200      	movs	r2, #0
    8a10:	f2c4 0324 	movt	r3, #16420	; 0x4024
    8a14:	e9dd 010a 	ldrd	r0, r1, [sp, #40]	; 0x28
    8a18:	f7fd faf2 	bl	6000 <__aeabi_dmul>
    8a1c:	1e6f      	subs	r7, r5, #1
    8a1e:	9719      	str	r7, [sp, #100]	; 0x64
    8a20:	e9cd 010a 	strd	r0, r1, [sp, #40]	; 0x28
    8a24:	f108 0001 	add.w	r0, r8, #1
    8a28:	f7fd fa84 	bl	5f34 <__aeabi_i2d>
    8a2c:	4602      	mov	r2, r0
    8a2e:	460b      	mov	r3, r1
    8a30:	e9dd 010a 	ldrd	r0, r1, [sp, #40]	; 0x28
    8a34:	f7fd fae4 	bl	6000 <__aeabi_dmul>
    8a38:	2300      	movs	r3, #0
    8a3a:	2200      	movs	r2, #0
    8a3c:	f2c4 031c 	movt	r3, #16412	; 0x401c
    8a40:	f7fd f92c 	bl	5c9c <__adddf3>
    8a44:	f8dd 904c 	ldr.w	r9, [sp, #76]	; 0x4c
    8a48:	460b      	mov	r3, r1
    8a4a:	4602      	mov	r2, r0
    8a4c:	e9cd 2310 	strd	r2, r3, [sp, #64]	; 0x40
    8a50:	9b11      	ldr	r3, [sp, #68]	; 0x44
    8a52:	f1a3 7350 	sub.w	r3, r3, #54525952	; 0x3400000
    8a56:	9311      	str	r3, [sp, #68]	; 0x44
    8a58:	e23c      	b.n	8ed4 <_dtoa_r+0x820>
    8a5a:	4640      	mov	r0, r8
    8a5c:	f7fd fa6a 	bl	5f34 <__aeabi_i2d>
    8a60:	e9dd 230a 	ldrd	r2, r3, [sp, #40]	; 0x28
    8a64:	f7fd facc 	bl	6000 <__aeabi_dmul>
    8a68:	2300      	movs	r3, #0
    8a6a:	2200      	movs	r2, #0
    8a6c:	f2c4 031c 	movt	r3, #16412	; 0x401c
    8a70:	f7fd f914 	bl	5c9c <__adddf3>
    8a74:	4602      	mov	r2, r0
    8a76:	460b      	mov	r3, r1
    8a78:	e9cd 2310 	strd	r2, r3, [sp, #64]	; 0x40
    8a7c:	9b11      	ldr	r3, [sp, #68]	; 0x44
    8a7e:	980d      	ldr	r0, [sp, #52]	; 0x34
    8a80:	f1a3 7650 	sub.w	r6, r3, #54525952	; 0x3400000
    8a84:	9611      	str	r6, [sp, #68]	; 0x44
    8a86:	2800      	cmp	r0, #0
    8a88:	f040 8221 	bne.w	8ece <_dtoa_r+0x81a>
    8a8c:	2300      	movs	r3, #0
    8a8e:	2200      	movs	r2, #0
    8a90:	f2c4 0314 	movt	r3, #16404	; 0x4014
    8a94:	e9dd 010a 	ldrd	r0, r1, [sp, #40]	; 0x28
    8a98:	f7fd f8fe 	bl	5c98 <__aeabi_dsub>
    8a9c:	9f10      	ldr	r7, [sp, #64]	; 0x40
    8a9e:	4633      	mov	r3, r6
    8aa0:	463a      	mov	r2, r7
    8aa2:	4680      	mov	r8, r0
    8aa4:	4689      	mov	r9, r1
    8aa6:	f7fd fd3b 	bl	6520 <__aeabi_dcmpgt>
    8aaa:	2800      	cmp	r0, #0
    8aac:	f040 820a 	bne.w	8ec4 <_dtoa_r+0x810>
    8ab0:	9810      	ldr	r0, [sp, #64]	; 0x40
    8ab2:	4649      	mov	r1, r9
    8ab4:	f106 4300 	add.w	r3, r6, #2147483648	; 0x80000000
    8ab8:	4602      	mov	r2, r0
    8aba:	4640      	mov	r0, r8
    8abc:	f7fd fd12 	bl	64e4 <__aeabi_dcmplt>
    8ac0:	2800      	cmp	r0, #0
    8ac2:	d032      	beq.n	8b2a <_dtoa_r+0x476>
    8ac4:	f8dd b034 	ldr.w	fp, [sp, #52]	; 0x34
    8ac8:	f8cd b028 	str.w	fp, [sp, #40]	; 0x28
    8acc:	9a29      	ldr	r2, [sp, #164]	; 0xa4
    8ace:	2700      	movs	r7, #0
    8ad0:	9e0f      	ldr	r6, [sp, #60]	; 0x3c
    8ad2:	43d5      	mvns	r5, r2
    8ad4:	4620      	mov	r0, r4
    8ad6:	4659      	mov	r1, fp
    8ad8:	f001 f8f0 	bl	9cbc <_Bfree>
    8adc:	9a0a      	ldr	r2, [sp, #40]	; 0x28
    8ade:	b172      	cbz	r2, 8afe <_dtoa_r+0x44a>
    8ae0:	1e3b      	subs	r3, r7, #0
    8ae2:	bf18      	it	ne
    8ae4:	2301      	movne	r3, #1
    8ae6:	4297      	cmp	r7, r2
    8ae8:	bf0c      	ite	eq
    8aea:	2300      	moveq	r3, #0
    8aec:	f003 0301 	andne.w	r3, r3, #1
    8af0:	2b00      	cmp	r3, #0
    8af2:	f040 8356 	bne.w	91a2 <_dtoa_r+0xaee>
    8af6:	4620      	mov	r0, r4
    8af8:	990a      	ldr	r1, [sp, #40]	; 0x28
    8afa:	f001 f8df 	bl	9cbc <_Bfree>
    8afe:	4620      	mov	r0, r4
    8b00:	4651      	mov	r1, sl
    8b02:	f001 f8db 	bl	9cbc <_Bfree>
    8b06:	2300      	movs	r3, #0
    8b08:	7033      	strb	r3, [r6, #0]
    8b0a:	3501      	adds	r5, #1
    8b0c:	9b2a      	ldr	r3, [sp, #168]	; 0xa8
    8b0e:	9f2c      	ldr	r7, [sp, #176]	; 0xb0
    8b10:	601d      	str	r5, [r3, #0]
    8b12:	2f00      	cmp	r7, #0
    8b14:	f000 8413 	beq.w	933e <_dtoa_r+0xc8a>
    8b18:	603e      	str	r6, [r7, #0]
    8b1a:	980f      	ldr	r0, [sp, #60]	; 0x3c
    8b1c:	e60b      	b.n	8736 <_dtoa_r+0x82>
    8b1e:	f8dd b068 	ldr.w	fp, [sp, #104]	; 0x68
    8b22:	9d1b      	ldr	r5, [sp, #108]	; 0x6c
    8b24:	f8dd a060 	ldr.w	sl, [sp, #96]	; 0x60
    8b28:	9c0a      	ldr	r4, [sp, #40]	; 0x28
    8b2a:	e9dd 2304 	ldrd	r2, r3, [sp, #16]
    8b2e:	4690      	mov	r8, r2
    8b30:	4699      	mov	r9, r3
    8b32:	9b1c      	ldr	r3, [sp, #112]	; 0x70
    8b34:	43df      	mvns	r7, r3
    8b36:	0fff      	lsrs	r7, r7, #31
    8b38:	2d0e      	cmp	r5, #14
    8b3a:	bfcc      	ite	gt
    8b3c:	2700      	movgt	r7, #0
    8b3e:	f007 0701 	andle.w	r7, r7, #1
    8b42:	2f00      	cmp	r7, #0
    8b44:	f000 80bc 	beq.w	8cc0 <_dtoa_r+0x60c>
    8b48:	9829      	ldr	r0, [sp, #164]	; 0xa4
    8b4a:	f24d 1368 	movw	r3, #53608	; 0xd168
    8b4e:	f2c0 0300 	movt	r3, #0
    8b52:	990d      	ldr	r1, [sp, #52]	; 0x34
    8b54:	eb03 03c5 	add.w	r3, r3, r5, lsl #3
    8b58:	0fc7      	lsrs	r7, r0, #31
    8b5a:	2900      	cmp	r1, #0
    8b5c:	bfcc      	ite	gt
    8b5e:	2700      	movgt	r7, #0
    8b60:	f007 0701 	andle.w	r7, r7, #1
    8b64:	e9d3 0100 	ldrd	r0, r1, [r3]
    8b68:	e9cd 0106 	strd	r0, r1, [sp, #24]
    8b6c:	2f00      	cmp	r7, #0
    8b6e:	f040 8196 	bne.w	8e9e <_dtoa_r+0x7ea>
    8b72:	4602      	mov	r2, r0
    8b74:	460b      	mov	r3, r1
    8b76:	4640      	mov	r0, r8
    8b78:	4649      	mov	r1, r9
    8b7a:	f7fd fb6b 	bl	6254 <__aeabi_ddiv>
    8b7e:	9e0f      	ldr	r6, [sp, #60]	; 0x3c
    8b80:	f003 f920 	bl	bdc4 <__aeabi_d2iz>
    8b84:	4683      	mov	fp, r0
    8b86:	f7fd f9d5 	bl	5f34 <__aeabi_i2d>
    8b8a:	e9dd 2306 	ldrd	r2, r3, [sp, #24]
    8b8e:	f7fd fa37 	bl	6000 <__aeabi_dmul>
    8b92:	4602      	mov	r2, r0
    8b94:	460b      	mov	r3, r1
    8b96:	4640      	mov	r0, r8
    8b98:	4649      	mov	r1, r9
    8b9a:	f7fd f87d 	bl	5c98 <__aeabi_dsub>
    8b9e:	f10b 0330 	add.w	r3, fp, #48	; 0x30
    8ba2:	e9cd 0104 	strd	r0, r1, [sp, #16]
    8ba6:	f806 3b01 	strb.w	r3, [r6], #1
    8baa:	9a0d      	ldr	r2, [sp, #52]	; 0x34
    8bac:	2a01      	cmp	r2, #1
    8bae:	d053      	beq.n	8c58 <_dtoa_r+0x5a4>
    8bb0:	2300      	movs	r3, #0
    8bb2:	2200      	movs	r2, #0
    8bb4:	f2c4 0324 	movt	r3, #16420	; 0x4024
    8bb8:	f04f 0801 	mov.w	r8, #1
    8bbc:	f7fd fa20 	bl	6000 <__aeabi_dmul>
    8bc0:	2200      	movs	r2, #0
    8bc2:	2300      	movs	r3, #0
    8bc4:	e9cd 0104 	strd	r0, r1, [sp, #16]
    8bc8:	f7fd fc82 	bl	64d0 <__aeabi_dcmpeq>
    8bcc:	b100      	cbz	r0, 8bd0 <_dtoa_r+0x51c>
    8bce:	46b8      	mov	r8, r7
    8bd0:	f018 0fff 	tst.w	r8, #255	; 0xff
    8bd4:	d093      	beq.n	8afe <_dtoa_r+0x44a>
    8bd6:	f8dd 9034 	ldr.w	r9, [sp, #52]	; 0x34
    8bda:	4637      	mov	r7, r6
    8bdc:	f8cd a034 	str.w	sl, [sp, #52]	; 0x34
    8be0:	f04f 0801 	mov.w	r8, #1
    8be4:	9509      	str	r5, [sp, #36]	; 0x24
    8be6:	46a2      	mov	sl, r4
    8be8:	e00d      	b.n	8c06 <_dtoa_r+0x552>
    8bea:	f7fd fa09 	bl	6000 <__aeabi_dmul>
    8bee:	2200      	movs	r2, #0
    8bf0:	2300      	movs	r3, #0
    8bf2:	e9cd 0104 	strd	r0, r1, [sp, #16]
    8bf6:	f7fd fc6b 	bl	64d0 <__aeabi_dcmpeq>
    8bfa:	b100      	cbz	r0, 8bfe <_dtoa_r+0x54a>
    8bfc:	2400      	movs	r4, #0
    8bfe:	f014 0fff 	tst.w	r4, #255	; 0xff
    8c02:	f000 840d 	beq.w	9420 <_dtoa_r+0xd6c>
    8c06:	e9dd 2306 	ldrd	r2, r3, [sp, #24]
    8c0a:	f108 0801 	add.w	r8, r8, #1
    8c0e:	e9dd 0104 	ldrd	r0, r1, [sp, #16]
    8c12:	2401      	movs	r4, #1
    8c14:	f7fd fb1e 	bl	6254 <__aeabi_ddiv>
    8c18:	f003 f8d4 	bl	bdc4 <__aeabi_d2iz>
    8c1c:	4683      	mov	fp, r0
    8c1e:	f7fd f989 	bl	5f34 <__aeabi_i2d>
    8c22:	e9dd 2306 	ldrd	r2, r3, [sp, #24]
    8c26:	f10b 0530 	add.w	r5, fp, #48	; 0x30
    8c2a:	f7fd f9e9 	bl	6000 <__aeabi_dmul>
    8c2e:	4602      	mov	r2, r0
    8c30:	460b      	mov	r3, r1
    8c32:	e9dd 0104 	ldrd	r0, r1, [sp, #16]
    8c36:	f7fd f82f 	bl	5c98 <__aeabi_dsub>
    8c3a:	2300      	movs	r3, #0
    8c3c:	2200      	movs	r2, #0
    8c3e:	45c1      	cmp	r9, r8
    8c40:	f2c4 0324 	movt	r3, #16420	; 0x4024
    8c44:	e9cd 0104 	strd	r0, r1, [sp, #16]
    8c48:	f807 5b01 	strb.w	r5, [r7], #1
    8c4c:	463e      	mov	r6, r7
    8c4e:	d1cc      	bne.n	8bea <_dtoa_r+0x536>
    8c50:	4654      	mov	r4, sl
    8c52:	9d09      	ldr	r5, [sp, #36]	; 0x24
    8c54:	f8dd a034 	ldr.w	sl, [sp, #52]	; 0x34
    8c58:	e9dd 0104 	ldrd	r0, r1, [sp, #16]
    8c5c:	4602      	mov	r2, r0
    8c5e:	460b      	mov	r3, r1
    8c60:	f7fd f81c 	bl	5c9c <__adddf3>
    8c64:	4680      	mov	r8, r0
    8c66:	4689      	mov	r9, r1
    8c68:	4642      	mov	r2, r8
    8c6a:	e9dd 0106 	ldrd	r0, r1, [sp, #24]
    8c6e:	464b      	mov	r3, r9
    8c70:	f7fd fc38 	bl	64e4 <__aeabi_dcmplt>
    8c74:	b960      	cbnz	r0, 8c90 <_dtoa_r+0x5dc>
    8c76:	e9dd 0106 	ldrd	r0, r1, [sp, #24]
    8c7a:	4642      	mov	r2, r8
    8c7c:	464b      	mov	r3, r9
    8c7e:	f7fd fc27 	bl	64d0 <__aeabi_dcmpeq>
    8c82:	2800      	cmp	r0, #0
    8c84:	f43f af3b 	beq.w	8afe <_dtoa_r+0x44a>
    8c88:	f01b 0f01 	tst.w	fp, #1
    8c8c:	f43f af37 	beq.w	8afe <_dtoa_r+0x44a>
    8c90:	9519      	str	r5, [sp, #100]	; 0x64
    8c92:	980f      	ldr	r0, [sp, #60]	; 0x3c
    8c94:	4633      	mov	r3, r6
    8c96:	f813 1c01 	ldrb.w	r1, [r3, #-1]
    8c9a:	1e5a      	subs	r2, r3, #1
    8c9c:	461e      	mov	r6, r3
    8c9e:	4613      	mov	r3, r2
    8ca0:	2939      	cmp	r1, #57	; 0x39
    8ca2:	f040 83df 	bne.w	9464 <_dtoa_r+0xdb0>
    8ca6:	4298      	cmp	r0, r3
    8ca8:	d1f5      	bne.n	8c96 <_dtoa_r+0x5e2>
    8caa:	980f      	ldr	r0, [sp, #60]	; 0x3c
    8cac:	2330      	movs	r3, #48	; 0x30
    8cae:	9f19      	ldr	r7, [sp, #100]	; 0x64
    8cb0:	7003      	strb	r3, [r0, #0]
    8cb2:	1c7d      	adds	r5, r7, #1
    8cb4:	2331      	movs	r3, #49	; 0x31
    8cb6:	7013      	strb	r3, [r2, #0]
    8cb8:	e721      	b.n	8afe <_dtoa_r+0x44a>
    8cba:	2101      	movs	r1, #1
    8cbc:	9116      	str	r1, [sp, #88]	; 0x58
    8cbe:	e5ac      	b.n	881a <_dtoa_r+0x166>
    8cc0:	9914      	ldr	r1, [sp, #80]	; 0x50
    8cc2:	2900      	cmp	r1, #0
    8cc4:	f040 80c8 	bne.w	8e58 <_dtoa_r+0x7a4>
    8cc8:	9b14      	ldr	r3, [sp, #80]	; 0x50
    8cca:	465f      	mov	r7, fp
    8ccc:	9e12      	ldr	r6, [sp, #72]	; 0x48
    8cce:	930a      	str	r3, [sp, #40]	; 0x28
    8cd0:	2e00      	cmp	r6, #0
    8cd2:	980e      	ldr	r0, [sp, #56]	; 0x38
    8cd4:	bfd4      	ite	le
    8cd6:	2300      	movle	r3, #0
    8cd8:	2301      	movgt	r3, #1
    8cda:	2800      	cmp	r0, #0
    8cdc:	bfd4      	ite	le
    8cde:	2300      	movle	r3, #0
    8ce0:	f003 0301 	andgt.w	r3, r3, #1
    8ce4:	b14b      	cbz	r3, 8cfa <_dtoa_r+0x646>
    8ce6:	4603      	mov	r3, r0
    8ce8:	9912      	ldr	r1, [sp, #72]	; 0x48
    8cea:	42b3      	cmp	r3, r6
    8cec:	bfa8      	it	ge
    8cee:	4633      	movge	r3, r6
    8cf0:	1af6      	subs	r6, r6, r3
    8cf2:	1ac9      	subs	r1, r1, r3
    8cf4:	1ac0      	subs	r0, r0, r3
    8cf6:	9112      	str	r1, [sp, #72]	; 0x48
    8cf8:	900e      	str	r0, [sp, #56]	; 0x38
    8cfa:	f1bb 0f00 	cmp.w	fp, #0
    8cfe:	dd1c      	ble.n	8d3a <_dtoa_r+0x686>
    8d00:	9a14      	ldr	r2, [sp, #80]	; 0x50
    8d02:	2a00      	cmp	r2, #0
    8d04:	f000 8392 	beq.w	942c <_dtoa_r+0xd78>
    8d08:	2f00      	cmp	r7, #0
    8d0a:	dd12      	ble.n	8d32 <_dtoa_r+0x67e>
    8d0c:	990a      	ldr	r1, [sp, #40]	; 0x28
    8d0e:	463a      	mov	r2, r7
    8d10:	4620      	mov	r0, r4
    8d12:	f001 f96b 	bl	9fec <__pow5mult>
    8d16:	4652      	mov	r2, sl
    8d18:	900a      	str	r0, [sp, #40]	; 0x28
    8d1a:	4620      	mov	r0, r4
    8d1c:	990a      	ldr	r1, [sp, #40]	; 0x28
    8d1e:	f001 f8d1 	bl	9ec4 <__multiply>
    8d22:	4651      	mov	r1, sl
    8d24:	4603      	mov	r3, r0
    8d26:	4620      	mov	r0, r4
    8d28:	9303      	str	r3, [sp, #12]
    8d2a:	f000 ffc7 	bl	9cbc <_Bfree>
    8d2e:	9b03      	ldr	r3, [sp, #12]
    8d30:	469a      	mov	sl, r3
    8d32:	ebbb 0207 	subs.w	r2, fp, r7
    8d36:	f040 8380 	bne.w	943a <_dtoa_r+0xd86>
    8d3a:	2101      	movs	r1, #1
    8d3c:	4620      	mov	r0, r4
    8d3e:	f001 f8b7 	bl	9eb0 <__i2b>
    8d42:	9b15      	ldr	r3, [sp, #84]	; 0x54
    8d44:	2b00      	cmp	r3, #0
    8d46:	4683      	mov	fp, r0
    8d48:	dd05      	ble.n	8d56 <_dtoa_r+0x6a2>
    8d4a:	4659      	mov	r1, fp
    8d4c:	4620      	mov	r0, r4
    8d4e:	461a      	mov	r2, r3
    8d50:	f001 f94c 	bl	9fec <__pow5mult>
    8d54:	4683      	mov	fp, r0
    8d56:	9f28      	ldr	r7, [sp, #160]	; 0xa0
    8d58:	2f01      	cmp	r7, #1
    8d5a:	f340 8198 	ble.w	908e <_dtoa_r+0x9da>
    8d5e:	2700      	movs	r7, #0
    8d60:	9a15      	ldr	r2, [sp, #84]	; 0x54
    8d62:	2a00      	cmp	r2, #0
    8d64:	f040 82ee 	bne.w	9344 <_dtoa_r+0xc90>
    8d68:	2301      	movs	r3, #1
    8d6a:	980e      	ldr	r0, [sp, #56]	; 0x38
    8d6c:	181b      	adds	r3, r3, r0
    8d6e:	f013 031f 	ands.w	r3, r3, #31
    8d72:	f000 821b 	beq.w	91ac <_dtoa_r+0xaf8>
    8d76:	f1c3 0320 	rsb	r3, r3, #32
    8d7a:	2b04      	cmp	r3, #4
    8d7c:	f340 83f2 	ble.w	9564 <_dtoa_r+0xeb0>
    8d80:	3b04      	subs	r3, #4
    8d82:	9912      	ldr	r1, [sp, #72]	; 0x48
    8d84:	18f6      	adds	r6, r6, r3
    8d86:	18c0      	adds	r0, r0, r3
    8d88:	18c9      	adds	r1, r1, r3
    8d8a:	900e      	str	r0, [sp, #56]	; 0x38
    8d8c:	9112      	str	r1, [sp, #72]	; 0x48
    8d8e:	9912      	ldr	r1, [sp, #72]	; 0x48
    8d90:	2900      	cmp	r1, #0
    8d92:	dd05      	ble.n	8da0 <_dtoa_r+0x6ec>
    8d94:	4651      	mov	r1, sl
    8d96:	4620      	mov	r0, r4
    8d98:	9a12      	ldr	r2, [sp, #72]	; 0x48
    8d9a:	f001 f979 	bl	a090 <__lshift>
    8d9e:	4682      	mov	sl, r0
    8da0:	9a0e      	ldr	r2, [sp, #56]	; 0x38
    8da2:	2a00      	cmp	r2, #0
    8da4:	dd04      	ble.n	8db0 <_dtoa_r+0x6fc>
    8da6:	4659      	mov	r1, fp
    8da8:	4620      	mov	r0, r4
    8daa:	f001 f971 	bl	a090 <__lshift>
    8dae:	4683      	mov	fp, r0
    8db0:	9b16      	ldr	r3, [sp, #88]	; 0x58
    8db2:	2b00      	cmp	r3, #0
    8db4:	f040 82d0 	bne.w	9358 <_dtoa_r+0xca4>
    8db8:	9828      	ldr	r0, [sp, #160]	; 0xa0
    8dba:	990d      	ldr	r1, [sp, #52]	; 0x34
    8dbc:	2802      	cmp	r0, #2
    8dbe:	bfd4      	ite	le
    8dc0:	2300      	movle	r3, #0
    8dc2:	2301      	movgt	r3, #1
    8dc4:	2900      	cmp	r1, #0
    8dc6:	bfcc      	ite	gt
    8dc8:	2300      	movgt	r3, #0
    8dca:	f003 0301 	andle.w	r3, r3, #1
    8dce:	2b00      	cmp	r3, #0
    8dd0:	f000 8177 	beq.w	90c2 <_dtoa_r+0xa0e>
    8dd4:	2900      	cmp	r1, #0
    8dd6:	f47f ae79 	bne.w	8acc <_dtoa_r+0x418>
    8dda:	4659      	mov	r1, fp
    8ddc:	2205      	movs	r2, #5
    8dde:	9b0d      	ldr	r3, [sp, #52]	; 0x34
    8de0:	4620      	mov	r0, r4
    8de2:	f000 ff87 	bl	9cf4 <__multadd>
    8de6:	4683      	mov	fp, r0
    8de8:	4650      	mov	r0, sl
    8dea:	4659      	mov	r1, fp
    8dec:	f001 f9a6 	bl	a13c <__mcmp>
    8df0:	2800      	cmp	r0, #0
    8df2:	f77f ae6b 	ble.w	8acc <_dtoa_r+0x418>
    8df6:	9e0f      	ldr	r6, [sp, #60]	; 0x3c
    8df8:	2331      	movs	r3, #49	; 0x31
    8dfa:	3501      	adds	r5, #1
    8dfc:	2700      	movs	r7, #0
    8dfe:	f806 3b01 	strb.w	r3, [r6], #1
    8e02:	e667      	b.n	8ad4 <_dtoa_r+0x420>
    8e04:	2010      	movs	r0, #16
    8e06:	f000 fc0f 	bl	9628 <malloc>
    8e0a:	6260      	str	r0, [r4, #36]	; 0x24
    8e0c:	6045      	str	r5, [r0, #4]
    8e0e:	6085      	str	r5, [r0, #8]
    8e10:	6005      	str	r5, [r0, #0]
    8e12:	60c5      	str	r5, [r0, #12]
    8e14:	e466      	b.n	86e4 <_dtoa_r+0x30>
    8e16:	9912      	ldr	r1, [sp, #72]	; 0x48
    8e18:	2200      	movs	r2, #0
    8e1a:	f1c5 0b00 	rsb	fp, r5, #0
    8e1e:	9215      	str	r2, [sp, #84]	; 0x54
    8e20:	1b49      	subs	r1, r1, r5
    8e22:	9112      	str	r1, [sp, #72]	; 0x48
    8e24:	e509      	b.n	883a <_dtoa_r+0x186>
    8e26:	4276      	negs	r6, r6
    8e28:	2300      	movs	r3, #0
    8e2a:	9612      	str	r6, [sp, #72]	; 0x48
    8e2c:	930e      	str	r3, [sp, #56]	; 0x38
    8e2e:	e4fb      	b.n	8828 <_dtoa_r+0x174>
    8e30:	2200      	movs	r2, #0
    8e32:	9216      	str	r2, [sp, #88]	; 0x58
    8e34:	e4f1      	b.n	881a <_dtoa_r+0x166>
    8e36:	f24d 2330 	movw	r3, #53808	; 0xd230
    8e3a:	4640      	mov	r0, r8
    8e3c:	f2c0 0300 	movt	r3, #0
    8e40:	4649      	mov	r1, r9
    8e42:	f006 060f 	and.w	r6, r6, #15
    8e46:	f04f 0803 	mov.w	r8, #3
    8e4a:	e9d3 2308 	ldrd	r2, r3, [r3, #32]
    8e4e:	f7fd fa01 	bl	6254 <__aeabi_ddiv>
    8e52:	e9cd 010a 	strd	r0, r1, [sp, #40]	; 0x28
    8e56:	e59e      	b.n	8996 <_dtoa_r+0x2e2>
    8e58:	9a28      	ldr	r2, [sp, #160]	; 0xa0
    8e5a:	2a01      	cmp	r2, #1
    8e5c:	f340 82f3 	ble.w	9446 <_dtoa_r+0xd92>
    8e60:	980d      	ldr	r0, [sp, #52]	; 0x34
    8e62:	9a0d      	ldr	r2, [sp, #52]	; 0x34
    8e64:	1e43      	subs	r3, r0, #1
    8e66:	459b      	cmp	fp, r3
    8e68:	bfb7      	itett	lt
    8e6a:	ebcb 0303 	rsblt	r3, fp, r3
    8e6e:	ebc3 070b 	rsbge	r7, r3, fp
    8e72:	9915      	ldrlt	r1, [sp, #84]	; 0x54
    8e74:	449b      	addlt	fp, r3
    8e76:	bfbc      	itt	lt
    8e78:	18c9      	addlt	r1, r1, r3
    8e7a:	9115      	strlt	r1, [sp, #84]	; 0x54
    8e7c:	2a00      	cmp	r2, #0
    8e7e:	f2c0 82fb 	blt.w	9478 <_dtoa_r+0xdc4>
    8e82:	9e12      	ldr	r6, [sp, #72]	; 0x48
    8e84:	9b0d      	ldr	r3, [sp, #52]	; 0x34
    8e86:	9a12      	ldr	r2, [sp, #72]	; 0x48
    8e88:	4620      	mov	r0, r4
    8e8a:	2101      	movs	r1, #1
    8e8c:	18d2      	adds	r2, r2, r3
    8e8e:	9212      	str	r2, [sp, #72]	; 0x48
    8e90:	9a0e      	ldr	r2, [sp, #56]	; 0x38
    8e92:	18d2      	adds	r2, r2, r3
    8e94:	920e      	str	r2, [sp, #56]	; 0x38
    8e96:	f001 f80b 	bl	9eb0 <__i2b>
    8e9a:	900a      	str	r0, [sp, #40]	; 0x28
    8e9c:	e718      	b.n	8cd0 <_dtoa_r+0x61c>
    8e9e:	9b0d      	ldr	r3, [sp, #52]	; 0x34
    8ea0:	2b00      	cmp	r3, #0
    8ea2:	f040 82d9 	bne.w	9458 <_dtoa_r+0xda4>
    8ea6:	2300      	movs	r3, #0
    8ea8:	2200      	movs	r2, #0
    8eaa:	f2c4 0314 	movt	r3, #16404	; 0x4014
    8eae:	e9dd 0106 	ldrd	r0, r1, [sp, #24]
    8eb2:	f7fd f8a5 	bl	6000 <__aeabi_dmul>
    8eb6:	4642      	mov	r2, r8
    8eb8:	464b      	mov	r3, r9
    8eba:	f7fd fb27 	bl	650c <__aeabi_dcmpge>
    8ebe:	2800      	cmp	r0, #0
    8ec0:	f47f ae00 	bne.w	8ac4 <_dtoa_r+0x410>
    8ec4:	f8dd b034 	ldr.w	fp, [sp, #52]	; 0x34
    8ec8:	f8cd b028 	str.w	fp, [sp, #40]	; 0x28
    8ecc:	e793      	b.n	8df6 <_dtoa_r+0x742>
    8ece:	f8dd 9034 	ldr.w	r9, [sp, #52]	; 0x34
    8ed2:	9519      	str	r5, [sp, #100]	; 0x64
    8ed4:	9914      	ldr	r1, [sp, #80]	; 0x50
    8ed6:	2900      	cmp	r1, #0
    8ed8:	f000 81ad 	beq.w	9236 <_dtoa_r+0xb82>
    8edc:	f24d 1368 	movw	r3, #53608	; 0xd168
    8ee0:	2100      	movs	r1, #0
    8ee2:	f2c0 0300 	movt	r3, #0
    8ee6:	2000      	movs	r0, #0
    8ee8:	eb03 03c9 	add.w	r3, r3, r9, lsl #3
    8eec:	f6c3 71e0 	movt	r1, #16352	; 0x3fe0
    8ef0:	9e0f      	ldr	r6, [sp, #60]	; 0x3c
    8ef2:	e953 2302 	ldrd	r2, r3, [r3, #-8]
    8ef6:	f7fd f9ad 	bl	6254 <__aeabi_ddiv>
    8efa:	e9dd 2310 	ldrd	r2, r3, [sp, #64]	; 0x40
    8efe:	f7fc fecb 	bl	5c98 <__aeabi_dsub>
    8f02:	e9cd 0110 	strd	r0, r1, [sp, #64]	; 0x40
    8f06:	e9dd 010a 	ldrd	r0, r1, [sp, #40]	; 0x28
    8f0a:	f002 ff5b 	bl	bdc4 <__aeabi_d2iz>
    8f0e:	4607      	mov	r7, r0
    8f10:	f7fd f810 	bl	5f34 <__aeabi_i2d>
    8f14:	4602      	mov	r2, r0
    8f16:	460b      	mov	r3, r1
    8f18:	e9dd 010a 	ldrd	r0, r1, [sp, #40]	; 0x28
    8f1c:	f7fc febc 	bl	5c98 <__aeabi_dsub>
    8f20:	f107 0330 	add.w	r3, r7, #48	; 0x30
    8f24:	e9cd 010a 	strd	r0, r1, [sp, #40]	; 0x28
    8f28:	e9dd 0110 	ldrd	r0, r1, [sp, #64]	; 0x40
    8f2c:	f806 3b01 	strb.w	r3, [r6], #1
    8f30:	e9dd 230a 	ldrd	r2, r3, [sp, #40]	; 0x28
    8f34:	f7fd faf4 	bl	6520 <__aeabi_dcmpgt>
    8f38:	2800      	cmp	r0, #0
    8f3a:	f040 81fd 	bne.w	9338 <_dtoa_r+0xc84>
    8f3e:	2100      	movs	r1, #0
    8f40:	e9dd 230a 	ldrd	r2, r3, [sp, #40]	; 0x28
    8f44:	2000      	movs	r0, #0
    8f46:	f6c3 71f0 	movt	r1, #16368	; 0x3ff0
    8f4a:	f7fc fea5 	bl	5c98 <__aeabi_dsub>
    8f4e:	4602      	mov	r2, r0
    8f50:	460b      	mov	r3, r1
    8f52:	e9dd 0110 	ldrd	r0, r1, [sp, #64]	; 0x40
    8f56:	f7fd fae3 	bl	6520 <__aeabi_dcmpgt>
    8f5a:	2800      	cmp	r0, #0
    8f5c:	f47f ae99 	bne.w	8c92 <_dtoa_r+0x5de>
    8f60:	f1b9 0f01 	cmp.w	r9, #1
    8f64:	f77f ade1 	ble.w	8b2a <_dtoa_r+0x476>
    8f68:	f8cd b068 	str.w	fp, [sp, #104]	; 0x68
    8f6c:	4637      	mov	r7, r6
    8f6e:	951b      	str	r5, [sp, #108]	; 0x6c
    8f70:	f04f 0801 	mov.w	r8, #1
    8f74:	f8cd a060 	str.w	sl, [sp, #96]	; 0x60
    8f78:	e9dd ab0a 	ldrd	sl, fp, [sp, #40]	; 0x28
    8f7c:	940a      	str	r4, [sp, #40]	; 0x28
    8f7e:	e9dd 4510 	ldrd	r4, r5, [sp, #64]	; 0x40
    8f82:	e00f      	b.n	8fa4 <_dtoa_r+0x8f0>
    8f84:	2100      	movs	r1, #0
    8f86:	2000      	movs	r0, #0
    8f88:	f6c3 71f0 	movt	r1, #16368	; 0x3ff0
    8f8c:	f7fc fe84 	bl	5c98 <__aeabi_dsub>
    8f90:	4622      	mov	r2, r4
    8f92:	462b      	mov	r3, r5
    8f94:	f7fd faa6 	bl	64e4 <__aeabi_dcmplt>
    8f98:	2800      	cmp	r0, #0
    8f9a:	f040 8269 	bne.w	9470 <_dtoa_r+0xdbc>
    8f9e:	45c8      	cmp	r8, r9
    8fa0:	f6bf adbd 	bge.w	8b1e <_dtoa_r+0x46a>
    8fa4:	2300      	movs	r3, #0
    8fa6:	2200      	movs	r2, #0
    8fa8:	f2c4 0324 	movt	r3, #16420	; 0x4024
    8fac:	4620      	mov	r0, r4
    8fae:	4629      	mov	r1, r5
    8fb0:	f108 0801 	add.w	r8, r8, #1
    8fb4:	f7fd f824 	bl	6000 <__aeabi_dmul>
    8fb8:	2300      	movs	r3, #0
    8fba:	2200      	movs	r2, #0
    8fbc:	f2c4 0324 	movt	r3, #16420	; 0x4024
    8fc0:	4604      	mov	r4, r0
    8fc2:	460d      	mov	r5, r1
    8fc4:	4650      	mov	r0, sl
    8fc6:	4659      	mov	r1, fp
    8fc8:	f7fd f81a 	bl	6000 <__aeabi_dmul>
    8fcc:	468b      	mov	fp, r1
    8fce:	4682      	mov	sl, r0
    8fd0:	f002 fef8 	bl	bdc4 <__aeabi_d2iz>
    8fd4:	4606      	mov	r6, r0
    8fd6:	f7fc ffad 	bl	5f34 <__aeabi_i2d>
    8fda:	3630      	adds	r6, #48	; 0x30
    8fdc:	4602      	mov	r2, r0
    8fde:	460b      	mov	r3, r1
    8fe0:	4650      	mov	r0, sl
    8fe2:	4659      	mov	r1, fp
    8fe4:	f7fc fe58 	bl	5c98 <__aeabi_dsub>
    8fe8:	4622      	mov	r2, r4
    8fea:	462b      	mov	r3, r5
    8fec:	f807 6b01 	strb.w	r6, [r7], #1
    8ff0:	463e      	mov	r6, r7
    8ff2:	4682      	mov	sl, r0
    8ff4:	468b      	mov	fp, r1
    8ff6:	f7fd fa75 	bl	64e4 <__aeabi_dcmplt>
    8ffa:	4652      	mov	r2, sl
    8ffc:	465b      	mov	r3, fp
    8ffe:	2800      	cmp	r0, #0
    9000:	d0c0      	beq.n	8f84 <_dtoa_r+0x8d0>
    9002:	f8dd a060 	ldr.w	sl, [sp, #96]	; 0x60
    9006:	9c0a      	ldr	r4, [sp, #40]	; 0x28
    9008:	9d19      	ldr	r5, [sp, #100]	; 0x64
    900a:	e578      	b.n	8afe <_dtoa_r+0x44a>
    900c:	2600      	movs	r6, #0
    900e:	e4f2      	b.n	89f6 <_dtoa_r+0x342>
    9010:	2301      	movs	r3, #1
    9012:	9314      	str	r3, [sp, #80]	; 0x50
    9014:	9929      	ldr	r1, [sp, #164]	; 0xa4
    9016:	2900      	cmp	r1, #0
    9018:	bfc2      	ittt	gt
    901a:	4608      	movgt	r0, r1
    901c:	9113      	strgt	r1, [sp, #76]	; 0x4c
    901e:	900d      	strgt	r0, [sp, #52]	; 0x34
    9020:	f340 81b0 	ble.w	9384 <_dtoa_r+0xcd0>
    9024:	6a66      	ldr	r6, [r4, #36]	; 0x24
    9026:	2200      	movs	r2, #0
    9028:	2817      	cmp	r0, #23
    902a:	6072      	str	r2, [r6, #4]
    902c:	f240 829e 	bls.w	956c <_dtoa_r+0xeb8>
    9030:	2304      	movs	r3, #4
    9032:	005b      	lsls	r3, r3, #1
    9034:	3201      	adds	r2, #1
    9036:	f103 0114 	add.w	r1, r3, #20
    903a:	4281      	cmp	r1, r0
    903c:	d9f9      	bls.n	9032 <_dtoa_r+0x97e>
    903e:	9b0d      	ldr	r3, [sp, #52]	; 0x34
    9040:	6072      	str	r2, [r6, #4]
    9042:	2b0e      	cmp	r3, #14
    9044:	bf8c      	ite	hi
    9046:	2700      	movhi	r7, #0
    9048:	f007 0701 	andls.w	r7, r7, #1
    904c:	e47b      	b.n	8946 <_dtoa_r+0x292>
    904e:	2300      	movs	r3, #0
    9050:	9314      	str	r3, [sp, #80]	; 0x50
    9052:	9829      	ldr	r0, [sp, #164]	; 0xa4
    9054:	1828      	adds	r0, r5, r0
    9056:	9013      	str	r0, [sp, #76]	; 0x4c
    9058:	3001      	adds	r0, #1
    905a:	2800      	cmp	r0, #0
    905c:	bfc8      	it	gt
    905e:	900d      	strgt	r0, [sp, #52]	; 0x34
    9060:	dce0      	bgt.n	9024 <_dtoa_r+0x970>
    9062:	280e      	cmp	r0, #14
    9064:	bf8c      	ite	hi
    9066:	2700      	movhi	r7, #0
    9068:	f007 0701 	andls.w	r7, r7, #1
    906c:	900d      	str	r0, [sp, #52]	; 0x34
    906e:	e467      	b.n	8940 <_dtoa_r+0x28c>
    9070:	2000      	movs	r0, #0
    9072:	9014      	str	r0, [sp, #80]	; 0x50
    9074:	e7ce      	b.n	9014 <_dtoa_r+0x960>
    9076:	2201      	movs	r2, #1
    9078:	9214      	str	r2, [sp, #80]	; 0x50
    907a:	e7ea      	b.n	9052 <_dtoa_r+0x99e>
    907c:	f04f 33ff 	mov.w	r3, #4294967295
    9080:	2700      	movs	r7, #0
    9082:	2001      	movs	r0, #1
    9084:	9313      	str	r3, [sp, #76]	; 0x4c
    9086:	9014      	str	r0, [sp, #80]	; 0x50
    9088:	930d      	str	r3, [sp, #52]	; 0x34
    908a:	9729      	str	r7, [sp, #164]	; 0xa4
    908c:	e458      	b.n	8940 <_dtoa_r+0x28c>
    908e:	f1b8 0f00 	cmp.w	r8, #0
    9092:	f47f ae64 	bne.w	8d5e <_dtoa_r+0x6aa>
    9096:	f3c9 0313 	ubfx	r3, r9, #0, #20
    909a:	4647      	mov	r7, r8
    909c:	2b00      	cmp	r3, #0
    909e:	f47f ae5f 	bne.w	8d60 <_dtoa_r+0x6ac>
    90a2:	f6c7 73f0 	movt	r3, #32752	; 0x7ff0
    90a6:	ea09 0303 	and.w	r3, r9, r3
    90aa:	461f      	mov	r7, r3
    90ac:	2b00      	cmp	r3, #0
    90ae:	f43f ae57 	beq.w	8d60 <_dtoa_r+0x6ac>
    90b2:	9812      	ldr	r0, [sp, #72]	; 0x48
    90b4:	2701      	movs	r7, #1
    90b6:	990e      	ldr	r1, [sp, #56]	; 0x38
    90b8:	3001      	adds	r0, #1
    90ba:	9012      	str	r0, [sp, #72]	; 0x48
    90bc:	3101      	adds	r1, #1
    90be:	910e      	str	r1, [sp, #56]	; 0x38
    90c0:	e64e      	b.n	8d60 <_dtoa_r+0x6ac>
    90c2:	9b14      	ldr	r3, [sp, #80]	; 0x50
    90c4:	2b00      	cmp	r3, #0
    90c6:	f000 8163 	beq.w	9390 <_dtoa_r+0xcdc>
    90ca:	2e00      	cmp	r6, #0
    90cc:	dd05      	ble.n	90da <_dtoa_r+0xa26>
    90ce:	4620      	mov	r0, r4
    90d0:	990a      	ldr	r1, [sp, #40]	; 0x28
    90d2:	4632      	mov	r2, r6
    90d4:	f000 ffdc 	bl	a090 <__lshift>
    90d8:	900a      	str	r0, [sp, #40]	; 0x28
    90da:	2f00      	cmp	r7, #0
    90dc:	f040 81f0 	bne.w	94c0 <_dtoa_r+0xe0c>
    90e0:	980a      	ldr	r0, [sp, #40]	; 0x28
    90e2:	9004      	str	r0, [sp, #16]
    90e4:	9e0f      	ldr	r6, [sp, #60]	; 0x3c
    90e6:	f008 0101 	and.w	r1, r8, #1
    90ea:	9f0a      	ldr	r7, [sp, #40]	; 0x28
    90ec:	910e      	str	r1, [sp, #56]	; 0x38
    90ee:	950a      	str	r5, [sp, #40]	; 0x28
    90f0:	4659      	mov	r1, fp
    90f2:	4650      	mov	r0, sl
    90f4:	f7ff fa48 	bl	8588 <quorem>
    90f8:	4639      	mov	r1, r7
    90fa:	f04f 0901 	mov.w	r9, #1
    90fe:	3030      	adds	r0, #48	; 0x30
    9100:	9009      	str	r0, [sp, #36]	; 0x24
    9102:	4650      	mov	r0, sl
    9104:	f001 f81a 	bl	a13c <__mcmp>
    9108:	4659      	mov	r1, fp
    910a:	9a04      	ldr	r2, [sp, #16]
    910c:	4605      	mov	r5, r0
    910e:	4620      	mov	r0, r4
    9110:	f001 f832 	bl	a178 <__mdiff>
    9114:	68c3      	ldr	r3, [r0, #12]
    9116:	4680      	mov	r8, r0
    9118:	2b00      	cmp	r3, #0
    911a:	d03c      	beq.n	9196 <_dtoa_r+0xae2>
    911c:	4620      	mov	r0, r4
    911e:	4641      	mov	r1, r8
    9120:	f000 fdcc 	bl	9cbc <_Bfree>
    9124:	9a28      	ldr	r2, [sp, #160]	; 0xa0
    9126:	ea59 0202 	orrs.w	r2, r9, r2
    912a:	d103      	bne.n	9134 <_dtoa_r+0xa80>
    912c:	9b0e      	ldr	r3, [sp, #56]	; 0x38
    912e:	2b00      	cmp	r3, #0
    9130:	f000 81f8 	beq.w	9524 <_dtoa_r+0xe70>
    9134:	2d00      	cmp	r5, #0
    9136:	f2c0 81a3 	blt.w	9480 <_dtoa_r+0xdcc>
    913a:	9b28      	ldr	r3, [sp, #160]	; 0xa0
    913c:	432b      	orrs	r3, r5
    913e:	d103      	bne.n	9148 <_dtoa_r+0xa94>
    9140:	980e      	ldr	r0, [sp, #56]	; 0x38
    9142:	2800      	cmp	r0, #0
    9144:	f000 819c 	beq.w	9480 <_dtoa_r+0xdcc>
    9148:	f1b9 0f00 	cmp.w	r9, #0
    914c:	f300 81d7 	bgt.w	94fe <_dtoa_r+0xe4a>
    9150:	9a09      	ldr	r2, [sp, #36]	; 0x24
    9152:	f806 2b01 	strb.w	r2, [r6], #1
    9156:	46b0      	mov	r8, r6
    9158:	980f      	ldr	r0, [sp, #60]	; 0x3c
    915a:	990d      	ldr	r1, [sp, #52]	; 0x34
    915c:	1a33      	subs	r3, r6, r0
    915e:	428b      	cmp	r3, r1
    9160:	f000 81c9 	beq.w	94f6 <_dtoa_r+0xe42>
    9164:	220a      	movs	r2, #10
    9166:	4651      	mov	r1, sl
    9168:	2300      	movs	r3, #0
    916a:	4620      	mov	r0, r4
    916c:	f000 fdc2 	bl	9cf4 <__multadd>
    9170:	9a04      	ldr	r2, [sp, #16]
    9172:	4297      	cmp	r7, r2
    9174:	4682      	mov	sl, r0
    9176:	d022      	beq.n	91be <_dtoa_r+0xb0a>
    9178:	4639      	mov	r1, r7
    917a:	220a      	movs	r2, #10
    917c:	2300      	movs	r3, #0
    917e:	4620      	mov	r0, r4
    9180:	f000 fdb8 	bl	9cf4 <__multadd>
    9184:	9904      	ldr	r1, [sp, #16]
    9186:	220a      	movs	r2, #10
    9188:	2300      	movs	r3, #0
    918a:	4607      	mov	r7, r0
    918c:	4620      	mov	r0, r4
    918e:	f000 fdb1 	bl	9cf4 <__multadd>
    9192:	9004      	str	r0, [sp, #16]
    9194:	e7ac      	b.n	90f0 <_dtoa_r+0xa3c>
    9196:	4650      	mov	r0, sl
    9198:	4641      	mov	r1, r8
    919a:	f000 ffcf 	bl	a13c <__mcmp>
    919e:	4681      	mov	r9, r0
    91a0:	e7bc      	b.n	911c <_dtoa_r+0xa68>
    91a2:	4620      	mov	r0, r4
    91a4:	4639      	mov	r1, r7
    91a6:	f000 fd89 	bl	9cbc <_Bfree>
    91aa:	e4a4      	b.n	8af6 <_dtoa_r+0x442>
    91ac:	231c      	movs	r3, #28
    91ae:	9a12      	ldr	r2, [sp, #72]	; 0x48
    91b0:	18f6      	adds	r6, r6, r3
    91b2:	980e      	ldr	r0, [sp, #56]	; 0x38
    91b4:	18d2      	adds	r2, r2, r3
    91b6:	9212      	str	r2, [sp, #72]	; 0x48
    91b8:	18c0      	adds	r0, r0, r3
    91ba:	900e      	str	r0, [sp, #56]	; 0x38
    91bc:	e5e7      	b.n	8d8e <_dtoa_r+0x6da>
    91be:	4639      	mov	r1, r7
    91c0:	4620      	mov	r0, r4
    91c2:	220a      	movs	r2, #10
    91c4:	2300      	movs	r3, #0
    91c6:	f000 fd95 	bl	9cf4 <__multadd>
    91ca:	4607      	mov	r7, r0
    91cc:	9004      	str	r0, [sp, #16]
    91ce:	e78f      	b.n	90f0 <_dtoa_r+0xa3c>
    91d0:	426e      	negs	r6, r5
    91d2:	2e00      	cmp	r6, #0
    91d4:	f000 8120 	beq.w	9418 <_dtoa_r+0xd64>
    91d8:	f006 030f 	and.w	r3, r6, #15
    91dc:	f24d 1268 	movw	r2, #53608	; 0xd168
    91e0:	f2c0 0200 	movt	r2, #0
    91e4:	e9dd 010a 	ldrd	r0, r1, [sp, #40]	; 0x28
    91e8:	eb02 03c3 	add.w	r3, r2, r3, lsl #3
    91ec:	e9d3 2300 	ldrd	r2, r3, [r3]
    91f0:	f7fc ff06 	bl	6000 <__aeabi_dmul>
    91f4:	1136      	asrs	r6, r6, #4
    91f6:	e9cd 010a 	strd	r0, r1, [sp, #40]	; 0x28
    91fa:	f000 810d 	beq.w	9418 <_dtoa_r+0xd64>
    91fe:	f24d 2730 	movw	r7, #53808	; 0xd230
    9202:	f04f 0802 	mov.w	r8, #2
    9206:	f2c0 0700 	movt	r7, #0
    920a:	4602      	mov	r2, r0
    920c:	460b      	mov	r3, r1
    920e:	f016 0f01 	tst.w	r6, #1
    9212:	4610      	mov	r0, r2
    9214:	4619      	mov	r1, r3
    9216:	d007      	beq.n	9228 <_dtoa_r+0xb74>
    9218:	e9d7 2300 	ldrd	r2, r3, [r7]
    921c:	f108 0801 	add.w	r8, r8, #1
    9220:	f7fc feee 	bl	6000 <__aeabi_dmul>
    9224:	4602      	mov	r2, r0
    9226:	460b      	mov	r3, r1
    9228:	3708      	adds	r7, #8
    922a:	1076      	asrs	r6, r6, #1
    922c:	d1ef      	bne.n	920e <_dtoa_r+0xb5a>
    922e:	e9cd 230a 	strd	r2, r3, [sp, #40]	; 0x28
    9232:	f7ff bbd1 	b.w	89d8 <_dtoa_r+0x324>
    9236:	f109 32ff 	add.w	r2, r9, #4294967295
    923a:	9218      	str	r2, [sp, #96]	; 0x60
    923c:	9f18      	ldr	r7, [sp, #96]	; 0x60
    923e:	f24d 1168 	movw	r1, #53608	; 0xd168
    9242:	f2c0 0100 	movt	r1, #0
    9246:	e9dd 2310 	ldrd	r2, r3, [sp, #64]	; 0x40
    924a:	9e0f      	ldr	r6, [sp, #60]	; 0x3c
    924c:	eb01 01c7 	add.w	r1, r1, r7, lsl #3
    9250:	e9d1 0100 	ldrd	r0, r1, [r1]
    9254:	f7fc fed4 	bl	6000 <__aeabi_dmul>
    9258:	e9cd 0110 	strd	r0, r1, [sp, #64]	; 0x40
    925c:	e9dd 010a 	ldrd	r0, r1, [sp, #40]	; 0x28
    9260:	f002 fdb0 	bl	bdc4 <__aeabi_d2iz>
    9264:	4607      	mov	r7, r0
    9266:	f7fc fe65 	bl	5f34 <__aeabi_i2d>
    926a:	460b      	mov	r3, r1
    926c:	4602      	mov	r2, r0
    926e:	e9dd 010a 	ldrd	r0, r1, [sp, #40]	; 0x28
    9272:	f7fc fd11 	bl	5c98 <__aeabi_dsub>
    9276:	f1b9 0f01 	cmp.w	r9, #1
    927a:	f107 0330 	add.w	r3, r7, #48	; 0x30
    927e:	e9cd 010a 	strd	r0, r1, [sp, #40]	; 0x28
    9282:	f806 3b01 	strb.w	r3, [r6], #1
    9286:	d02e      	beq.n	92e6 <_dtoa_r+0xc32>
    9288:	980f      	ldr	r0, [sp, #60]	; 0x3c
    928a:	f8cd b068 	str.w	fp, [sp, #104]	; 0x68
    928e:	46d3      	mov	fp, sl
    9290:	1e43      	subs	r3, r0, #1
    9292:	4607      	mov	r7, r0
    9294:	4499      	add	r9, r3
    9296:	e9dd 010a 	ldrd	r0, r1, [sp, #40]	; 0x28
    929a:	951b      	str	r5, [sp, #108]	; 0x6c
    929c:	46b2      	mov	sl, r6
    929e:	464d      	mov	r5, r9
    92a0:	4626      	mov	r6, r4
    92a2:	2300      	movs	r3, #0
    92a4:	2200      	movs	r2, #0
    92a6:	f2c4 0324 	movt	r3, #16420	; 0x4024
    92aa:	f7fc fea9 	bl	6000 <__aeabi_dmul>
    92ae:	4689      	mov	r9, r1
    92b0:	4680      	mov	r8, r0
    92b2:	f002 fd87 	bl	bdc4 <__aeabi_d2iz>
    92b6:	4604      	mov	r4, r0
    92b8:	f7fc fe3c 	bl	5f34 <__aeabi_i2d>
    92bc:	3430      	adds	r4, #48	; 0x30
    92be:	4602      	mov	r2, r0
    92c0:	460b      	mov	r3, r1
    92c2:	4640      	mov	r0, r8
    92c4:	4649      	mov	r1, r9
    92c6:	f7fc fce7 	bl	5c98 <__aeabi_dsub>
    92ca:	f807 4f01 	strb.w	r4, [r7, #1]!
    92ce:	42af      	cmp	r7, r5
    92d0:	d1e7      	bne.n	92a2 <_dtoa_r+0xbee>
    92d2:	e9cd 010a 	strd	r0, r1, [sp, #40]	; 0x28
    92d6:	4634      	mov	r4, r6
    92d8:	9918      	ldr	r1, [sp, #96]	; 0x60
    92da:	4656      	mov	r6, sl
    92dc:	9d1b      	ldr	r5, [sp, #108]	; 0x6c
    92de:	46da      	mov	sl, fp
    92e0:	f8dd b068 	ldr.w	fp, [sp, #104]	; 0x68
    92e4:	1876      	adds	r6, r6, r1
    92e6:	2300      	movs	r3, #0
    92e8:	2200      	movs	r2, #0
    92ea:	f6c3 73e0 	movt	r3, #16352	; 0x3fe0
    92ee:	e9dd 0110 	ldrd	r0, r1, [sp, #64]	; 0x40
    92f2:	f7fc fcd3 	bl	5c9c <__adddf3>
    92f6:	4602      	mov	r2, r0
    92f8:	460b      	mov	r3, r1
    92fa:	e9dd 010a 	ldrd	r0, r1, [sp, #40]	; 0x28
    92fe:	f7fd f90f 	bl	6520 <__aeabi_dcmpgt>
    9302:	2800      	cmp	r0, #0
    9304:	f47f acc5 	bne.w	8c92 <_dtoa_r+0x5de>
    9308:	2100      	movs	r1, #0
    930a:	e9dd 2310 	ldrd	r2, r3, [sp, #64]	; 0x40
    930e:	2000      	movs	r0, #0
    9310:	f6c3 71e0 	movt	r1, #16352	; 0x3fe0
    9314:	f7fc fcc0 	bl	5c98 <__aeabi_dsub>
    9318:	4602      	mov	r2, r0
    931a:	460b      	mov	r3, r1
    931c:	e9dd 010a 	ldrd	r0, r1, [sp, #40]	; 0x28
    9320:	f7fd f8e0 	bl	64e4 <__aeabi_dcmplt>
    9324:	2800      	cmp	r0, #0
    9326:	f43f ac00 	beq.w	8b2a <_dtoa_r+0x476>
    932a:	4633      	mov	r3, r6
    932c:	461e      	mov	r6, r3
    932e:	3b01      	subs	r3, #1
    9330:	f816 2c01 	ldrb.w	r2, [r6, #-1]
    9334:	2a30      	cmp	r2, #48	; 0x30
    9336:	d0f9      	beq.n	932c <_dtoa_r+0xc78>
    9338:	9d19      	ldr	r5, [sp, #100]	; 0x64
    933a:	f7ff bbe0 	b.w	8afe <_dtoa_r+0x44a>
    933e:	980f      	ldr	r0, [sp, #60]	; 0x3c
    9340:	f7ff b9f9 	b.w	8736 <_dtoa_r+0x82>
    9344:	f8db 3010 	ldr.w	r3, [fp, #16]
    9348:	eb0b 0383 	add.w	r3, fp, r3, lsl #2
    934c:	6918      	ldr	r0, [r3, #16]
    934e:	f000 fd5d 	bl	9e0c <__hi0bits>
    9352:	f1c0 0320 	rsb	r3, r0, #32
    9356:	e508      	b.n	8d6a <_dtoa_r+0x6b6>
    9358:	4650      	mov	r0, sl
    935a:	4659      	mov	r1, fp
    935c:	f000 feee 	bl	a13c <__mcmp>
    9360:	2800      	cmp	r0, #0
    9362:	f6bf ad29 	bge.w	8db8 <_dtoa_r+0x704>
    9366:	4651      	mov	r1, sl
    9368:	4620      	mov	r0, r4
    936a:	220a      	movs	r2, #10
    936c:	2300      	movs	r3, #0
    936e:	f000 fcc1 	bl	9cf4 <__multadd>
    9372:	3d01      	subs	r5, #1
    9374:	4682      	mov	sl, r0
    9376:	9814      	ldr	r0, [sp, #80]	; 0x50
    9378:	2800      	cmp	r0, #0
    937a:	f040 80e9 	bne.w	9550 <_dtoa_r+0xe9c>
    937e:	9a13      	ldr	r2, [sp, #76]	; 0x4c
    9380:	920d      	str	r2, [sp, #52]	; 0x34
    9382:	e519      	b.n	8db8 <_dtoa_r+0x704>
    9384:	2201      	movs	r2, #1
    9386:	9213      	str	r2, [sp, #76]	; 0x4c
    9388:	920d      	str	r2, [sp, #52]	; 0x34
    938a:	9229      	str	r2, [sp, #164]	; 0xa4
    938c:	f7ff bad8 	b.w	8940 <_dtoa_r+0x28c>
    9390:	9e0f      	ldr	r6, [sp, #60]	; 0x3c
    9392:	2701      	movs	r7, #1
    9394:	f8dd 9034 	ldr.w	r9, [sp, #52]	; 0x34
    9398:	9504      	str	r5, [sp, #16]
    939a:	e002      	b.n	93a2 <_dtoa_r+0xcee>
    939c:	f000 fcaa 	bl	9cf4 <__multadd>
    93a0:	4682      	mov	sl, r0
    93a2:	4659      	mov	r1, fp
    93a4:	4650      	mov	r0, sl
    93a6:	f7ff f8ef 	bl	8588 <quorem>
    93aa:	220a      	movs	r2, #10
    93ac:	2300      	movs	r3, #0
    93ae:	454f      	cmp	r7, r9
    93b0:	4651      	mov	r1, sl
    93b2:	f107 0701 	add.w	r7, r7, #1
    93b6:	f100 0530 	add.w	r5, r0, #48	; 0x30
    93ba:	4620      	mov	r0, r4
    93bc:	f806 5b01 	strb.w	r5, [r6], #1
    93c0:	46b0      	mov	r8, r6
    93c2:	dbeb      	blt.n	939c <_dtoa_r+0xce8>
    93c4:	9509      	str	r5, [sp, #36]	; 0x24
    93c6:	2700      	movs	r7, #0
    93c8:	9d04      	ldr	r5, [sp, #16]
    93ca:	4651      	mov	r1, sl
    93cc:	2201      	movs	r2, #1
    93ce:	4620      	mov	r0, r4
    93d0:	f000 fe5e 	bl	a090 <__lshift>
    93d4:	4659      	mov	r1, fp
    93d6:	4682      	mov	sl, r0
    93d8:	f000 feb0 	bl	a13c <__mcmp>
    93dc:	2800      	cmp	r0, #0
    93de:	dd0f      	ble.n	9400 <_dtoa_r+0xd4c>
    93e0:	9a0f      	ldr	r2, [sp, #60]	; 0x3c
    93e2:	4646      	mov	r6, r8
    93e4:	f108 38ff 	add.w	r8, r8, #4294967295
    93e8:	f816 3c01 	ldrb.w	r3, [r6, #-1]
    93ec:	2b39      	cmp	r3, #57	; 0x39
    93ee:	d162      	bne.n	94b6 <_dtoa_r+0xe02>
    93f0:	4542      	cmp	r2, r8
    93f2:	d1f6      	bne.n	93e2 <_dtoa_r+0xd2e>
    93f4:	990f      	ldr	r1, [sp, #60]	; 0x3c
    93f6:	2331      	movs	r3, #49	; 0x31
    93f8:	3501      	adds	r5, #1
    93fa:	700b      	strb	r3, [r1, #0]
    93fc:	f7ff bb6a 	b.w	8ad4 <_dtoa_r+0x420>
    9400:	d103      	bne.n	940a <_dtoa_r+0xd56>
    9402:	9809      	ldr	r0, [sp, #36]	; 0x24
    9404:	f010 0f01 	tst.w	r0, #1
    9408:	d1ea      	bne.n	93e0 <_dtoa_r+0xd2c>
    940a:	4646      	mov	r6, r8
    940c:	f818 3d01 	ldrb.w	r3, [r8, #-1]!
    9410:	2b30      	cmp	r3, #48	; 0x30
    9412:	d0fa      	beq.n	940a <_dtoa_r+0xd56>
    9414:	f7ff bb5e 	b.w	8ad4 <_dtoa_r+0x420>
    9418:	f04f 0802 	mov.w	r8, #2
    941c:	f7ff badc 	b.w	89d8 <_dtoa_r+0x324>
    9420:	4654      	mov	r4, sl
    9422:	9d09      	ldr	r5, [sp, #36]	; 0x24
    9424:	f8dd a034 	ldr.w	sl, [sp, #52]	; 0x34
    9428:	f7ff bb69 	b.w	8afe <_dtoa_r+0x44a>
    942c:	4651      	mov	r1, sl
    942e:	4620      	mov	r0, r4
    9430:	465a      	mov	r2, fp
    9432:	f000 fddb 	bl	9fec <__pow5mult>
    9436:	4682      	mov	sl, r0
    9438:	e47f      	b.n	8d3a <_dtoa_r+0x686>
    943a:	4651      	mov	r1, sl
    943c:	4620      	mov	r0, r4
    943e:	f000 fdd5 	bl	9fec <__pow5mult>
    9442:	4682      	mov	sl, r0
    9444:	e479      	b.n	8d3a <_dtoa_r+0x686>
    9446:	9f17      	ldr	r7, [sp, #92]	; 0x5c
    9448:	2f00      	cmp	r7, #0
    944a:	d04e      	beq.n	94ea <_dtoa_r+0xe36>
    944c:	f503 6386 	add.w	r3, r3, #1072	; 0x430
    9450:	465f      	mov	r7, fp
    9452:	3303      	adds	r3, #3
    9454:	9e12      	ldr	r6, [sp, #72]	; 0x48
    9456:	e516      	b.n	8e86 <_dtoa_r+0x7d2>
    9458:	f04f 0b00 	mov.w	fp, #0
    945c:	f8cd b028 	str.w	fp, [sp, #40]	; 0x28
    9460:	f7ff bb34 	b.w	8acc <_dtoa_r+0x418>
    9464:	1c4b      	adds	r3, r1, #1
    9466:	9d19      	ldr	r5, [sp, #100]	; 0x64
    9468:	b2db      	uxtb	r3, r3
    946a:	7013      	strb	r3, [r2, #0]
    946c:	f7ff bb47 	b.w	8afe <_dtoa_r+0x44a>
    9470:	f8dd a060 	ldr.w	sl, [sp, #96]	; 0x60
    9474:	9c0a      	ldr	r4, [sp, #40]	; 0x28
    9476:	e40c      	b.n	8c92 <_dtoa_r+0x5de>
    9478:	9b12      	ldr	r3, [sp, #72]	; 0x48
    947a:	1a9e      	subs	r6, r3, r2
    947c:	2300      	movs	r3, #0
    947e:	e502      	b.n	8e86 <_dtoa_r+0x7d2>
    9480:	f1b9 0f00 	cmp.w	r9, #0
    9484:	9d0a      	ldr	r5, [sp, #40]	; 0x28
    9486:	dd0f      	ble.n	94a8 <_dtoa_r+0xdf4>
    9488:	4651      	mov	r1, sl
    948a:	2201      	movs	r2, #1
    948c:	4620      	mov	r0, r4
    948e:	f000 fdff 	bl	a090 <__lshift>
    9492:	4659      	mov	r1, fp
    9494:	4682      	mov	sl, r0
    9496:	f000 fe51 	bl	a13c <__mcmp>
    949a:	2800      	cmp	r0, #0
    949c:	dd52      	ble.n	9544 <_dtoa_r+0xe90>
    949e:	9a09      	ldr	r2, [sp, #36]	; 0x24
    94a0:	2a39      	cmp	r2, #57	; 0x39
    94a2:	d038      	beq.n	9516 <_dtoa_r+0xe62>
    94a4:	3201      	adds	r2, #1
    94a6:	9209      	str	r2, [sp, #36]	; 0x24
    94a8:	9b04      	ldr	r3, [sp, #16]
    94aa:	9809      	ldr	r0, [sp, #36]	; 0x24
    94ac:	930a      	str	r3, [sp, #40]	; 0x28
    94ae:	f806 0b01 	strb.w	r0, [r6], #1
    94b2:	f7ff bb0f 	b.w	8ad4 <_dtoa_r+0x420>
    94b6:	3301      	adds	r3, #1
    94b8:	f888 3000 	strb.w	r3, [r8]
    94bc:	f7ff bb0a 	b.w	8ad4 <_dtoa_r+0x420>
    94c0:	9f0a      	ldr	r7, [sp, #40]	; 0x28
    94c2:	4620      	mov	r0, r4
    94c4:	6879      	ldr	r1, [r7, #4]
    94c6:	f000 fbc5 	bl	9c54 <_Balloc>
    94ca:	693a      	ldr	r2, [r7, #16]
    94cc:	f107 010c 	add.w	r1, r7, #12
    94d0:	3202      	adds	r2, #2
    94d2:	0092      	lsls	r2, r2, #2
    94d4:	4606      	mov	r6, r0
    94d6:	300c      	adds	r0, #12
    94d8:	f7fd fb70 	bl	6bbc <memcpy>
    94dc:	4620      	mov	r0, r4
    94de:	4631      	mov	r1, r6
    94e0:	2201      	movs	r2, #1
    94e2:	f000 fdd5 	bl	a090 <__lshift>
    94e6:	9004      	str	r0, [sp, #16]
    94e8:	e5fc      	b.n	90e4 <_dtoa_r+0xa30>
    94ea:	9b1d      	ldr	r3, [sp, #116]	; 0x74
    94ec:	465f      	mov	r7, fp
    94ee:	9e12      	ldr	r6, [sp, #72]	; 0x48
    94f0:	f1c3 0336 	rsb	r3, r3, #54	; 0x36
    94f4:	e4c7      	b.n	8e86 <_dtoa_r+0x7d2>
    94f6:	9b04      	ldr	r3, [sp, #16]
    94f8:	9d0a      	ldr	r5, [sp, #40]	; 0x28
    94fa:	930a      	str	r3, [sp, #40]	; 0x28
    94fc:	e765      	b.n	93ca <_dtoa_r+0xd16>
    94fe:	9909      	ldr	r1, [sp, #36]	; 0x24
    9500:	9d0a      	ldr	r5, [sp, #40]	; 0x28
    9502:	2939      	cmp	r1, #57	; 0x39
    9504:	d007      	beq.n	9516 <_dtoa_r+0xe62>
    9506:	9904      	ldr	r1, [sp, #16]
    9508:	9809      	ldr	r0, [sp, #36]	; 0x24
    950a:	910a      	str	r1, [sp, #40]	; 0x28
    950c:	1c43      	adds	r3, r0, #1
    950e:	f806 3b01 	strb.w	r3, [r6], #1
    9512:	f7ff badf 	b.w	8ad4 <_dtoa_r+0x420>
    9516:	9a04      	ldr	r2, [sp, #16]
    9518:	46b0      	mov	r8, r6
    951a:	2339      	movs	r3, #57	; 0x39
    951c:	920a      	str	r2, [sp, #40]	; 0x28
    951e:	f808 3b01 	strb.w	r3, [r8], #1
    9522:	e75d      	b.n	93e0 <_dtoa_r+0xd2c>
    9524:	9809      	ldr	r0, [sp, #36]	; 0x24
    9526:	462b      	mov	r3, r5
    9528:	9d0a      	ldr	r5, [sp, #40]	; 0x28
    952a:	2839      	cmp	r0, #57	; 0x39
    952c:	d0f3      	beq.n	9516 <_dtoa_r+0xe62>
    952e:	2b00      	cmp	r3, #0
    9530:	dd01      	ble.n	9536 <_dtoa_r+0xe82>
    9532:	3001      	adds	r0, #1
    9534:	9009      	str	r0, [sp, #36]	; 0x24
    9536:	9904      	ldr	r1, [sp, #16]
    9538:	9a09      	ldr	r2, [sp, #36]	; 0x24
    953a:	910a      	str	r1, [sp, #40]	; 0x28
    953c:	f806 2b01 	strb.w	r2, [r6], #1
    9540:	f7ff bac8 	b.w	8ad4 <_dtoa_r+0x420>
    9544:	d1b0      	bne.n	94a8 <_dtoa_r+0xdf4>
    9546:	9909      	ldr	r1, [sp, #36]	; 0x24
    9548:	f011 0f01 	tst.w	r1, #1
    954c:	d0ac      	beq.n	94a8 <_dtoa_r+0xdf4>
    954e:	e7a6      	b.n	949e <_dtoa_r+0xdea>
    9550:	990a      	ldr	r1, [sp, #40]	; 0x28
    9552:	4620      	mov	r0, r4
    9554:	220a      	movs	r2, #10
    9556:	2300      	movs	r3, #0
    9558:	f000 fbcc 	bl	9cf4 <__multadd>
    955c:	9913      	ldr	r1, [sp, #76]	; 0x4c
    955e:	910d      	str	r1, [sp, #52]	; 0x34
    9560:	900a      	str	r0, [sp, #40]	; 0x28
    9562:	e429      	b.n	8db8 <_dtoa_r+0x704>
    9564:	f43f ac13 	beq.w	8d8e <_dtoa_r+0x6da>
    9568:	331c      	adds	r3, #28
    956a:	e620      	b.n	91ae <_dtoa_r+0xafa>
    956c:	990d      	ldr	r1, [sp, #52]	; 0x34
    956e:	290e      	cmp	r1, #14
    9570:	bf8c      	ite	hi
    9572:	2700      	movhi	r7, #0
    9574:	f007 0701 	andls.w	r7, r7, #1
    9578:	f7ff b9e5 	b.w	8946 <_dtoa_r+0x292>
    957c:	2701      	movs	r7, #1
    957e:	f7ff b965 	b.w	884c <_dtoa_r+0x198>
    9582:	bf00      	nop
    9584:	f3af 8000 	nop.w

00009588 <_setlocale_r>:
    9588:	b510      	push	{r4, lr}
    958a:	4614      	mov	r4, r2
    958c:	b13a      	cbz	r2, 959e <_setlocale_r+0x16>
    958e:	f24d 114c 	movw	r1, #53580	; 0xd14c
    9592:	4610      	mov	r0, r2
    9594:	f2c0 0100 	movt	r1, #0
    9598:	f001 f848 	bl	a62c <strcmp>
    959c:	b920      	cbnz	r0, 95a8 <_setlocale_r+0x20>
    959e:	f24d 1048 	movw	r0, #53576	; 0xd148
    95a2:	f2c0 0000 	movt	r0, #0
    95a6:	bd10      	pop	{r4, pc}
    95a8:	f24d 1148 	movw	r1, #53576	; 0xd148
    95ac:	4620      	mov	r0, r4
    95ae:	f2c0 0100 	movt	r1, #0
    95b2:	f001 f83b 	bl	a62c <strcmp>
    95b6:	b920      	cbnz	r0, 95c2 <_setlocale_r+0x3a>
    95b8:	f24d 1048 	movw	r0, #53576	; 0xd148
    95bc:	f2c0 0000 	movt	r0, #0
    95c0:	bd10      	pop	{r4, pc}
    95c2:	f24d 1114 	movw	r1, #53524	; 0xd114
    95c6:	4620      	mov	r0, r4
    95c8:	f2c0 0100 	movt	r1, #0
    95cc:	f001 f82e 	bl	a62c <strcmp>
    95d0:	f24d 1348 	movw	r3, #53576	; 0xd148
    95d4:	f2c0 0300 	movt	r3, #0
    95d8:	2800      	cmp	r0, #0
    95da:	bf0c      	ite	eq
    95dc:	4618      	moveq	r0, r3
    95de:	2000      	movne	r0, #0
    95e0:	bd10      	pop	{r4, pc}
    95e2:	bf00      	nop

000095e4 <__locale_charset>:
    95e4:	f240 1080 	movw	r0, #384	; 0x180
    95e8:	f2c2 0000 	movt	r0, #8192	; 0x2000
    95ec:	4770      	bx	lr
    95ee:	bf00      	nop

000095f0 <__locale_mb_cur_max>:
    95f0:	f240 1380 	movw	r3, #384	; 0x180
    95f4:	f2c2 0300 	movt	r3, #8192	; 0x2000
    95f8:	6a18      	ldr	r0, [r3, #32]
    95fa:	4770      	bx	lr

000095fc <__locale_msgcharset>:
    95fc:	4800      	ldr	r0, [pc, #0]	; (9600 <__locale_msgcharset+0x4>)
    95fe:	4770      	bx	lr
    9600:	200001a4 	.word	0x200001a4

00009604 <__locale_cjk_lang>:
    9604:	2000      	movs	r0, #0
    9606:	4770      	bx	lr

00009608 <_localeconv_r>:
    9608:	4800      	ldr	r0, [pc, #0]	; (960c <_localeconv_r+0x4>)
    960a:	4770      	bx	lr
    960c:	200001c4 	.word	0x200001c4

00009610 <setlocale>:
    9610:	f240 038c 	movw	r3, #140	; 0x8c
    9614:	460a      	mov	r2, r1
    9616:	f2c2 0300 	movt	r3, #8192	; 0x2000
    961a:	4601      	mov	r1, r0
    961c:	6818      	ldr	r0, [r3, #0]
    961e:	e7b3      	b.n	9588 <_setlocale_r>

00009620 <localeconv>:
    9620:	4800      	ldr	r0, [pc, #0]	; (9624 <localeconv+0x4>)
    9622:	4770      	bx	lr
    9624:	200001c4 	.word	0x200001c4

00009628 <malloc>:
    9628:	f240 038c 	movw	r3, #140	; 0x8c
    962c:	4601      	mov	r1, r0
    962e:	f2c2 0300 	movt	r3, #8192	; 0x2000
    9632:	6818      	ldr	r0, [r3, #0]
    9634:	f000 b808 	b.w	9648 <_malloc_r>

00009638 <free>:
    9638:	f240 038c 	movw	r3, #140	; 0x8c
    963c:	4601      	mov	r1, r0
    963e:	f2c2 0300 	movt	r3, #8192	; 0x2000
    9642:	6818      	ldr	r0, [r3, #0]
    9644:	f001 bf54 	b.w	b4f0 <_free_r>

00009648 <_malloc_r>:
    9648:	e92d 4ff0 	stmdb	sp!, {r4, r5, r6, r7, r8, r9, sl, fp, lr}
    964c:	f101 040b 	add.w	r4, r1, #11
    9650:	2c16      	cmp	r4, #22
    9652:	b083      	sub	sp, #12
    9654:	4606      	mov	r6, r0
    9656:	d931      	bls.n	96bc <_malloc_r+0x74>
    9658:	f024 0407 	bic.w	r4, r4, #7
    965c:	0fe3      	lsrs	r3, r4, #31
    965e:	428c      	cmp	r4, r1
    9660:	bf2c      	ite	cs
    9662:	4619      	movcs	r1, r3
    9664:	f043 0101 	orrcc.w	r1, r3, #1
    9668:	2900      	cmp	r1, #0
    966a:	d130      	bne.n	96ce <_malloc_r+0x86>
    966c:	4630      	mov	r0, r6
    966e:	f000 faed 	bl	9c4c <__malloc_lock>
    9672:	f5b4 7ffc 	cmp.w	r4, #504	; 0x1f8
    9676:	d22f      	bcs.n	96d8 <_malloc_r+0x90>
    9678:	ea4f 0cd4 	mov.w	ip, r4, lsr #3
    967c:	f240 15fc 	movw	r5, #508	; 0x1fc
    9680:	f2c2 0500 	movt	r5, #8192	; 0x2000
    9684:	eb05 02cc 	add.w	r2, r5, ip, lsl #3
    9688:	462f      	mov	r7, r5
    968a:	68d3      	ldr	r3, [r2, #12]
    968c:	4293      	cmp	r3, r2
    968e:	f000 822d 	beq.w	9aec <_malloc_r+0x4a4>
    9692:	685c      	ldr	r4, [r3, #4]
    9694:	f103 0808 	add.w	r8, r3, #8
    9698:	68da      	ldr	r2, [r3, #12]
    969a:	4630      	mov	r0, r6
    969c:	f024 0403 	bic.w	r4, r4, #3
    96a0:	6899      	ldr	r1, [r3, #8]
    96a2:	191b      	adds	r3, r3, r4
    96a4:	685c      	ldr	r4, [r3, #4]
    96a6:	60ca      	str	r2, [r1, #12]
    96a8:	f044 0401 	orr.w	r4, r4, #1
    96ac:	6091      	str	r1, [r2, #8]
    96ae:	605c      	str	r4, [r3, #4]
    96b0:	f000 face 	bl	9c50 <__malloc_unlock>
    96b4:	4640      	mov	r0, r8
    96b6:	b003      	add	sp, #12
    96b8:	e8bd 8ff0 	ldmia.w	sp!, {r4, r5, r6, r7, r8, r9, sl, fp, pc}
    96bc:	2300      	movs	r3, #0
    96be:	2410      	movs	r4, #16
    96c0:	428c      	cmp	r4, r1
    96c2:	bf2c      	ite	cs
    96c4:	4619      	movcs	r1, r3
    96c6:	f043 0101 	orrcc.w	r1, r3, #1
    96ca:	2900      	cmp	r1, #0
    96cc:	d0ce      	beq.n	966c <_malloc_r+0x24>
    96ce:	230c      	movs	r3, #12
    96d0:	f04f 0800 	mov.w	r8, #0
    96d4:	6033      	str	r3, [r6, #0]
    96d6:	e7ed      	b.n	96b4 <_malloc_r+0x6c>
    96d8:	ea5f 2c54 	movs.w	ip, r4, lsr #9
    96dc:	bf04      	itt	eq
    96de:	ea4f 0cd4 	moveq.w	ip, r4, lsr #3
    96e2:	ea4f 00cc 	moveq.w	r0, ip, lsl #3
    96e6:	f040 8086 	bne.w	97f6 <_malloc_r+0x1ae>
    96ea:	f240 15fc 	movw	r5, #508	; 0x1fc
    96ee:	f2c2 0500 	movt	r5, #8192	; 0x2000
    96f2:	1828      	adds	r0, r5, r0
    96f4:	462f      	mov	r7, r5
    96f6:	68c3      	ldr	r3, [r0, #12]
    96f8:	4298      	cmp	r0, r3
    96fa:	d106      	bne.n	970a <_malloc_r+0xc2>
    96fc:	e00d      	b.n	971a <_malloc_r+0xd2>
    96fe:	2900      	cmp	r1, #0
    9700:	f280 8179 	bge.w	99f6 <_malloc_r+0x3ae>
    9704:	68db      	ldr	r3, [r3, #12]
    9706:	4298      	cmp	r0, r3
    9708:	d007      	beq.n	971a <_malloc_r+0xd2>
    970a:	685a      	ldr	r2, [r3, #4]
    970c:	f022 0203 	bic.w	r2, r2, #3
    9710:	1b11      	subs	r1, r2, r4
    9712:	290f      	cmp	r1, #15
    9714:	ddf3      	ble.n	96fe <_malloc_r+0xb6>
    9716:	f10c 3cff 	add.w	ip, ip, #4294967295
    971a:	f10c 0c01 	add.w	ip, ip, #1
    971e:	4abd      	ldr	r2, [pc, #756]	; (9a14 <_malloc_r+0x3cc>)
    9720:	6893      	ldr	r3, [r2, #8]
    9722:	429a      	cmp	r2, r3
    9724:	bf08      	it	eq
    9726:	6878      	ldreq	r0, [r7, #4]
    9728:	d024      	beq.n	9774 <_malloc_r+0x12c>
    972a:	6858      	ldr	r0, [r3, #4]
    972c:	f020 0003 	bic.w	r0, r0, #3
    9730:	1b01      	subs	r1, r0, r4
    9732:	290f      	cmp	r1, #15
    9734:	f300 81c0 	bgt.w	9ab8 <_malloc_r+0x470>
    9738:	2900      	cmp	r1, #0
    973a:	60d2      	str	r2, [r2, #12]
    973c:	6092      	str	r2, [r2, #8]
    973e:	f280 8094 	bge.w	986a <_malloc_r+0x222>
    9742:	f5b0 7f00 	cmp.w	r0, #512	; 0x200
    9746:	f080 8177 	bcs.w	9a38 <_malloc_r+0x3f0>
    974a:	08c0      	lsrs	r0, r0, #3
    974c:	f04f 0e01 	mov.w	lr, #1
    9750:	f8d7 8004 	ldr.w	r8, [r7, #4]
    9754:	eb07 01c0 	add.w	r1, r7, r0, lsl #3
    9758:	1080      	asrs	r0, r0, #2
    975a:	fa0e f000 	lsl.w	r0, lr, r0
    975e:	60d9      	str	r1, [r3, #12]
    9760:	f8d1 e008 	ldr.w	lr, [r1, #8]
    9764:	ea40 0008 	orr.w	r0, r0, r8
    9768:	6078      	str	r0, [r7, #4]
    976a:	f8c3 e008 	str.w	lr, [r3, #8]
    976e:	f8ce 300c 	str.w	r3, [lr, #12]
    9772:	608b      	str	r3, [r1, #8]
    9774:	f04f 0e01 	mov.w	lr, #1
    9778:	ea4f 03ac 	mov.w	r3, ip, asr #2
    977c:	fa0e fe03 	lsl.w	lr, lr, r3
    9780:	4586      	cmp	lr, r0
    9782:	d87d      	bhi.n	9880 <_malloc_r+0x238>
    9784:	ea10 0f0e 	tst.w	r0, lr
    9788:	d108      	bne.n	979c <_malloc_r+0x154>
    978a:	f02c 0c03 	bic.w	ip, ip, #3
    978e:	ea4f 0e4e 	mov.w	lr, lr, lsl #1
    9792:	f10c 0c04 	add.w	ip, ip, #4
    9796:	ea10 0f0e 	tst.w	r0, lr
    979a:	d0f8      	beq.n	978e <_malloc_r+0x146>
    979c:	eb07 0acc 	add.w	sl, r7, ip, lsl #3
    97a0:	46e1      	mov	r9, ip
    97a2:	46d0      	mov	r8, sl
    97a4:	f8d8 000c 	ldr.w	r0, [r8, #12]
    97a8:	4580      	cmp	r8, r0
    97aa:	d107      	bne.n	97bc <_malloc_r+0x174>
    97ac:	e196      	b.n	9adc <_malloc_r+0x494>
    97ae:	2b00      	cmp	r3, #0
    97b0:	f280 81a6 	bge.w	9b00 <_malloc_r+0x4b8>
    97b4:	68c0      	ldr	r0, [r0, #12]
    97b6:	4580      	cmp	r8, r0
    97b8:	f000 8190 	beq.w	9adc <_malloc_r+0x494>
    97bc:	6841      	ldr	r1, [r0, #4]
    97be:	f021 0103 	bic.w	r1, r1, #3
    97c2:	1b0b      	subs	r3, r1, r4
    97c4:	2b0f      	cmp	r3, #15
    97c6:	ddf2      	ble.n	97ae <_malloc_r+0x166>
    97c8:	4680      	mov	r8, r0
    97ca:	68c5      	ldr	r5, [r0, #12]
    97cc:	1901      	adds	r1, r0, r4
    97ce:	f044 0e01 	orr.w	lr, r4, #1
    97d2:	f858 7f08 	ldr.w	r7, [r8, #8]!
    97d6:	f043 0401 	orr.w	r4, r3, #1
    97da:	f8c0 e004 	str.w	lr, [r0, #4]
    97de:	4630      	mov	r0, r6
    97e0:	604c      	str	r4, [r1, #4]
    97e2:	60fd      	str	r5, [r7, #12]
    97e4:	60af      	str	r7, [r5, #8]
    97e6:	60d1      	str	r1, [r2, #12]
    97e8:	6091      	str	r1, [r2, #8]
    97ea:	60ca      	str	r2, [r1, #12]
    97ec:	608a      	str	r2, [r1, #8]
    97ee:	50cb      	str	r3, [r1, r3]
    97f0:	f000 fa2e 	bl	9c50 <__malloc_unlock>
    97f4:	e75e      	b.n	96b4 <_malloc_r+0x6c>
    97f6:	f1bc 0f04 	cmp.w	ip, #4
    97fa:	bf9e      	ittt	ls
    97fc:	ea4f 1c94 	movls.w	ip, r4, lsr #6
    9800:	f10c 0c38 	addls.w	ip, ip, #56	; 0x38
    9804:	ea4f 00cc 	movls.w	r0, ip, lsl #3
    9808:	f67f af6f 	bls.w	96ea <_malloc_r+0xa2>
    980c:	f1bc 0f14 	cmp.w	ip, #20
    9810:	bf9c      	itt	ls
    9812:	f10c 0c5b 	addls.w	ip, ip, #91	; 0x5b
    9816:	ea4f 00cc 	movls.w	r0, ip, lsl #3
    981a:	f67f af66 	bls.w	96ea <_malloc_r+0xa2>
    981e:	f1bc 0f54 	cmp.w	ip, #84	; 0x54
    9822:	bf9e      	ittt	ls
    9824:	ea4f 3c14 	movls.w	ip, r4, lsr #12
    9828:	f10c 0c6e 	addls.w	ip, ip, #110	; 0x6e
    982c:	ea4f 00cc 	movls.w	r0, ip, lsl #3
    9830:	f67f af5b 	bls.w	96ea <_malloc_r+0xa2>
    9834:	f5bc 7faa 	cmp.w	ip, #340	; 0x154
    9838:	bf9e      	ittt	ls
    983a:	ea4f 3cd4 	movls.w	ip, r4, lsr #15
    983e:	f10c 0c77 	addls.w	ip, ip, #119	; 0x77
    9842:	ea4f 00cc 	movls.w	r0, ip, lsl #3
    9846:	f67f af50 	bls.w	96ea <_malloc_r+0xa2>
    984a:	f240 5354 	movw	r3, #1364	; 0x554
    984e:	459c      	cmp	ip, r3
    9850:	bf95      	itete	ls
    9852:	ea4f 4c94 	movls.w	ip, r4, lsr #18
    9856:	f44f 707c 	movhi.w	r0, #1008	; 0x3f0
    985a:	f10c 0c7c 	addls.w	ip, ip, #124	; 0x7c
    985e:	f04f 0c7e 	movhi.w	ip, #126	; 0x7e
    9862:	bf98      	it	ls
    9864:	ea4f 00cc 	movls.w	r0, ip, lsl #3
    9868:	e73f      	b.n	96ea <_malloc_r+0xa2>
    986a:	181a      	adds	r2, r3, r0
    986c:	f103 0808 	add.w	r8, r3, #8
    9870:	4630      	mov	r0, r6
    9872:	6853      	ldr	r3, [r2, #4]
    9874:	f043 0301 	orr.w	r3, r3, #1
    9878:	6053      	str	r3, [r2, #4]
    987a:	f000 f9e9 	bl	9c50 <__malloc_unlock>
    987e:	e719      	b.n	96b4 <_malloc_r+0x6c>
    9880:	f8d7 8008 	ldr.w	r8, [r7, #8]
    9884:	f8d8 3004 	ldr.w	r3, [r8, #4]
    9888:	f023 0903 	bic.w	r9, r3, #3
    988c:	454c      	cmp	r4, r9
    988e:	ebc4 0209 	rsb	r2, r4, r9
    9892:	bf94      	ite	ls
    9894:	2300      	movls	r3, #0
    9896:	2301      	movhi	r3, #1
    9898:	2a0f      	cmp	r2, #15
    989a:	bfd8      	it	le
    989c:	f043 0301 	orrle.w	r3, r3, #1
    98a0:	2b00      	cmp	r3, #0
    98a2:	f000 80b9 	beq.w	9a18 <_malloc_r+0x3d0>
    98a6:	f641 3ac8 	movw	sl, #7112	; 0x1bc8
    98aa:	f8d5 3408 	ldr.w	r3, [r5, #1032]	; 0x408
    98ae:	f2c2 0a00 	movt	sl, #8192	; 0x2000
    98b2:	4630      	mov	r0, r6
    98b4:	f1b3 3fff 	cmp.w	r3, #4294967295
    98b8:	f8da 2000 	ldr.w	r2, [sl]
    98bc:	f102 0b10 	add.w	fp, r2, #16
    98c0:	44a3      	add	fp, r4
    98c2:	bf1f      	itttt	ne
    98c4:	f50b 6b7e 	addne.w	fp, fp, #4064	; 0xfe0
    98c8:	f10b 0b1f 	addne.w	fp, fp, #31
    98cc:	f42b 6b7e 	bicne.w	fp, fp, #4064	; 0xfe0
    98d0:	f02b 0b1f 	bicne.w	fp, fp, #31
    98d4:	4659      	mov	r1, fp
    98d6:	f000 fe95 	bl	a604 <_sbrk_r>
    98da:	f1b0 3fff 	cmp.w	r0, #4294967295
    98de:	4603      	mov	r3, r0
    98e0:	f000 8118 	beq.w	9b14 <_malloc_r+0x4cc>
    98e4:	eb08 0109 	add.w	r1, r8, r9
    98e8:	4281      	cmp	r1, r0
    98ea:	f200 8110 	bhi.w	9b0e <_malloc_r+0x4c6>
    98ee:	f8da 2004 	ldr.w	r2, [sl, #4]
    98f2:	4281      	cmp	r1, r0
    98f4:	445a      	add	r2, fp
    98f6:	f8ca 2004 	str.w	r2, [sl, #4]
    98fa:	f000 813e 	beq.w	9b7a <_malloc_r+0x532>
    98fe:	f8d5 e408 	ldr.w	lr, [r5, #1032]	; 0x408
    9902:	f240 15fc 	movw	r5, #508	; 0x1fc
    9906:	f2c2 0500 	movt	r5, #8192	; 0x2000
    990a:	f1be 3fff 	cmp.w	lr, #4294967295
    990e:	bf17      	itett	ne
    9910:	1882      	addne	r2, r0, r2
    9912:	f8c5 0408 	streq.w	r0, [r5, #1032]	; 0x408
    9916:	ebc1 0102 	rsbne	r1, r1, r2
    991a:	f8ca 1004 	strne.w	r1, [sl, #4]
    991e:	f010 0507 	ands.w	r5, r0, #7
    9922:	bf17      	itett	ne
    9924:	f1c5 0508 	rsbne	r5, r5, #8
    9928:	f44f 5580 	moveq.w	r5, #4096	; 0x1000
    992c:	1943      	addne	r3, r0, r5
    992e:	f505 5580 	addne.w	r5, r5, #4096	; 0x1000
    9932:	eb03 020b 	add.w	r2, r3, fp
    9936:	4630      	mov	r0, r6
    9938:	9301      	str	r3, [sp, #4]
    993a:	0512      	lsls	r2, r2, #20
    993c:	0d12      	lsrs	r2, r2, #20
    993e:	1aad      	subs	r5, r5, r2
    9940:	4629      	mov	r1, r5
    9942:	f000 fe5f 	bl	a604 <_sbrk_r>
    9946:	9b01      	ldr	r3, [sp, #4]
    9948:	f1b0 3fff 	cmp.w	r0, #4294967295
    994c:	f000 812c 	beq.w	9ba8 <_malloc_r+0x560>
    9950:	1ac1      	subs	r1, r0, r3
    9952:	1949      	adds	r1, r1, r5
    9954:	f041 0101 	orr.w	r1, r1, #1
    9958:	f8da 2004 	ldr.w	r2, [sl, #4]
    995c:	45b8      	cmp	r8, r7
    995e:	f641 3bc8 	movw	fp, #7112	; 0x1bc8
    9962:	60bb      	str	r3, [r7, #8]
    9964:	442a      	add	r2, r5
    9966:	f2c2 0b00 	movt	fp, #8192	; 0x2000
    996a:	6059      	str	r1, [r3, #4]
    996c:	f8ca 2004 	str.w	r2, [sl, #4]
    9970:	d017      	beq.n	99a2 <_malloc_r+0x35a>
    9972:	f1b9 0f0f 	cmp.w	r9, #15
    9976:	f240 80e1 	bls.w	9b3c <_malloc_r+0x4f4>
    997a:	f1a9 030c 	sub.w	r3, r9, #12
    997e:	f8d8 5004 	ldr.w	r5, [r8, #4]
    9982:	f023 0307 	bic.w	r3, r3, #7
    9986:	2005      	movs	r0, #5
    9988:	eb08 0103 	add.w	r1, r8, r3
    998c:	2b0f      	cmp	r3, #15
    998e:	f005 0501 	and.w	r5, r5, #1
    9992:	ea43 0505 	orr.w	r5, r3, r5
    9996:	f8c8 5004 	str.w	r5, [r8, #4]
    999a:	6048      	str	r0, [r1, #4]
    999c:	6088      	str	r0, [r1, #8]
    999e:	f200 80fb 	bhi.w	9b98 <_malloc_r+0x550>
    99a2:	f8da 102c 	ldr.w	r1, [sl, #44]	; 0x2c
    99a6:	f641 33c8 	movw	r3, #7112	; 0x1bc8
    99aa:	f2c2 0300 	movt	r3, #8192	; 0x2000
    99ae:	428a      	cmp	r2, r1
    99b0:	f8da 1030 	ldr.w	r1, [sl, #48]	; 0x30
    99b4:	bf88      	it	hi
    99b6:	62da      	strhi	r2, [r3, #44]	; 0x2c
    99b8:	f641 33c8 	movw	r3, #7112	; 0x1bc8
    99bc:	428a      	cmp	r2, r1
    99be:	f2c2 0300 	movt	r3, #8192	; 0x2000
    99c2:	f240 80a7 	bls.w	9b14 <_malloc_r+0x4cc>
    99c6:	f8d7 8008 	ldr.w	r8, [r7, #8]
    99ca:	631a      	str	r2, [r3, #48]	; 0x30
    99cc:	f8d8 3004 	ldr.w	r3, [r8, #4]
    99d0:	f023 0303 	bic.w	r3, r3, #3
    99d4:	429c      	cmp	r4, r3
    99d6:	ebc4 0203 	rsb	r2, r4, r3
    99da:	bf94      	ite	ls
    99dc:	2300      	movls	r3, #0
    99de:	2301      	movhi	r3, #1
    99e0:	2a0f      	cmp	r2, #15
    99e2:	bfd8      	it	le
    99e4:	f043 0301 	orrle.w	r3, r3, #1
    99e8:	b1b3      	cbz	r3, 9a18 <_malloc_r+0x3d0>
    99ea:	4630      	mov	r0, r6
    99ec:	f04f 0800 	mov.w	r8, #0
    99f0:	f000 f92e 	bl	9c50 <__malloc_unlock>
    99f4:	e65e      	b.n	96b4 <_malloc_r+0x6c>
    99f6:	189a      	adds	r2, r3, r2
    99f8:	68d9      	ldr	r1, [r3, #12]
    99fa:	689c      	ldr	r4, [r3, #8]
    99fc:	f103 0808 	add.w	r8, r3, #8
    9a00:	6855      	ldr	r5, [r2, #4]
    9a02:	4630      	mov	r0, r6
    9a04:	f045 0301 	orr.w	r3, r5, #1
    9a08:	60e1      	str	r1, [r4, #12]
    9a0a:	608c      	str	r4, [r1, #8]
    9a0c:	6053      	str	r3, [r2, #4]
    9a0e:	f000 f91f 	bl	9c50 <__malloc_unlock>
    9a12:	e64f      	b.n	96b4 <_malloc_r+0x6c>
    9a14:	20000204 	.word	0x20000204
    9a18:	eb08 0304 	add.w	r3, r8, r4
    9a1c:	f042 0201 	orr.w	r2, r2, #1
    9a20:	f044 0401 	orr.w	r4, r4, #1
    9a24:	4630      	mov	r0, r6
    9a26:	f8c8 4004 	str.w	r4, [r8, #4]
    9a2a:	f108 0808 	add.w	r8, r8, #8
    9a2e:	605a      	str	r2, [r3, #4]
    9a30:	60bb      	str	r3, [r7, #8]
    9a32:	f000 f90d 	bl	9c50 <__malloc_unlock>
    9a36:	e63d      	b.n	96b4 <_malloc_r+0x6c>
    9a38:	0a41      	lsrs	r1, r0, #9
    9a3a:	2904      	cmp	r1, #4
    9a3c:	bf9c      	itt	ls
    9a3e:	ea4f 1e90 	movls.w	lr, r0, lsr #6
    9a42:	f10e 0e38 	addls.w	lr, lr, #56	; 0x38
    9a46:	d91d      	bls.n	9a84 <_malloc_r+0x43c>
    9a48:	2914      	cmp	r1, #20
    9a4a:	bf98      	it	ls
    9a4c:	f101 0e5b 	addls.w	lr, r1, #91	; 0x5b
    9a50:	d918      	bls.n	9a84 <_malloc_r+0x43c>
    9a52:	2954      	cmp	r1, #84	; 0x54
    9a54:	bf9c      	itt	ls
    9a56:	ea4f 3e10 	movls.w	lr, r0, lsr #12
    9a5a:	f10e 0e6e 	addls.w	lr, lr, #110	; 0x6e
    9a5e:	d911      	bls.n	9a84 <_malloc_r+0x43c>
    9a60:	f5b1 7faa 	cmp.w	r1, #340	; 0x154
    9a64:	bf9c      	itt	ls
    9a66:	ea4f 3ed0 	movls.w	lr, r0, lsr #15
    9a6a:	f10e 0e77 	addls.w	lr, lr, #119	; 0x77
    9a6e:	d909      	bls.n	9a84 <_malloc_r+0x43c>
    9a70:	f240 5e54 	movw	lr, #1364	; 0x554
    9a74:	4571      	cmp	r1, lr
    9a76:	bf96      	itet	ls
    9a78:	ea4f 4e90 	movls.w	lr, r0, lsr #18
    9a7c:	f04f 0e7e 	movhi.w	lr, #126	; 0x7e
    9a80:	f10e 0e7c 	addls.w	lr, lr, #124	; 0x7c
    9a84:	eb07 08ce 	add.w	r8, r7, lr, lsl #3
    9a88:	f8d8 1008 	ldr.w	r1, [r8, #8]
    9a8c:	4541      	cmp	r1, r8
    9a8e:	d103      	bne.n	9a98 <_malloc_r+0x450>
    9a90:	e047      	b.n	9b22 <_malloc_r+0x4da>
    9a92:	6889      	ldr	r1, [r1, #8]
    9a94:	4588      	cmp	r8, r1
    9a96:	d005      	beq.n	9aa4 <_malloc_r+0x45c>
    9a98:	f8d1 e004 	ldr.w	lr, [r1, #4]
    9a9c:	f02e 0e03 	bic.w	lr, lr, #3
    9aa0:	4570      	cmp	r0, lr
    9aa2:	d3f6      	bcc.n	9a92 <_malloc_r+0x44a>
    9aa4:	f8d1 e00c 	ldr.w	lr, [r1, #12]
    9aa8:	f8c3 e00c 	str.w	lr, [r3, #12]
    9aac:	6099      	str	r1, [r3, #8]
    9aae:	6878      	ldr	r0, [r7, #4]
    9ab0:	60cb      	str	r3, [r1, #12]
    9ab2:	f8ce 3008 	str.w	r3, [lr, #8]
    9ab6:	e65d      	b.n	9774 <_malloc_r+0x12c>
    9ab8:	191d      	adds	r5, r3, r4
    9aba:	f041 0701 	orr.w	r7, r1, #1
    9abe:	60d5      	str	r5, [r2, #12]
    9ac0:	f044 0401 	orr.w	r4, r4, #1
    9ac4:	6095      	str	r5, [r2, #8]
    9ac6:	4630      	mov	r0, r6
    9ac8:	605c      	str	r4, [r3, #4]
    9aca:	f103 0808 	add.w	r8, r3, #8
    9ace:	60ea      	str	r2, [r5, #12]
    9ad0:	60aa      	str	r2, [r5, #8]
    9ad2:	606f      	str	r7, [r5, #4]
    9ad4:	5069      	str	r1, [r5, r1]
    9ad6:	f000 f8bb 	bl	9c50 <__malloc_unlock>
    9ada:	e5eb      	b.n	96b4 <_malloc_r+0x6c>
    9adc:	f109 0901 	add.w	r9, r9, #1
    9ae0:	f019 0f03 	tst.w	r9, #3
    9ae4:	d02f      	beq.n	9b46 <_malloc_r+0x4fe>
    9ae6:	f108 0808 	add.w	r8, r8, #8
    9aea:	e65b      	b.n	97a4 <_malloc_r+0x15c>
    9aec:	f103 0208 	add.w	r2, r3, #8
    9af0:	695b      	ldr	r3, [r3, #20]
    9af2:	429a      	cmp	r2, r3
    9af4:	bf08      	it	eq
    9af6:	f10c 0c02 	addeq.w	ip, ip, #2
    9afa:	f43f ae10 	beq.w	971e <_malloc_r+0xd6>
    9afe:	e5c8      	b.n	9692 <_malloc_r+0x4a>
    9b00:	4680      	mov	r8, r0
    9b02:	1843      	adds	r3, r0, r1
    9b04:	68c2      	ldr	r2, [r0, #12]
    9b06:	4630      	mov	r0, r6
    9b08:	f858 1f08 	ldr.w	r1, [r8, #8]!
    9b0c:	e5ca      	b.n	96a4 <_malloc_r+0x5c>
    9b0e:	45b8      	cmp	r8, r7
    9b10:	f43f aeed 	beq.w	98ee <_malloc_r+0x2a6>
    9b14:	f8d7 8008 	ldr.w	r8, [r7, #8]
    9b18:	f8d8 3004 	ldr.w	r3, [r8, #4]
    9b1c:	f023 0303 	bic.w	r3, r3, #3
    9b20:	e758      	b.n	99d4 <_malloc_r+0x38c>
    9b22:	f04f 0901 	mov.w	r9, #1
    9b26:	f8d7 8004 	ldr.w	r8, [r7, #4]
    9b2a:	ea4f 00ae 	mov.w	r0, lr, asr #2
    9b2e:	468e      	mov	lr, r1
    9b30:	fa09 f000 	lsl.w	r0, r9, r0
    9b34:	ea48 0000 	orr.w	r0, r8, r0
    9b38:	6078      	str	r0, [r7, #4]
    9b3a:	e7b5      	b.n	9aa8 <_malloc_r+0x460>
    9b3c:	4698      	mov	r8, r3
    9b3e:	2201      	movs	r2, #1
    9b40:	605a      	str	r2, [r3, #4]
    9b42:	2300      	movs	r3, #0
    9b44:	e746      	b.n	99d4 <_malloc_r+0x38c>
    9b46:	4651      	mov	r1, sl
    9b48:	f01c 0f03 	tst.w	ip, #3
    9b4c:	460b      	mov	r3, r1
    9b4e:	f10c 3cff 	add.w	ip, ip, #4294967295
    9b52:	d02c      	beq.n	9bae <_malloc_r+0x566>
    9b54:	f853 1908 	ldr.w	r1, [r3], #-8
    9b58:	4299      	cmp	r1, r3
    9b5a:	d0f5      	beq.n	9b48 <_malloc_r+0x500>
    9b5c:	687b      	ldr	r3, [r7, #4]
    9b5e:	ea4f 0e4e 	mov.w	lr, lr, lsl #1
    9b62:	459e      	cmp	lr, r3
    9b64:	f63f ae8c 	bhi.w	9880 <_malloc_r+0x238>
    9b68:	f1be 0f00 	cmp.w	lr, #0
    9b6c:	f43f ae88 	beq.w	9880 <_malloc_r+0x238>
    9b70:	ea1e 0f03 	tst.w	lr, r3
    9b74:	d020      	beq.n	9bb8 <_malloc_r+0x570>
    9b76:	46cc      	mov	ip, r9
    9b78:	e610      	b.n	979c <_malloc_r+0x154>
    9b7a:	ea4f 5e01 	mov.w	lr, r1, lsl #20
    9b7e:	ea4f 5e1e 	mov.w	lr, lr, lsr #20
    9b82:	f1be 0f00 	cmp.w	lr, #0
    9b86:	f47f aeba 	bne.w	98fe <_malloc_r+0x2b6>
    9b8a:	68bb      	ldr	r3, [r7, #8]
    9b8c:	eb0b 0109 	add.w	r1, fp, r9
    9b90:	f041 0101 	orr.w	r1, r1, #1
    9b94:	6059      	str	r1, [r3, #4]
    9b96:	e704      	b.n	99a2 <_malloc_r+0x35a>
    9b98:	4630      	mov	r0, r6
    9b9a:	f108 0108 	add.w	r1, r8, #8
    9b9e:	f001 fca7 	bl	b4f0 <_free_r>
    9ba2:	f8db 2004 	ldr.w	r2, [fp, #4]
    9ba6:	e6fc      	b.n	99a2 <_malloc_r+0x35a>
    9ba8:	2101      	movs	r1, #1
    9baa:	2500      	movs	r5, #0
    9bac:	e6d4      	b.n	9958 <_malloc_r+0x310>
    9bae:	687b      	ldr	r3, [r7, #4]
    9bb0:	ea23 030e 	bic.w	r3, r3, lr
    9bb4:	607b      	str	r3, [r7, #4]
    9bb6:	e7d1      	b.n	9b5c <_malloc_r+0x514>
    9bb8:	ea4f 0e4e 	mov.w	lr, lr, lsl #1
    9bbc:	f109 0904 	add.w	r9, r9, #4
    9bc0:	e7d6      	b.n	9b70 <_malloc_r+0x528>
    9bc2:	bf00      	nop

00009bc4 <memchr>:
    9bc4:	f010 0f03 	tst.w	r0, #3
    9bc8:	4603      	mov	r3, r0
    9bca:	b470      	push	{r4, r5, r6}
    9bcc:	b2c9      	uxtb	r1, r1
    9bce:	d010      	beq.n	9bf2 <memchr+0x2e>
    9bd0:	b302      	cbz	r2, 9c14 <memchr+0x50>
    9bd2:	7803      	ldrb	r3, [r0, #0]
    9bd4:	428b      	cmp	r3, r1
    9bd6:	d01e      	beq.n	9c16 <memchr+0x52>
    9bd8:	3a01      	subs	r2, #1
    9bda:	3001      	adds	r0, #1
    9bdc:	e005      	b.n	9bea <memchr+0x26>
    9bde:	b1ca      	cbz	r2, 9c14 <memchr+0x50>
    9be0:	f810 4b01 	ldrb.w	r4, [r0], #1
    9be4:	3a01      	subs	r2, #1
    9be6:	428c      	cmp	r4, r1
    9be8:	d017      	beq.n	9c1a <memchr+0x56>
    9bea:	f010 0f03 	tst.w	r0, #3
    9bee:	4603      	mov	r3, r0
    9bf0:	d1f5      	bne.n	9bde <memchr+0x1a>
    9bf2:	2a03      	cmp	r2, #3
    9bf4:	d813      	bhi.n	9c1e <memchr+0x5a>
    9bf6:	b16a      	cbz	r2, 9c14 <memchr+0x50>
    9bf8:	7818      	ldrb	r0, [r3, #0]
    9bfa:	4288      	cmp	r0, r1
    9bfc:	d00d      	beq.n	9c1a <memchr+0x56>
    9bfe:	3a01      	subs	r2, #1
    9c00:	1c5c      	adds	r4, r3, #1
    9c02:	e004      	b.n	9c0e <memchr+0x4a>
    9c04:	f814 5b01 	ldrb.w	r5, [r4], #1
    9c08:	3a01      	subs	r2, #1
    9c0a:	428d      	cmp	r5, r1
    9c0c:	d003      	beq.n	9c16 <memchr+0x52>
    9c0e:	4620      	mov	r0, r4
    9c10:	2a00      	cmp	r2, #0
    9c12:	d1f7      	bne.n	9c04 <memchr+0x40>
    9c14:	4610      	mov	r0, r2
    9c16:	bc70      	pop	{r4, r5, r6}
    9c18:	4770      	bx	lr
    9c1a:	4618      	mov	r0, r3
    9c1c:	e7fb      	b.n	9c16 <memchr+0x52>
    9c1e:	ea41 2601 	orr.w	r6, r1, r1, lsl #8
    9c22:	ea46 4606 	orr.w	r6, r6, r6, lsl #16
    9c26:	4618      	mov	r0, r3
    9c28:	f853 4b04 	ldr.w	r4, [r3], #4
    9c2c:	ea86 0404 	eor.w	r4, r6, r4
    9c30:	f1a4 3501 	sub.w	r5, r4, #16843009	; 0x1010101
    9c34:	ea25 0404 	bic.w	r4, r5, r4
    9c38:	f014 3f80 	tst.w	r4, #2155905152	; 0x80808080
    9c3c:	d103      	bne.n	9c46 <memchr+0x82>
    9c3e:	3a04      	subs	r2, #4
    9c40:	4618      	mov	r0, r3
    9c42:	2a03      	cmp	r2, #3
    9c44:	d8ef      	bhi.n	9c26 <memchr+0x62>
    9c46:	4603      	mov	r3, r0
    9c48:	e7d5      	b.n	9bf6 <memchr+0x32>
    9c4a:	bf00      	nop

00009c4c <__malloc_lock>:
    9c4c:	4770      	bx	lr
    9c4e:	bf00      	nop

00009c50 <__malloc_unlock>:
    9c50:	4770      	bx	lr
    9c52:	bf00      	nop

00009c54 <_Balloc>:
    9c54:	b570      	push	{r4, r5, r6, lr}
    9c56:	4606      	mov	r6, r0
    9c58:	6a44      	ldr	r4, [r0, #36]	; 0x24
    9c5a:	460d      	mov	r5, r1
    9c5c:	b15c      	cbz	r4, 9c76 <_Balloc+0x22>
    9c5e:	68e3      	ldr	r3, [r4, #12]
    9c60:	b19b      	cbz	r3, 9c8a <_Balloc+0x36>
    9c62:	f853 0025 	ldr.w	r0, [r3, r5, lsl #2]
    9c66:	b1e0      	cbz	r0, 9ca2 <_Balloc+0x4e>
    9c68:	6802      	ldr	r2, [r0, #0]
    9c6a:	f843 2025 	str.w	r2, [r3, r5, lsl #2]
    9c6e:	2300      	movs	r3, #0
    9c70:	6103      	str	r3, [r0, #16]
    9c72:	60c3      	str	r3, [r0, #12]
    9c74:	bd70      	pop	{r4, r5, r6, pc}
    9c76:	2010      	movs	r0, #16
    9c78:	f7ff fcd6 	bl	9628 <malloc>
    9c7c:	2300      	movs	r3, #0
    9c7e:	4604      	mov	r4, r0
    9c80:	6270      	str	r0, [r6, #36]	; 0x24
    9c82:	6043      	str	r3, [r0, #4]
    9c84:	6083      	str	r3, [r0, #8]
    9c86:	6003      	str	r3, [r0, #0]
    9c88:	60c3      	str	r3, [r0, #12]
    9c8a:	4630      	mov	r0, r6
    9c8c:	2104      	movs	r1, #4
    9c8e:	2221      	movs	r2, #33	; 0x21
    9c90:	f001 fbac 	bl	b3ec <_calloc_r>
    9c94:	6a73      	ldr	r3, [r6, #36]	; 0x24
    9c96:	60e0      	str	r0, [r4, #12]
    9c98:	68db      	ldr	r3, [r3, #12]
    9c9a:	2b00      	cmp	r3, #0
    9c9c:	d1e1      	bne.n	9c62 <_Balloc+0xe>
    9c9e:	4618      	mov	r0, r3
    9ca0:	bd70      	pop	{r4, r5, r6, pc}
    9ca2:	2401      	movs	r4, #1
    9ca4:	4630      	mov	r0, r6
    9ca6:	4621      	mov	r1, r4
    9ca8:	40ac      	lsls	r4, r5
    9caa:	1d62      	adds	r2, r4, #5
    9cac:	0092      	lsls	r2, r2, #2
    9cae:	f001 fb9d 	bl	b3ec <_calloc_r>
    9cb2:	2800      	cmp	r0, #0
    9cb4:	d0f4      	beq.n	9ca0 <_Balloc+0x4c>
    9cb6:	6045      	str	r5, [r0, #4]
    9cb8:	6084      	str	r4, [r0, #8]
    9cba:	e7d8      	b.n	9c6e <_Balloc+0x1a>

00009cbc <_Bfree>:
    9cbc:	b530      	push	{r4, r5, lr}
    9cbe:	4604      	mov	r4, r0
    9cc0:	6a45      	ldr	r5, [r0, #36]	; 0x24
    9cc2:	b083      	sub	sp, #12
    9cc4:	b155      	cbz	r5, 9cdc <_Bfree+0x20>
    9cc6:	b139      	cbz	r1, 9cd8 <_Bfree+0x1c>
    9cc8:	6a63      	ldr	r3, [r4, #36]	; 0x24
    9cca:	684a      	ldr	r2, [r1, #4]
    9ccc:	68db      	ldr	r3, [r3, #12]
    9cce:	f853 0022 	ldr.w	r0, [r3, r2, lsl #2]
    9cd2:	6008      	str	r0, [r1, #0]
    9cd4:	f843 1022 	str.w	r1, [r3, r2, lsl #2]
    9cd8:	b003      	add	sp, #12
    9cda:	bd30      	pop	{r4, r5, pc}
    9cdc:	2010      	movs	r0, #16
    9cde:	9101      	str	r1, [sp, #4]
    9ce0:	f7ff fca2 	bl	9628 <malloc>
    9ce4:	9901      	ldr	r1, [sp, #4]
    9ce6:	6260      	str	r0, [r4, #36]	; 0x24
    9ce8:	6045      	str	r5, [r0, #4]
    9cea:	6085      	str	r5, [r0, #8]
    9cec:	6005      	str	r5, [r0, #0]
    9cee:	60c5      	str	r5, [r0, #12]
    9cf0:	e7e9      	b.n	9cc6 <_Bfree+0xa>
    9cf2:	bf00      	nop

00009cf4 <__multadd>:
    9cf4:	e92d 41f0 	stmdb	sp!, {r4, r5, r6, r7, r8, lr}
    9cf8:	460c      	mov	r4, r1
    9cfa:	4605      	mov	r5, r0
    9cfc:	690e      	ldr	r6, [r1, #16]
    9cfe:	f101 0014 	add.w	r0, r1, #20
    9d02:	b082      	sub	sp, #8
    9d04:	2100      	movs	r1, #0
    9d06:	6807      	ldr	r7, [r0, #0]
    9d08:	3101      	adds	r1, #1
    9d0a:	fa1f fc87 	uxth.w	ip, r7
    9d0e:	0c3f      	lsrs	r7, r7, #16
    9d10:	fb0c 3302 	mla	r3, ip, r2, r3
    9d14:	fb07 f702 	mul.w	r7, r7, r2
    9d18:	eb07 4713 	add.w	r7, r7, r3, lsr #16
    9d1c:	fa1f fc83 	uxth.w	ip, r3
    9d20:	0c3b      	lsrs	r3, r7, #16
    9d22:	428e      	cmp	r6, r1
    9d24:	ea4f 4807 	mov.w	r8, r7, lsl #16
    9d28:	eb08 070c 	add.w	r7, r8, ip
    9d2c:	f840 7b04 	str.w	r7, [r0], #4
    9d30:	dce9      	bgt.n	9d06 <__multadd+0x12>
    9d32:	b13b      	cbz	r3, 9d44 <__multadd+0x50>
    9d34:	68a2      	ldr	r2, [r4, #8]
    9d36:	4296      	cmp	r6, r2
    9d38:	da08      	bge.n	9d4c <__multadd+0x58>
    9d3a:	eb04 0286 	add.w	r2, r4, r6, lsl #2
    9d3e:	3601      	adds	r6, #1
    9d40:	6126      	str	r6, [r4, #16]
    9d42:	6153      	str	r3, [r2, #20]
    9d44:	4620      	mov	r0, r4
    9d46:	b002      	add	sp, #8
    9d48:	e8bd 81f0 	ldmia.w	sp!, {r4, r5, r6, r7, r8, pc}
    9d4c:	6861      	ldr	r1, [r4, #4]
    9d4e:	4628      	mov	r0, r5
    9d50:	9301      	str	r3, [sp, #4]
    9d52:	3101      	adds	r1, #1
    9d54:	f7ff ff7e 	bl	9c54 <_Balloc>
    9d58:	6922      	ldr	r2, [r4, #16]
    9d5a:	f104 010c 	add.w	r1, r4, #12
    9d5e:	3202      	adds	r2, #2
    9d60:	0092      	lsls	r2, r2, #2
    9d62:	4607      	mov	r7, r0
    9d64:	300c      	adds	r0, #12
    9d66:	f7fc ff29 	bl	6bbc <memcpy>
    9d6a:	4621      	mov	r1, r4
    9d6c:	4628      	mov	r0, r5
    9d6e:	463c      	mov	r4, r7
    9d70:	f7ff ffa4 	bl	9cbc <_Bfree>
    9d74:	9b01      	ldr	r3, [sp, #4]
    9d76:	e7e0      	b.n	9d3a <__multadd+0x46>

00009d78 <__s2b>:
    9d78:	e92d 43f8 	stmdb	sp!, {r3, r4, r5, r6, r7, r8, r9, lr}
    9d7c:	f648 6439 	movw	r4, #36409	; 0x8e39
    9d80:	461e      	mov	r6, r3
    9d82:	f6c3 04e3 	movt	r4, #14563	; 0x38e3
    9d86:	3308      	adds	r3, #8
    9d88:	4688      	mov	r8, r1
    9d8a:	4605      	mov	r5, r0
    9d8c:	4617      	mov	r7, r2
    9d8e:	fb84 1403 	smull	r1, r4, r4, r3
    9d92:	17db      	asrs	r3, r3, #31
    9d94:	ebc3 0364 	rsb	r3, r3, r4, asr #1
    9d98:	2b01      	cmp	r3, #1
    9d9a:	dd34      	ble.n	9e06 <__s2b+0x8e>
    9d9c:	2201      	movs	r2, #1
    9d9e:	2100      	movs	r1, #0
    9da0:	0052      	lsls	r2, r2, #1
    9da2:	3101      	adds	r1, #1
    9da4:	4293      	cmp	r3, r2
    9da6:	dcfb      	bgt.n	9da0 <__s2b+0x28>
    9da8:	4628      	mov	r0, r5
    9daa:	f7ff ff53 	bl	9c54 <_Balloc>
    9dae:	9b08      	ldr	r3, [sp, #32]
    9db0:	6143      	str	r3, [r0, #20]
    9db2:	2301      	movs	r3, #1
    9db4:	2f09      	cmp	r7, #9
    9db6:	4601      	mov	r1, r0
    9db8:	6103      	str	r3, [r0, #16]
    9dba:	dd20      	ble.n	9dfe <__s2b+0x86>
    9dbc:	f108 0909 	add.w	r9, r8, #9
    9dc0:	2409      	movs	r4, #9
    9dc2:	f818 3004 	ldrb.w	r3, [r8, r4]
    9dc6:	220a      	movs	r2, #10
    9dc8:	4628      	mov	r0, r5
    9dca:	3401      	adds	r4, #1
    9dcc:	3b30      	subs	r3, #48	; 0x30
    9dce:	f7ff ff91 	bl	9cf4 <__multadd>
    9dd2:	42a7      	cmp	r7, r4
    9dd4:	4601      	mov	r1, r0
    9dd6:	dcf4      	bgt.n	9dc2 <__s2b+0x4a>
    9dd8:	eb09 0807 	add.w	r8, r9, r7
    9ddc:	f1a8 0808 	sub.w	r8, r8, #8
    9de0:	e008      	b.n	9df4 <__s2b+0x7c>
    9de2:	f818 3b01 	ldrb.w	r3, [r8], #1
    9de6:	4628      	mov	r0, r5
    9de8:	220a      	movs	r2, #10
    9dea:	3701      	adds	r7, #1
    9dec:	3b30      	subs	r3, #48	; 0x30
    9dee:	f7ff ff81 	bl	9cf4 <__multadd>
    9df2:	4601      	mov	r1, r0
    9df4:	42be      	cmp	r6, r7
    9df6:	dcf4      	bgt.n	9de2 <__s2b+0x6a>
    9df8:	4608      	mov	r0, r1
    9dfa:	e8bd 83f8 	ldmia.w	sp!, {r3, r4, r5, r6, r7, r8, r9, pc}
    9dfe:	f108 080a 	add.w	r8, r8, #10
    9e02:	2709      	movs	r7, #9
    9e04:	e7f6      	b.n	9df4 <__s2b+0x7c>
    9e06:	2100      	movs	r1, #0
    9e08:	e7ce      	b.n	9da8 <__s2b+0x30>
    9e0a:	bf00      	nop

00009e0c <__hi0bits>:
    9e0c:	0c02      	lsrs	r2, r0, #16
    9e0e:	4603      	mov	r3, r0
    9e10:	d119      	bne.n	9e46 <__hi0bits+0x3a>
    9e12:	0403      	lsls	r3, r0, #16
    9e14:	2010      	movs	r0, #16
    9e16:	f013 4f7f 	tst.w	r3, #4278190080	; 0xff000000
    9e1a:	d101      	bne.n	9e20 <__hi0bits+0x14>
    9e1c:	3008      	adds	r0, #8
    9e1e:	021b      	lsls	r3, r3, #8
    9e20:	f013 4f70 	tst.w	r3, #4026531840	; 0xf0000000
    9e24:	d101      	bne.n	9e2a <__hi0bits+0x1e>
    9e26:	3004      	adds	r0, #4
    9e28:	011b      	lsls	r3, r3, #4
    9e2a:	f013 4f40 	tst.w	r3, #3221225472	; 0xc0000000
    9e2e:	d101      	bne.n	9e34 <__hi0bits+0x28>
    9e30:	3002      	adds	r0, #2
    9e32:	009b      	lsls	r3, r3, #2
    9e34:	2b00      	cmp	r3, #0
    9e36:	db05      	blt.n	9e44 <__hi0bits+0x38>
    9e38:	f013 4f80 	tst.w	r3, #1073741824	; 0x40000000
    9e3c:	d001      	beq.n	9e42 <__hi0bits+0x36>
    9e3e:	3001      	adds	r0, #1
    9e40:	4770      	bx	lr
    9e42:	2020      	movs	r0, #32
    9e44:	4770      	bx	lr
    9e46:	2000      	movs	r0, #0
    9e48:	e7e5      	b.n	9e16 <__hi0bits+0xa>
    9e4a:	bf00      	nop

00009e4c <__lo0bits>:
    9e4c:	6803      	ldr	r3, [r0, #0]
    9e4e:	4602      	mov	r2, r0
    9e50:	f013 0007 	ands.w	r0, r3, #7
    9e54:	d009      	beq.n	9e6a <__lo0bits+0x1e>
    9e56:	f013 0f01 	tst.w	r3, #1
    9e5a:	d121      	bne.n	9ea0 <__lo0bits+0x54>
    9e5c:	f013 0f02 	tst.w	r3, #2
    9e60:	d122      	bne.n	9ea8 <__lo0bits+0x5c>
    9e62:	089b      	lsrs	r3, r3, #2
    9e64:	2002      	movs	r0, #2
    9e66:	6013      	str	r3, [r2, #0]
    9e68:	4770      	bx	lr
    9e6a:	b299      	uxth	r1, r3
    9e6c:	b909      	cbnz	r1, 9e72 <__lo0bits+0x26>
    9e6e:	0c1b      	lsrs	r3, r3, #16
    9e70:	2010      	movs	r0, #16
    9e72:	f013 0fff 	tst.w	r3, #255	; 0xff
    9e76:	d101      	bne.n	9e7c <__lo0bits+0x30>
    9e78:	3008      	adds	r0, #8
    9e7a:	0a1b      	lsrs	r3, r3, #8
    9e7c:	f013 0f0f 	tst.w	r3, #15
    9e80:	d101      	bne.n	9e86 <__lo0bits+0x3a>
    9e82:	3004      	adds	r0, #4
    9e84:	091b      	lsrs	r3, r3, #4
    9e86:	f013 0f03 	tst.w	r3, #3
    9e8a:	d101      	bne.n	9e90 <__lo0bits+0x44>
    9e8c:	3002      	adds	r0, #2
    9e8e:	089b      	lsrs	r3, r3, #2
    9e90:	f013 0f01 	tst.w	r3, #1
    9e94:	d102      	bne.n	9e9c <__lo0bits+0x50>
    9e96:	085b      	lsrs	r3, r3, #1
    9e98:	d004      	beq.n	9ea4 <__lo0bits+0x58>
    9e9a:	3001      	adds	r0, #1
    9e9c:	6013      	str	r3, [r2, #0]
    9e9e:	4770      	bx	lr
    9ea0:	2000      	movs	r0, #0
    9ea2:	4770      	bx	lr
    9ea4:	2020      	movs	r0, #32
    9ea6:	4770      	bx	lr
    9ea8:	085b      	lsrs	r3, r3, #1
    9eaa:	2001      	movs	r0, #1
    9eac:	6013      	str	r3, [r2, #0]
    9eae:	4770      	bx	lr

00009eb0 <__i2b>:
    9eb0:	b510      	push	{r4, lr}
    9eb2:	460c      	mov	r4, r1
    9eb4:	2101      	movs	r1, #1
    9eb6:	f7ff fecd 	bl	9c54 <_Balloc>
    9eba:	2201      	movs	r2, #1
    9ebc:	6144      	str	r4, [r0, #20]
    9ebe:	6102      	str	r2, [r0, #16]
    9ec0:	bd10      	pop	{r4, pc}
    9ec2:	bf00      	nop

00009ec4 <__multiply>:
    9ec4:	e92d 4ff0 	stmdb	sp!, {r4, r5, r6, r7, r8, r9, sl, fp, lr}
    9ec8:	460d      	mov	r5, r1
    9eca:	690f      	ldr	r7, [r1, #16]
    9ecc:	b085      	sub	sp, #20
    9ece:	6916      	ldr	r6, [r2, #16]
    9ed0:	4690      	mov	r8, r2
    9ed2:	42b7      	cmp	r7, r6
    9ed4:	da04      	bge.n	9ee0 <__multiply+0x1c>
    9ed6:	463a      	mov	r2, r7
    9ed8:	4645      	mov	r5, r8
    9eda:	4637      	mov	r7, r6
    9edc:	4688      	mov	r8, r1
    9ede:	4616      	mov	r6, r2
    9ee0:	68ab      	ldr	r3, [r5, #8]
    9ee2:	19f4      	adds	r4, r6, r7
    9ee4:	6869      	ldr	r1, [r5, #4]
    9ee6:	429c      	cmp	r4, r3
    9ee8:	bfc8      	it	gt
    9eea:	3101      	addgt	r1, #1
    9eec:	f7ff feb2 	bl	9c54 <_Balloc>
    9ef0:	eb00 0384 	add.w	r3, r0, r4, lsl #2
    9ef4:	f100 0c14 	add.w	ip, r0, #20
    9ef8:	3314      	adds	r3, #20
    9efa:	9001      	str	r0, [sp, #4]
    9efc:	459c      	cmp	ip, r3
    9efe:	9302      	str	r3, [sp, #8]
    9f00:	d206      	bcs.n	9f10 <__multiply+0x4c>
    9f02:	9902      	ldr	r1, [sp, #8]
    9f04:	4663      	mov	r3, ip
    9f06:	2200      	movs	r2, #0
    9f08:	f843 2b04 	str.w	r2, [r3], #4
    9f0c:	4299      	cmp	r1, r3
    9f0e:	d8fb      	bhi.n	9f08 <__multiply+0x44>
    9f10:	eb08 0686 	add.w	r6, r8, r6, lsl #2
    9f14:	eb05 0787 	add.w	r7, r5, r7, lsl #2
    9f18:	f108 0814 	add.w	r8, r8, #20
    9f1c:	3614      	adds	r6, #20
    9f1e:	3514      	adds	r5, #20
    9f20:	3714      	adds	r7, #20
    9f22:	45b0      	cmp	r8, r6
    9f24:	9500      	str	r5, [sp, #0]
    9f26:	d24d      	bcs.n	9fc4 <__multiply+0x100>
    9f28:	9403      	str	r4, [sp, #12]
    9f2a:	f858 4b04 	ldr.w	r4, [r8], #4
    9f2e:	b2a0      	uxth	r0, r4
    9f30:	b1f0      	cbz	r0, 9f70 <__multiply+0xac>
    9f32:	9a00      	ldr	r2, [sp, #0]
    9f34:	4663      	mov	r3, ip
    9f36:	2400      	movs	r4, #0
    9f38:	f852 5b04 	ldr.w	r5, [r2], #4
    9f3c:	6819      	ldr	r1, [r3, #0]
    9f3e:	fa1f fa85 	uxth.w	sl, r5
    9f42:	0c2d      	lsrs	r5, r5, #16
    9f44:	fa1f f981 	uxth.w	r9, r1
    9f48:	0c09      	lsrs	r1, r1, #16
    9f4a:	fb00 990a 	mla	r9, r0, sl, r9
    9f4e:	fb00 1105 	mla	r1, r0, r5, r1
    9f52:	44a1      	add	r9, r4
    9f54:	eb01 4119 	add.w	r1, r1, r9, lsr #16
    9f58:	fa1f f989 	uxth.w	r9, r9
    9f5c:	0c0c      	lsrs	r4, r1, #16
    9f5e:	4297      	cmp	r7, r2
    9f60:	ea49 4501 	orr.w	r5, r9, r1, lsl #16
    9f64:	f843 5b04 	str.w	r5, [r3], #4
    9f68:	d8e6      	bhi.n	9f38 <__multiply+0x74>
    9f6a:	601c      	str	r4, [r3, #0]
    9f6c:	f858 4c04 	ldr.w	r4, [r8, #-4]
    9f70:	0c24      	lsrs	r4, r4, #16
    9f72:	d021      	beq.n	9fb8 <__multiply+0xf4>
    9f74:	f8dc 2000 	ldr.w	r2, [ip]
    9f78:	4660      	mov	r0, ip
    9f7a:	9b00      	ldr	r3, [sp, #0]
    9f7c:	46e1      	mov	r9, ip
    9f7e:	4611      	mov	r1, r2
    9f80:	2500      	movs	r5, #0
    9f82:	f8b3 a000 	ldrh.w	sl, [r3]
    9f86:	fa1f fb82 	uxth.w	fp, r2
    9f8a:	fb0a 5504 	mla	r5, sl, r4, r5
    9f8e:	eb05 4511 	add.w	r5, r5, r1, lsr #16
    9f92:	ea4b 4205 	orr.w	r2, fp, r5, lsl #16
    9f96:	f840 2b04 	str.w	r2, [r0], #4
    9f9a:	f853 2b04 	ldr.w	r2, [r3], #4
    9f9e:	f859 1f04 	ldr.w	r1, [r9, #4]!
    9fa2:	0c12      	lsrs	r2, r2, #16
    9fa4:	fa1f fa81 	uxth.w	sl, r1
    9fa8:	fb02 a204 	mla	r2, r2, r4, sl
    9fac:	eb02 4215 	add.w	r2, r2, r5, lsr #16
    9fb0:	0c15      	lsrs	r5, r2, #16
    9fb2:	429f      	cmp	r7, r3
    9fb4:	d8e5      	bhi.n	9f82 <__multiply+0xbe>
    9fb6:	6002      	str	r2, [r0, #0]
    9fb8:	4546      	cmp	r6, r8
    9fba:	d902      	bls.n	9fc2 <__multiply+0xfe>
    9fbc:	f10c 0c04 	add.w	ip, ip, #4
    9fc0:	e7b3      	b.n	9f2a <__multiply+0x66>
    9fc2:	9c03      	ldr	r4, [sp, #12]
    9fc4:	2c00      	cmp	r4, #0
    9fc6:	dd0b      	ble.n	9fe0 <__multiply+0x11c>
    9fc8:	9902      	ldr	r1, [sp, #8]
    9fca:	1f0b      	subs	r3, r1, #4
    9fcc:	f851 2c04 	ldr.w	r2, [r1, #-4]
    9fd0:	b11a      	cbz	r2, 9fda <__multiply+0x116>
    9fd2:	e005      	b.n	9fe0 <__multiply+0x11c>
    9fd4:	f853 2d04 	ldr.w	r2, [r3, #-4]!
    9fd8:	b912      	cbnz	r2, 9fe0 <__multiply+0x11c>
    9fda:	3c01      	subs	r4, #1
    9fdc:	2c00      	cmp	r4, #0
    9fde:	dcf9      	bgt.n	9fd4 <__multiply+0x110>
    9fe0:	9a01      	ldr	r2, [sp, #4]
    9fe2:	4610      	mov	r0, r2
    9fe4:	6114      	str	r4, [r2, #16]
    9fe6:	b005      	add	sp, #20
    9fe8:	e8bd 8ff0 	ldmia.w	sp!, {r4, r5, r6, r7, r8, r9, sl, fp, pc}

00009fec <__pow5mult>:
    9fec:	f012 0303 	ands.w	r3, r2, #3
    9ff0:	e92d 41f0 	stmdb	sp!, {r4, r5, r6, r7, r8, lr}
    9ff4:	4615      	mov	r5, r2
    9ff6:	4604      	mov	r4, r0
    9ff8:	4688      	mov	r8, r1
    9ffa:	d128      	bne.n	a04e <__pow5mult+0x62>
    9ffc:	10ad      	asrs	r5, r5, #2
    9ffe:	d01a      	beq.n	a036 <__pow5mult+0x4a>
    a000:	6a66      	ldr	r6, [r4, #36]	; 0x24
    a002:	2e00      	cmp	r6, #0
    a004:	d02f      	beq.n	a066 <__pow5mult+0x7a>
    a006:	68b7      	ldr	r7, [r6, #8]
    a008:	b92f      	cbnz	r7, a016 <__pow5mult+0x2a>
    a00a:	e036      	b.n	a07a <__pow5mult+0x8e>
    a00c:	106d      	asrs	r5, r5, #1
    a00e:	d012      	beq.n	a036 <__pow5mult+0x4a>
    a010:	683e      	ldr	r6, [r7, #0]
    a012:	b19e      	cbz	r6, a03c <__pow5mult+0x50>
    a014:	4637      	mov	r7, r6
    a016:	f015 0f01 	tst.w	r5, #1
    a01a:	d0f7      	beq.n	a00c <__pow5mult+0x20>
    a01c:	4641      	mov	r1, r8
    a01e:	463a      	mov	r2, r7
    a020:	4620      	mov	r0, r4
    a022:	f7ff ff4f 	bl	9ec4 <__multiply>
    a026:	4641      	mov	r1, r8
    a028:	4606      	mov	r6, r0
    a02a:	4620      	mov	r0, r4
    a02c:	f7ff fe46 	bl	9cbc <_Bfree>
    a030:	106d      	asrs	r5, r5, #1
    a032:	46b0      	mov	r8, r6
    a034:	d1ec      	bne.n	a010 <__pow5mult+0x24>
    a036:	4640      	mov	r0, r8
    a038:	e8bd 81f0 	ldmia.w	sp!, {r4, r5, r6, r7, r8, pc}
    a03c:	4639      	mov	r1, r7
    a03e:	463a      	mov	r2, r7
    a040:	4620      	mov	r0, r4
    a042:	f7ff ff3f 	bl	9ec4 <__multiply>
    a046:	6038      	str	r0, [r7, #0]
    a048:	4607      	mov	r7, r0
    a04a:	6006      	str	r6, [r0, #0]
    a04c:	e7e3      	b.n	a016 <__pow5mult+0x2a>
    a04e:	f24d 1258 	movw	r2, #53592	; 0xd158
    a052:	1e5e      	subs	r6, r3, #1
    a054:	f2c0 0200 	movt	r2, #0
    a058:	2300      	movs	r3, #0
    a05a:	f852 2026 	ldr.w	r2, [r2, r6, lsl #2]
    a05e:	f7ff fe49 	bl	9cf4 <__multadd>
    a062:	4680      	mov	r8, r0
    a064:	e7ca      	b.n	9ffc <__pow5mult+0x10>
    a066:	2010      	movs	r0, #16
    a068:	f7ff fade 	bl	9628 <malloc>
    a06c:	2300      	movs	r3, #0
    a06e:	4606      	mov	r6, r0
    a070:	6260      	str	r0, [r4, #36]	; 0x24
    a072:	6043      	str	r3, [r0, #4]
    a074:	6083      	str	r3, [r0, #8]
    a076:	6003      	str	r3, [r0, #0]
    a078:	60c3      	str	r3, [r0, #12]
    a07a:	4620      	mov	r0, r4
    a07c:	f240 2171 	movw	r1, #625	; 0x271
    a080:	f7ff ff16 	bl	9eb0 <__i2b>
    a084:	2300      	movs	r3, #0
    a086:	60b0      	str	r0, [r6, #8]
    a088:	4607      	mov	r7, r0
    a08a:	6003      	str	r3, [r0, #0]
    a08c:	e7c3      	b.n	a016 <__pow5mult+0x2a>
    a08e:	bf00      	nop

0000a090 <__lshift>:
    a090:	e92d 43f8 	stmdb	sp!, {r3, r4, r5, r6, r7, r8, r9, lr}
    a094:	1156      	asrs	r6, r2, #5
    a096:	690d      	ldr	r5, [r1, #16]
    a098:	460c      	mov	r4, r1
    a09a:	688b      	ldr	r3, [r1, #8]
    a09c:	4690      	mov	r8, r2
    a09e:	3501      	adds	r5, #1
    a0a0:	4681      	mov	r9, r0
    a0a2:	19ad      	adds	r5, r5, r6
    a0a4:	6849      	ldr	r1, [r1, #4]
    a0a6:	429d      	cmp	r5, r3
    a0a8:	dd03      	ble.n	a0b2 <__lshift+0x22>
    a0aa:	005b      	lsls	r3, r3, #1
    a0ac:	3101      	adds	r1, #1
    a0ae:	429d      	cmp	r5, r3
    a0b0:	dcfb      	bgt.n	a0aa <__lshift+0x1a>
    a0b2:	4648      	mov	r0, r9
    a0b4:	f7ff fdce 	bl	9c54 <_Balloc>
    a0b8:	2e00      	cmp	r6, #0
    a0ba:	4607      	mov	r7, r0
    a0bc:	f100 0214 	add.w	r2, r0, #20
    a0c0:	dd0a      	ble.n	a0d8 <__lshift+0x48>
    a0c2:	2300      	movs	r3, #0
    a0c4:	4619      	mov	r1, r3
    a0c6:	3301      	adds	r3, #1
    a0c8:	f842 1b04 	str.w	r1, [r2], #4
    a0cc:	42b3      	cmp	r3, r6
    a0ce:	d1fa      	bne.n	a0c6 <__lshift+0x36>
    a0d0:	eb07 0383 	add.w	r3, r7, r3, lsl #2
    a0d4:	f103 0214 	add.w	r2, r3, #20
    a0d8:	6926      	ldr	r6, [r4, #16]
    a0da:	f104 0114 	add.w	r1, r4, #20
    a0de:	eb04 0686 	add.w	r6, r4, r6, lsl #2
    a0e2:	3614      	adds	r6, #20
    a0e4:	f018 081f 	ands.w	r8, r8, #31
    a0e8:	d01a      	beq.n	a120 <__lshift+0x90>
    a0ea:	f1c8 0e20 	rsb	lr, r8, #32
    a0ee:	2000      	movs	r0, #0
    a0f0:	680b      	ldr	r3, [r1, #0]
    a0f2:	fa03 f308 	lsl.w	r3, r3, r8
    a0f6:	4318      	orrs	r0, r3
    a0f8:	f842 0b04 	str.w	r0, [r2], #4
    a0fc:	f851 0b04 	ldr.w	r0, [r1], #4
    a100:	428e      	cmp	r6, r1
    a102:	fa20 f00e 	lsr.w	r0, r0, lr
    a106:	d8f3      	bhi.n	a0f0 <__lshift+0x60>
    a108:	6010      	str	r0, [r2, #0]
    a10a:	b100      	cbz	r0, a10e <__lshift+0x7e>
    a10c:	3501      	adds	r5, #1
    a10e:	4648      	mov	r0, r9
    a110:	3d01      	subs	r5, #1
    a112:	4621      	mov	r1, r4
    a114:	613d      	str	r5, [r7, #16]
    a116:	f7ff fdd1 	bl	9cbc <_Bfree>
    a11a:	4638      	mov	r0, r7
    a11c:	e8bd 83f8 	ldmia.w	sp!, {r3, r4, r5, r6, r7, r8, r9, pc}
    a120:	f851 3b04 	ldr.w	r3, [r1], #4
    a124:	428e      	cmp	r6, r1
    a126:	f842 3b04 	str.w	r3, [r2], #4
    a12a:	d9f0      	bls.n	a10e <__lshift+0x7e>
    a12c:	f851 3b04 	ldr.w	r3, [r1], #4
    a130:	428e      	cmp	r6, r1
    a132:	f842 3b04 	str.w	r3, [r2], #4
    a136:	d8f3      	bhi.n	a120 <__lshift+0x90>
    a138:	e7e9      	b.n	a10e <__lshift+0x7e>
    a13a:	bf00      	nop

0000a13c <__mcmp>:
    a13c:	4603      	mov	r3, r0
    a13e:	690a      	ldr	r2, [r1, #16]
    a140:	6900      	ldr	r0, [r0, #16]
    a142:	b430      	push	{r4, r5}
    a144:	1a80      	subs	r0, r0, r2
    a146:	d10f      	bne.n	a168 <__mcmp+0x2c>
    a148:	3204      	adds	r2, #4
    a14a:	f103 0514 	add.w	r5, r3, #20
    a14e:	0092      	lsls	r2, r2, #2
    a150:	189b      	adds	r3, r3, r2
    a152:	1889      	adds	r1, r1, r2
    a154:	3304      	adds	r3, #4
    a156:	3104      	adds	r1, #4
    a158:	f853 4d04 	ldr.w	r4, [r3, #-4]!
    a15c:	f851 2d04 	ldr.w	r2, [r1, #-4]!
    a160:	4294      	cmp	r4, r2
    a162:	d103      	bne.n	a16c <__mcmp+0x30>
    a164:	429d      	cmp	r5, r3
    a166:	d3f7      	bcc.n	a158 <__mcmp+0x1c>
    a168:	bc30      	pop	{r4, r5}
    a16a:	4770      	bx	lr
    a16c:	bf38      	it	cc
    a16e:	f04f 30ff 	movcc.w	r0, #4294967295
    a172:	d3f9      	bcc.n	a168 <__mcmp+0x2c>
    a174:	2001      	movs	r0, #1
    a176:	e7f7      	b.n	a168 <__mcmp+0x2c>

0000a178 <__mdiff>:
    a178:	e92d 4ff8 	stmdb	sp!, {r3, r4, r5, r6, r7, r8, r9, sl, fp, lr}
    a17c:	4689      	mov	r9, r1
    a17e:	4604      	mov	r4, r0
    a180:	4611      	mov	r1, r2
    a182:	4648      	mov	r0, r9
    a184:	4690      	mov	r8, r2
    a186:	f7ff ffd9 	bl	a13c <__mcmp>
    a18a:	1e05      	subs	r5, r0, #0
    a18c:	d064      	beq.n	a258 <__mdiff+0xe0>
    a18e:	bfbc      	itt	lt
    a190:	464b      	movlt	r3, r9
    a192:	46c1      	movlt	r9, r8
    a194:	4620      	mov	r0, r4
    a196:	bfb8      	it	lt
    a198:	4698      	movlt	r8, r3
    a19a:	f8d9 1004 	ldr.w	r1, [r9, #4]
    a19e:	bfac      	ite	ge
    a1a0:	f04f 0a00 	movge.w	sl, #0
    a1a4:	f04f 0a01 	movlt.w	sl, #1
    a1a8:	f7ff fd54 	bl	9c54 <_Balloc>
    a1ac:	f8d9 6010 	ldr.w	r6, [r9, #16]
    a1b0:	f109 0514 	add.w	r5, r9, #20
    a1b4:	f8d8 3010 	ldr.w	r3, [r8, #16]
    a1b8:	f108 0714 	add.w	r7, r8, #20
    a1bc:	2400      	movs	r4, #0
    a1be:	eb09 0986 	add.w	r9, r9, r6, lsl #2
    a1c2:	f109 0914 	add.w	r9, r9, #20
    a1c6:	4683      	mov	fp, r0
    a1c8:	3014      	adds	r0, #20
    a1ca:	f8cb a00c 	str.w	sl, [fp, #12]
    a1ce:	eb08 0a83 	add.w	sl, r8, r3, lsl #2
    a1d2:	f10a 0a14 	add.w	sl, sl, #20
    a1d6:	f855 1b04 	ldr.w	r1, [r5], #4
    a1da:	4603      	mov	r3, r0
    a1dc:	f857 0b04 	ldr.w	r0, [r7], #4
    a1e0:	462a      	mov	r2, r5
    a1e2:	fa1f f881 	uxth.w	r8, r1
    a1e6:	fa1f fc80 	uxth.w	ip, r0
    a1ea:	0c00      	lsrs	r0, r0, #16
    a1ec:	ebcc 0c08 	rsb	ip, ip, r8
    a1f0:	ebc0 4011 	rsb	r0, r0, r1, lsr #16
    a1f4:	4464      	add	r4, ip
    a1f6:	eb00 4024 	add.w	r0, r0, r4, asr #16
    a1fa:	b2a4      	uxth	r4, r4
    a1fc:	ea44 4100 	orr.w	r1, r4, r0, lsl #16
    a200:	1404      	asrs	r4, r0, #16
    a202:	45ba      	cmp	sl, r7
    a204:	f843 1b04 	str.w	r1, [r3], #4
    a208:	4618      	mov	r0, r3
    a20a:	d8e4      	bhi.n	a1d6 <__mdiff+0x5e>
    a20c:	45a9      	cmp	r9, r5
    a20e:	461f      	mov	r7, r3
    a210:	d914      	bls.n	a23c <__mdiff+0xc4>
    a212:	f852 1b04 	ldr.w	r1, [r2], #4
    a216:	b288      	uxth	r0, r1
    a218:	0c09      	lsrs	r1, r1, #16
    a21a:	1824      	adds	r4, r4, r0
    a21c:	eb01 4124 	add.w	r1, r1, r4, asr #16
    a220:	b2a4      	uxth	r4, r4
    a222:	ea44 4001 	orr.w	r0, r4, r1, lsl #16
    a226:	140c      	asrs	r4, r1, #16
    a228:	4591      	cmp	r9, r2
    a22a:	f843 0b04 	str.w	r0, [r3], #4
    a22e:	d8f0      	bhi.n	a212 <__mdiff+0x9a>
    a230:	43eb      	mvns	r3, r5
    a232:	444b      	add	r3, r9
    a234:	f023 0303 	bic.w	r3, r3, #3
    a238:	3304      	adds	r3, #4
    a23a:	18fb      	adds	r3, r7, r3
    a23c:	f853 2c04 	ldr.w	r2, [r3, #-4]
    a240:	3b04      	subs	r3, #4
    a242:	b922      	cbnz	r2, a24e <__mdiff+0xd6>
    a244:	f853 2d04 	ldr.w	r2, [r3, #-4]!
    a248:	3e01      	subs	r6, #1
    a24a:	2a00      	cmp	r2, #0
    a24c:	d0fa      	beq.n	a244 <__mdiff+0xcc>
    a24e:	f8cb 6010 	str.w	r6, [fp, #16]
    a252:	4658      	mov	r0, fp
    a254:	e8bd 8ff8 	ldmia.w	sp!, {r3, r4, r5, r6, r7, r8, r9, sl, fp, pc}
    a258:	4620      	mov	r0, r4
    a25a:	4629      	mov	r1, r5
    a25c:	f7ff fcfa 	bl	9c54 <_Balloc>
    a260:	2301      	movs	r3, #1
    a262:	4683      	mov	fp, r0
    a264:	6145      	str	r5, [r0, #20]
    a266:	6103      	str	r3, [r0, #16]
    a268:	4658      	mov	r0, fp
    a26a:	e8bd 8ff8 	ldmia.w	sp!, {r3, r4, r5, r6, r7, r8, r9, sl, fp, pc}
    a26e:	bf00      	nop

0000a270 <__ulp>:
    a270:	2300      	movs	r3, #0
    a272:	f6c7 73f0 	movt	r3, #32752	; 0x7ff0
    a276:	ea01 0303 	and.w	r3, r1, r3
    a27a:	f1a3 7350 	sub.w	r3, r3, #54525952	; 0x3400000
    a27e:	2b00      	cmp	r3, #0
    a280:	dd02      	ble.n	a288 <__ulp+0x18>
    a282:	4619      	mov	r1, r3
    a284:	2000      	movs	r0, #0
    a286:	4770      	bx	lr
    a288:	425b      	negs	r3, r3
    a28a:	151b      	asrs	r3, r3, #20
    a28c:	2b13      	cmp	r3, #19
    a28e:	dd0d      	ble.n	a2ac <__ulp+0x3c>
    a290:	3b14      	subs	r3, #20
    a292:	2100      	movs	r1, #0
    a294:	2b1e      	cmp	r3, #30
    a296:	dd02      	ble.n	a29e <__ulp+0x2e>
    a298:	2301      	movs	r3, #1
    a29a:	4618      	mov	r0, r3
    a29c:	4770      	bx	lr
    a29e:	2201      	movs	r2, #1
    a2a0:	f1c3 031f 	rsb	r3, r3, #31
    a2a4:	fa12 f303 	lsls.w	r3, r2, r3
    a2a8:	4618      	mov	r0, r3
    a2aa:	4770      	bx	lr
    a2ac:	f44f 2200 	mov.w	r2, #524288	; 0x80000
    a2b0:	2000      	movs	r0, #0
    a2b2:	fa52 f103 	asrs.w	r1, r2, r3
    a2b6:	4770      	bx	lr

0000a2b8 <__b2d>:
    a2b8:	e92d 41f0 	stmdb	sp!, {r4, r5, r6, r7, r8, lr}
    a2bc:	f100 0614 	add.w	r6, r0, #20
    a2c0:	6904      	ldr	r4, [r0, #16]
    a2c2:	460f      	mov	r7, r1
    a2c4:	3404      	adds	r4, #4
    a2c6:	f850 5024 	ldr.w	r5, [r0, r4, lsl #2]
    a2ca:	eb00 0484 	add.w	r4, r0, r4, lsl #2
    a2ce:	46a0      	mov	r8, r4
    a2d0:	4628      	mov	r0, r5
    a2d2:	f7ff fd9b 	bl	9e0c <__hi0bits>
    a2d6:	280a      	cmp	r0, #10
    a2d8:	f1c0 0320 	rsb	r3, r0, #32
    a2dc:	603b      	str	r3, [r7, #0]
    a2de:	dc15      	bgt.n	a30c <__b2d+0x54>
    a2e0:	f1c0 010b 	rsb	r1, r0, #11
    a2e4:	fa35 f701 	lsrs.w	r7, r5, r1
    a2e8:	42a6      	cmp	r6, r4
    a2ea:	f047 577e 	orr.w	r7, r7, #1065353216	; 0x3f800000
    a2ee:	f447 03e0 	orr.w	r3, r7, #7340032	; 0x700000
    a2f2:	d233      	bcs.n	a35c <__b2d+0xa4>
    a2f4:	f854 4c04 	ldr.w	r4, [r4, #-4]
    a2f8:	fa34 f101 	lsrs.w	r1, r4, r1
    a2fc:	3015      	adds	r0, #21
    a2fe:	4085      	lsls	r5, r0
    a300:	ea41 0205 	orr.w	r2, r1, r5
    a304:	4610      	mov	r0, r2
    a306:	4619      	mov	r1, r3
    a308:	e8bd 81f0 	ldmia.w	sp!, {r4, r5, r6, r7, r8, pc}
    a30c:	42a6      	cmp	r6, r4
    a30e:	d321      	bcc.n	a354 <__b2d+0x9c>
    a310:	2100      	movs	r1, #0
    a312:	380b      	subs	r0, #11
    a314:	bf02      	ittt	eq
    a316:	f045 557e 	orreq.w	r5, r5, #1065353216	; 0x3f800000
    a31a:	460a      	moveq	r2, r1
    a31c:	f445 03e0 	orreq.w	r3, r5, #7340032	; 0x700000
    a320:	d0f0      	beq.n	a304 <__b2d+0x4c>
    a322:	4085      	lsls	r5, r0
    a324:	f1c0 0720 	rsb	r7, r0, #32
    a328:	f045 557e 	orr.w	r5, r5, #1065353216	; 0x3f800000
    a32c:	42b4      	cmp	r4, r6
    a32e:	fa21 fc07 	lsr.w	ip, r1, r7
    a332:	f445 05e0 	orr.w	r5, r5, #7340032	; 0x700000
    a336:	ea45 030c 	orr.w	r3, r5, ip
    a33a:	d911      	bls.n	a360 <__b2d+0xa8>
    a33c:	f854 4c04 	ldr.w	r4, [r4, #-4]
    a340:	fa34 f707 	lsrs.w	r7, r4, r7
    a344:	fa11 f000 	lsls.w	r0, r1, r0
    a348:	4619      	mov	r1, r3
    a34a:	ea47 0200 	orr.w	r2, r7, r0
    a34e:	4610      	mov	r0, r2
    a350:	e8bd 81f0 	ldmia.w	sp!, {r4, r5, r6, r7, r8, pc}
    a354:	3c04      	subs	r4, #4
    a356:	f858 1c04 	ldr.w	r1, [r8, #-4]
    a35a:	e7da      	b.n	a312 <__b2d+0x5a>
    a35c:	2100      	movs	r1, #0
    a35e:	e7cd      	b.n	a2fc <__b2d+0x44>
    a360:	2700      	movs	r7, #0
    a362:	e7ef      	b.n	a344 <__b2d+0x8c>

0000a364 <__d2b>:
    a364:	e92d 43f0 	stmdb	sp!, {r4, r5, r6, r7, r8, r9, lr}
    a368:	b083      	sub	sp, #12
    a36a:	2101      	movs	r1, #1
    a36c:	461d      	mov	r5, r3
    a36e:	4614      	mov	r4, r2
    a370:	9f0a      	ldr	r7, [sp, #40]	; 0x28
    a372:	9e0b      	ldr	r6, [sp, #44]	; 0x2c
    a374:	f7ff fc6e 	bl	9c54 <_Balloc>
    a378:	f3c5 590a 	ubfx	r9, r5, #20, #11
    a37c:	f025 437f 	bic.w	r3, r5, #4278190080	; 0xff000000
    a380:	f423 0370 	bic.w	r3, r3, #15728640	; 0xf00000
    a384:	9300      	str	r3, [sp, #0]
    a386:	4680      	mov	r8, r0
    a388:	f1b9 0f00 	cmp.w	r9, #0
    a38c:	d002      	beq.n	a394 <__d2b+0x30>
    a38e:	f443 1380 	orr.w	r3, r3, #1048576	; 0x100000
    a392:	9300      	str	r3, [sp, #0]
    a394:	2c00      	cmp	r4, #0
    a396:	d025      	beq.n	a3e4 <__d2b+0x80>
    a398:	a802      	add	r0, sp, #8
    a39a:	f840 4d04 	str.w	r4, [r0, #-4]!
    a39e:	f7ff fd55 	bl	9e4c <__lo0bits>
    a3a2:	2800      	cmp	r0, #0
    a3a4:	d136      	bne.n	a414 <__d2b+0xb0>
    a3a6:	9a01      	ldr	r2, [sp, #4]
    a3a8:	9b00      	ldr	r3, [sp, #0]
    a3aa:	f8c8 2014 	str.w	r2, [r8, #20]
    a3ae:	2b00      	cmp	r3, #0
    a3b0:	bf0c      	ite	eq
    a3b2:	2401      	moveq	r4, #1
    a3b4:	2402      	movne	r4, #2
    a3b6:	f8c8 3018 	str.w	r3, [r8, #24]
    a3ba:	f8c8 4010 	str.w	r4, [r8, #16]
    a3be:	f1b9 0f00 	cmp.w	r9, #0
    a3c2:	d11d      	bne.n	a400 <__d2b+0x9c>
    a3c4:	eb08 0384 	add.w	r3, r8, r4, lsl #2
    a3c8:	f5a0 6086 	sub.w	r0, r0, #1072	; 0x430
    a3cc:	3802      	subs	r0, #2
    a3ce:	6038      	str	r0, [r7, #0]
    a3d0:	6918      	ldr	r0, [r3, #16]
    a3d2:	0164      	lsls	r4, r4, #5
    a3d4:	f7ff fd1a 	bl	9e0c <__hi0bits>
    a3d8:	1a24      	subs	r4, r4, r0
    a3da:	6034      	str	r4, [r6, #0]
    a3dc:	4640      	mov	r0, r8
    a3de:	b003      	add	sp, #12
    a3e0:	e8bd 83f0 	ldmia.w	sp!, {r4, r5, r6, r7, r8, r9, pc}
    a3e4:	4668      	mov	r0, sp
    a3e6:	f7ff fd31 	bl	9e4c <__lo0bits>
    a3ea:	2301      	movs	r3, #1
    a3ec:	461c      	mov	r4, r3
    a3ee:	f8c8 3010 	str.w	r3, [r8, #16]
    a3f2:	9b00      	ldr	r3, [sp, #0]
    a3f4:	f8c8 3014 	str.w	r3, [r8, #20]
    a3f8:	3020      	adds	r0, #32
    a3fa:	f1b9 0f00 	cmp.w	r9, #0
    a3fe:	d0e1      	beq.n	a3c4 <__d2b+0x60>
    a400:	f5a9 6986 	sub.w	r9, r9, #1072	; 0x430
    a404:	f1c0 0335 	rsb	r3, r0, #53	; 0x35
    a408:	f1a9 0903 	sub.w	r9, r9, #3
    a40c:	4448      	add	r0, r9
    a40e:	6038      	str	r0, [r7, #0]
    a410:	6033      	str	r3, [r6, #0]
    a412:	e7e3      	b.n	a3dc <__d2b+0x78>
    a414:	9b00      	ldr	r3, [sp, #0]
    a416:	f1c0 0220 	rsb	r2, r0, #32
    a41a:	9901      	ldr	r1, [sp, #4]
    a41c:	fa13 f202 	lsls.w	r2, r3, r2
    a420:	40c3      	lsrs	r3, r0
    a422:	430a      	orrs	r2, r1
    a424:	9300      	str	r3, [sp, #0]
    a426:	f8c8 2014 	str.w	r2, [r8, #20]
    a42a:	e7c0      	b.n	a3ae <__d2b+0x4a>

0000a42c <__ratio>:
    a42c:	e92d 41f0 	stmdb	sp!, {r4, r5, r6, r7, r8, lr}
    a430:	b082      	sub	sp, #8
    a432:	4688      	mov	r8, r1
    a434:	a901      	add	r1, sp, #4
    a436:	4606      	mov	r6, r0
    a438:	f7ff ff3e 	bl	a2b8 <__b2d>
    a43c:	460d      	mov	r5, r1
    a43e:	4604      	mov	r4, r0
    a440:	4669      	mov	r1, sp
    a442:	4640      	mov	r0, r8
    a444:	f7ff ff38 	bl	a2b8 <__b2d>
    a448:	f8d8 e010 	ldr.w	lr, [r8, #16]
    a44c:	f8d6 c010 	ldr.w	ip, [r6, #16]
    a450:	462f      	mov	r7, r5
    a452:	f8dd 8004 	ldr.w	r8, [sp, #4]
    a456:	4626      	mov	r6, r4
    a458:	ebce 0c0c 	rsb	ip, lr, ip
    a45c:	f8dd e000 	ldr.w	lr, [sp]
    a460:	ea4f 1c4c 	mov.w	ip, ip, lsl #5
    a464:	ebce 0e08 	rsb	lr, lr, r8
    a468:	44e6      	add	lr, ip
    a46a:	f1be 0f00 	cmp.w	lr, #0
    a46e:	ea4f 5e0e 	mov.w	lr, lr, lsl #20
    a472:	bfc2      	ittt	gt
    a474:	4624      	movgt	r4, r4
    a476:	eb0e 0705 	addgt.w	r7, lr, r5
    a47a:	463d      	movgt	r5, r7
    a47c:	460b      	mov	r3, r1
    a47e:	bfd8      	it	le
    a480:	ebce 0101 	rsble	r1, lr, r1
    a484:	4602      	mov	r2, r0
    a486:	bfdc      	itt	le
    a488:	460b      	movle	r3, r1
    a48a:	4602      	movle	r2, r0
    a48c:	4629      	mov	r1, r5
    a48e:	4620      	mov	r0, r4
    a490:	f7fb fee0 	bl	6254 <__aeabi_ddiv>
    a494:	b002      	add	sp, #8
    a496:	e8bd 81f0 	ldmia.w	sp!, {r4, r5, r6, r7, r8, pc}
    a49a:	bf00      	nop

0000a49c <_mprec_log10>:
    a49c:	2817      	cmp	r0, #23
    a49e:	b510      	push	{r4, lr}
    a4a0:	4604      	mov	r4, r0
    a4a2:	dd0c      	ble.n	a4be <_mprec_log10+0x22>
    a4a4:	2100      	movs	r1, #0
    a4a6:	2000      	movs	r0, #0
    a4a8:	f6c3 71f0 	movt	r1, #16368	; 0x3ff0
    a4ac:	2300      	movs	r3, #0
    a4ae:	2200      	movs	r2, #0
    a4b0:	f2c4 0324 	movt	r3, #16420	; 0x4024
    a4b4:	f7fb fda4 	bl	6000 <__aeabi_dmul>
    a4b8:	3c01      	subs	r4, #1
    a4ba:	d1f7      	bne.n	a4ac <_mprec_log10+0x10>
    a4bc:	bd10      	pop	{r4, pc}
    a4be:	f24d 1358 	movw	r3, #53592	; 0xd158
    a4c2:	f2c0 0300 	movt	r3, #0
    a4c6:	eb03 03c0 	add.w	r3, r3, r0, lsl #3
    a4ca:	e9d3 0104 	ldrd	r0, r1, [r3, #16]
    a4ce:	bd10      	pop	{r4, pc}

0000a4d0 <__copybits>:
    a4d0:	b470      	push	{r4, r5, r6}
    a4d2:	3901      	subs	r1, #1
    a4d4:	6916      	ldr	r6, [r2, #16]
    a4d6:	f102 0314 	add.w	r3, r2, #20
    a4da:	1149      	asrs	r1, r1, #5
    a4dc:	3101      	adds	r1, #1
    a4de:	eb02 0686 	add.w	r6, r2, r6, lsl #2
    a4e2:	3614      	adds	r6, #20
    a4e4:	eb00 0181 	add.w	r1, r0, r1, lsl #2
    a4e8:	42b3      	cmp	r3, r6
    a4ea:	d20c      	bcs.n	a506 <__copybits+0x36>
    a4ec:	4604      	mov	r4, r0
    a4ee:	f853 5b04 	ldr.w	r5, [r3], #4
    a4f2:	429e      	cmp	r6, r3
    a4f4:	f844 5b04 	str.w	r5, [r4], #4
    a4f8:	d8f9      	bhi.n	a4ee <__copybits+0x1e>
    a4fa:	1ab3      	subs	r3, r6, r2
    a4fc:	3b15      	subs	r3, #21
    a4fe:	f023 0303 	bic.w	r3, r3, #3
    a502:	3304      	adds	r3, #4
    a504:	18c0      	adds	r0, r0, r3
    a506:	4281      	cmp	r1, r0
    a508:	d904      	bls.n	a514 <__copybits+0x44>
    a50a:	2300      	movs	r3, #0
    a50c:	f840 3b04 	str.w	r3, [r0], #4
    a510:	4281      	cmp	r1, r0
    a512:	d8fb      	bhi.n	a50c <__copybits+0x3c>
    a514:	bc70      	pop	{r4, r5, r6}
    a516:	4770      	bx	lr

0000a518 <__any_on>:
    a518:	6902      	ldr	r2, [r0, #16]
    a51a:	114b      	asrs	r3, r1, #5
    a51c:	b410      	push	{r4}
    a51e:	429a      	cmp	r2, r3
    a520:	db11      	blt.n	a546 <__any_on+0x2e>
    a522:	dd0f      	ble.n	a544 <__any_on+0x2c>
    a524:	f011 011f 	ands.w	r1, r1, #31
    a528:	d00c      	beq.n	a544 <__any_on+0x2c>
    a52a:	461a      	mov	r2, r3
    a52c:	eb00 0383 	add.w	r3, r0, r3, lsl #2
    a530:	695b      	ldr	r3, [r3, #20]
    a532:	fa33 f401 	lsrs.w	r4, r3, r1
    a536:	fa14 f101 	lsls.w	r1, r4, r1
    a53a:	4299      	cmp	r1, r3
    a53c:	d003      	beq.n	a546 <__any_on+0x2e>
    a53e:	2001      	movs	r0, #1
    a540:	bc10      	pop	{r4}
    a542:	4770      	bx	lr
    a544:	461a      	mov	r2, r3
    a546:	3204      	adds	r2, #4
    a548:	f100 0114 	add.w	r1, r0, #20
    a54c:	eb00 0382 	add.w	r3, r0, r2, lsl #2
    a550:	1d1c      	adds	r4, r3, #4
    a552:	42a1      	cmp	r1, r4
    a554:	d20b      	bcs.n	a56e <__any_on+0x56>
    a556:	f850 2022 	ldr.w	r2, [r0, r2, lsl #2]
    a55a:	2a00      	cmp	r2, #0
    a55c:	d1ef      	bne.n	a53e <__any_on+0x26>
    a55e:	4299      	cmp	r1, r3
    a560:	d205      	bcs.n	a56e <__any_on+0x56>
    a562:	f853 2d04 	ldr.w	r2, [r3, #-4]!
    a566:	2a00      	cmp	r2, #0
    a568:	d1e9      	bne.n	a53e <__any_on+0x26>
    a56a:	4299      	cmp	r1, r3
    a56c:	d3f9      	bcc.n	a562 <__any_on+0x4a>
    a56e:	2000      	movs	r0, #0
    a570:	e7e6      	b.n	a540 <__any_on+0x28>
    a572:	bf00      	nop

0000a574 <__fpclassifyd>:
    a574:	ea50 0301 	orrs.w	r3, r0, r1
    a578:	b410      	push	{r4}
    a57a:	d03c      	beq.n	a5f6 <__fpclassifyd+0x82>
    a57c:	f1d0 0201 	rsbs	r2, r0, #1
    a580:	bf38      	it	cc
    a582:	2200      	movcc	r2, #0
    a584:	f1b1 4f00 	cmp.w	r1, #2147483648	; 0x80000000
    a588:	bf14      	ite	ne
    a58a:	2300      	movne	r3, #0
    a58c:	f002 0301 	andeq.w	r3, r2, #1
    a590:	2b00      	cmp	r3, #0
    a592:	d130      	bne.n	a5f6 <__fpclassifyd+0x82>
    a594:	f64f 73ff 	movw	r3, #65535	; 0xffff
    a598:	f5a1 1080 	sub.w	r0, r1, #1048576	; 0x100000
    a59c:	f6c7 73df 	movt	r3, #32735	; 0x7fdf
    a5a0:	f101 44fe 	add.w	r4, r1, #2130706432	; 0x7f000000
    a5a4:	4298      	cmp	r0, r3
    a5a6:	f504 0470 	add.w	r4, r4, #15728640	; 0xf00000
    a5aa:	bf8c      	ite	hi
    a5ac:	2000      	movhi	r0, #0
    a5ae:	2001      	movls	r0, #1
    a5b0:	429c      	cmp	r4, r3
    a5b2:	bf8c      	ite	hi
    a5b4:	4603      	movhi	r3, r0
    a5b6:	f040 0301 	orrls.w	r3, r0, #1
    a5ba:	2b00      	cmp	r3, #0
    a5bc:	d120      	bne.n	a600 <__fpclassifyd+0x8c>
    a5be:	f5b1 1f80 	cmp.w	r1, #1048576	; 0x100000
    a5c2:	f101 4000 	add.w	r0, r1, #2147483648	; 0x80000000
    a5c6:	bf2c      	ite	cs
    a5c8:	2300      	movcs	r3, #0
    a5ca:	2301      	movcc	r3, #1
    a5cc:	f5b0 1f80 	cmp.w	r0, #1048576	; 0x100000
    a5d0:	bf38      	it	cc
    a5d2:	f043 0301 	orrcc.w	r3, r3, #1
    a5d6:	b98b      	cbnz	r3, a5fc <__fpclassifyd+0x88>
    a5d8:	f511 1f80 	cmn.w	r1, #1048576	; 0x100000
    a5dc:	f6c7 73f0 	movt	r3, #32752	; 0x7ff0
    a5e0:	bf14      	ite	ne
    a5e2:	2000      	movne	r0, #0
    a5e4:	2001      	moveq	r0, #1
    a5e6:	4299      	cmp	r1, r3
    a5e8:	bf14      	ite	ne
    a5ea:	4601      	movne	r1, r0
    a5ec:	f040 0101 	orreq.w	r1, r0, #1
    a5f0:	ea02 0001 	and.w	r0, r2, r1
    a5f4:	e000      	b.n	a5f8 <__fpclassifyd+0x84>
    a5f6:	2002      	movs	r0, #2
    a5f8:	bc10      	pop	{r4}
    a5fa:	4770      	bx	lr
    a5fc:	2003      	movs	r0, #3
    a5fe:	e7fb      	b.n	a5f8 <__fpclassifyd+0x84>
    a600:	2004      	movs	r0, #4
    a602:	e7f9      	b.n	a5f8 <__fpclassifyd+0x84>

0000a604 <_sbrk_r>:
    a604:	b538      	push	{r3, r4, r5, lr}
    a606:	f242 443c 	movw	r4, #9276	; 0x243c
    a60a:	f2c2 0400 	movt	r4, #8192	; 0x2000
    a60e:	4605      	mov	r5, r0
    a610:	4608      	mov	r0, r1
    a612:	2300      	movs	r3, #0
    a614:	6023      	str	r3, [r4, #0]
    a616:	f7fa fa8b 	bl	4b30 <_sbrk>
    a61a:	f1b0 3fff 	cmp.w	r0, #4294967295
    a61e:	d000      	beq.n	a622 <_sbrk_r+0x1e>
    a620:	bd38      	pop	{r3, r4, r5, pc}
    a622:	6823      	ldr	r3, [r4, #0]
    a624:	2b00      	cmp	r3, #0
    a626:	d0fb      	beq.n	a620 <_sbrk_r+0x1c>
    a628:	602b      	str	r3, [r5, #0]
    a62a:	bd38      	pop	{r3, r4, r5, pc}

0000a62c <strcmp>:
    a62c:	ea80 0201 	eor.w	r2, r0, r1
    a630:	f012 0f03 	tst.w	r2, #3
    a634:	d13a      	bne.n	a6ac <strcmp_unaligned>
    a636:	f010 0203 	ands.w	r2, r0, #3
    a63a:	f020 0003 	bic.w	r0, r0, #3
    a63e:	f021 0103 	bic.w	r1, r1, #3
    a642:	f850 cb04 	ldr.w	ip, [r0], #4
    a646:	bf08      	it	eq
    a648:	f851 3b04 	ldreq.w	r3, [r1], #4
    a64c:	d00d      	beq.n	a66a <strcmp+0x3e>
    a64e:	f082 0203 	eor.w	r2, r2, #3
    a652:	ea4f 02c2 	mov.w	r2, r2, lsl #3
    a656:	f06f 437f 	mvn.w	r3, #4278190080	; 0xff000000
    a65a:	fa23 f202 	lsr.w	r2, r3, r2
    a65e:	f851 3b04 	ldr.w	r3, [r1], #4
    a662:	ea4c 0c02 	orr.w	ip, ip, r2
    a666:	ea43 0302 	orr.w	r3, r3, r2
    a66a:	bf00      	nop
    a66c:	f1ac 3201 	sub.w	r2, ip, #16843009	; 0x1010101
    a670:	459c      	cmp	ip, r3
    a672:	bf01      	itttt	eq
    a674:	ea22 020c 	biceq.w	r2, r2, ip
    a678:	f012 3f80 	tsteq.w	r2, #2155905152	; 0x80808080
    a67c:	f850 cb04 	ldreq.w	ip, [r0], #4
    a680:	f851 3b04 	ldreq.w	r3, [r1], #4
    a684:	d0f2      	beq.n	a66c <strcmp+0x40>
    a686:	ea4f 600c 	mov.w	r0, ip, lsl #24
    a68a:	ea4f 2c1c 	mov.w	ip, ip, lsr #8
    a68e:	2801      	cmp	r0, #1
    a690:	bf28      	it	cs
    a692:	ebb0 6f03 	cmpcs.w	r0, r3, lsl #24
    a696:	bf08      	it	eq
    a698:	0a1b      	lsreq	r3, r3, #8
    a69a:	d0f4      	beq.n	a686 <strcmp+0x5a>
    a69c:	f003 03ff 	and.w	r3, r3, #255	; 0xff
    a6a0:	ea4f 6010 	mov.w	r0, r0, lsr #24
    a6a4:	eba0 0003 	sub.w	r0, r0, r3
    a6a8:	4770      	bx	lr
    a6aa:	bf00      	nop

0000a6ac <strcmp_unaligned>:
    a6ac:	f010 0f03 	tst.w	r0, #3
    a6b0:	d00a      	beq.n	a6c8 <strcmp_unaligned+0x1c>
    a6b2:	f810 2b01 	ldrb.w	r2, [r0], #1
    a6b6:	f811 3b01 	ldrb.w	r3, [r1], #1
    a6ba:	2a01      	cmp	r2, #1
    a6bc:	bf28      	it	cs
    a6be:	429a      	cmpcs	r2, r3
    a6c0:	d0f4      	beq.n	a6ac <strcmp_unaligned>
    a6c2:	eba2 0003 	sub.w	r0, r2, r3
    a6c6:	4770      	bx	lr
    a6c8:	f84d 5d04 	str.w	r5, [sp, #-4]!
    a6cc:	f84d 4d04 	str.w	r4, [sp, #-4]!
    a6d0:	f04f 0201 	mov.w	r2, #1
    a6d4:	ea42 2202 	orr.w	r2, r2, r2, lsl #8
    a6d8:	ea42 4202 	orr.w	r2, r2, r2, lsl #16
    a6dc:	f001 0c03 	and.w	ip, r1, #3
    a6e0:	f021 0103 	bic.w	r1, r1, #3
    a6e4:	f850 4b04 	ldr.w	r4, [r0], #4
    a6e8:	f851 5b04 	ldr.w	r5, [r1], #4
    a6ec:	f1bc 0f02 	cmp.w	ip, #2
    a6f0:	d026      	beq.n	a740 <strcmp_unaligned+0x94>
    a6f2:	d84b      	bhi.n	a78c <strcmp_unaligned+0xe0>
    a6f4:	f024 4c7f 	bic.w	ip, r4, #4278190080	; 0xff000000
    a6f8:	ebbc 2f15 	cmp.w	ip, r5, lsr #8
    a6fc:	eba4 0302 	sub.w	r3, r4, r2
    a700:	ea23 0304 	bic.w	r3, r3, r4
    a704:	d10d      	bne.n	a722 <strcmp_unaligned+0x76>
    a706:	ea13 13c2 	ands.w	r3, r3, r2, lsl #7
    a70a:	bf08      	it	eq
    a70c:	f851 5b04 	ldreq.w	r5, [r1], #4
    a710:	d10a      	bne.n	a728 <strcmp_unaligned+0x7c>
    a712:	ea8c 0c04 	eor.w	ip, ip, r4
    a716:	ebbc 6f05 	cmp.w	ip, r5, lsl #24
    a71a:	d10c      	bne.n	a736 <strcmp_unaligned+0x8a>
    a71c:	f850 4b04 	ldr.w	r4, [r0], #4
    a720:	e7e8      	b.n	a6f4 <strcmp_unaligned+0x48>
    a722:	ea4f 2515 	mov.w	r5, r5, lsr #8
    a726:	e05c      	b.n	a7e2 <strcmp_unaligned+0x136>
    a728:	f033 437f 	bics.w	r3, r3, #4278190080	; 0xff000000
    a72c:	d152      	bne.n	a7d4 <strcmp_unaligned+0x128>
    a72e:	780d      	ldrb	r5, [r1, #0]
    a730:	ea4f 6c14 	mov.w	ip, r4, lsr #24
    a734:	e055      	b.n	a7e2 <strcmp_unaligned+0x136>
    a736:	ea4f 6c14 	mov.w	ip, r4, lsr #24
    a73a:	f005 05ff 	and.w	r5, r5, #255	; 0xff
    a73e:	e050      	b.n	a7e2 <strcmp_unaligned+0x136>
    a740:	ea4f 4c04 	mov.w	ip, r4, lsl #16
    a744:	eba4 0302 	sub.w	r3, r4, r2
    a748:	ea4f 4c1c 	mov.w	ip, ip, lsr #16
    a74c:	ea23 0304 	bic.w	r3, r3, r4
    a750:	ebbc 4f15 	cmp.w	ip, r5, lsr #16
    a754:	d117      	bne.n	a786 <strcmp_unaligned+0xda>
    a756:	ea13 13c2 	ands.w	r3, r3, r2, lsl #7
    a75a:	bf08      	it	eq
    a75c:	f851 5b04 	ldreq.w	r5, [r1], #4
    a760:	d107      	bne.n	a772 <strcmp_unaligned+0xc6>
    a762:	ea8c 0c04 	eor.w	ip, ip, r4
    a766:	ebbc 4f05 	cmp.w	ip, r5, lsl #16
    a76a:	d108      	bne.n	a77e <strcmp_unaligned+0xd2>
    a76c:	f850 4b04 	ldr.w	r4, [r0], #4
    a770:	e7e6      	b.n	a740 <strcmp_unaligned+0x94>
    a772:	041b      	lsls	r3, r3, #16
    a774:	d12e      	bne.n	a7d4 <strcmp_unaligned+0x128>
    a776:	880d      	ldrh	r5, [r1, #0]
    a778:	ea4f 4c14 	mov.w	ip, r4, lsr #16
    a77c:	e031      	b.n	a7e2 <strcmp_unaligned+0x136>
    a77e:	ea4f 4505 	mov.w	r5, r5, lsl #16
    a782:	ea4f 4c14 	mov.w	ip, r4, lsr #16
    a786:	ea4f 4515 	mov.w	r5, r5, lsr #16
    a78a:	e02a      	b.n	a7e2 <strcmp_unaligned+0x136>
    a78c:	f004 0cff 	and.w	ip, r4, #255	; 0xff
    a790:	ebbc 6f15 	cmp.w	ip, r5, lsr #24
    a794:	eba4 0302 	sub.w	r3, r4, r2
    a798:	ea23 0304 	bic.w	r3, r3, r4
    a79c:	d10d      	bne.n	a7ba <strcmp_unaligned+0x10e>
    a79e:	ea13 13c2 	ands.w	r3, r3, r2, lsl #7
    a7a2:	bf08      	it	eq
    a7a4:	f851 5b04 	ldreq.w	r5, [r1], #4
    a7a8:	d10a      	bne.n	a7c0 <strcmp_unaligned+0x114>
    a7aa:	ea8c 0c04 	eor.w	ip, ip, r4
    a7ae:	ebbc 2f05 	cmp.w	ip, r5, lsl #8
    a7b2:	d10a      	bne.n	a7ca <strcmp_unaligned+0x11e>
    a7b4:	f850 4b04 	ldr.w	r4, [r0], #4
    a7b8:	e7e8      	b.n	a78c <strcmp_unaligned+0xe0>
    a7ba:	ea4f 6515 	mov.w	r5, r5, lsr #24
    a7be:	e010      	b.n	a7e2 <strcmp_unaligned+0x136>
    a7c0:	f014 0fff 	tst.w	r4, #255	; 0xff
    a7c4:	d006      	beq.n	a7d4 <strcmp_unaligned+0x128>
    a7c6:	f851 5b04 	ldr.w	r5, [r1], #4
    a7ca:	ea4f 2c14 	mov.w	ip, r4, lsr #8
    a7ce:	f025 457f 	bic.w	r5, r5, #4278190080	; 0xff000000
    a7d2:	e006      	b.n	a7e2 <strcmp_unaligned+0x136>
    a7d4:	f04f 0000 	mov.w	r0, #0
    a7d8:	f85d 4b04 	ldr.w	r4, [sp], #4
    a7dc:	f85d 5b04 	ldr.w	r5, [sp], #4
    a7e0:	4770      	bx	lr
    a7e2:	f00c 02ff 	and.w	r2, ip, #255	; 0xff
    a7e6:	f005 00ff 	and.w	r0, r5, #255	; 0xff
    a7ea:	2801      	cmp	r0, #1
    a7ec:	bf28      	it	cs
    a7ee:	4290      	cmpcs	r0, r2
    a7f0:	bf04      	itt	eq
    a7f2:	ea4f 2c1c 	moveq.w	ip, ip, lsr #8
    a7f6:	0a2d      	lsreq	r5, r5, #8
    a7f8:	d0f3      	beq.n	a7e2 <strcmp_unaligned+0x136>
    a7fa:	eba2 0000 	sub.w	r0, r2, r0
    a7fe:	f85d 4b04 	ldr.w	r4, [sp], #4
    a802:	f85d 5b04 	ldr.w	r5, [sp], #4
    a806:	4770      	bx	lr

0000a808 <__ssprint_r>:
    a808:	e92d 4ff0 	stmdb	sp!, {r4, r5, r6, r7, r8, r9, sl, fp, lr}
    a80c:	b083      	sub	sp, #12
    a80e:	4691      	mov	r9, r2
    a810:	460d      	mov	r5, r1
    a812:	9001      	str	r0, [sp, #4]
    a814:	6890      	ldr	r0, [r2, #8]
    a816:	6817      	ldr	r7, [r2, #0]
    a818:	2800      	cmp	r0, #0
    a81a:	d077      	beq.n	a90c <__ssprint_r+0x104>
    a81c:	f04f 0a00 	mov.w	sl, #0
    a820:	6808      	ldr	r0, [r1, #0]
    a822:	688b      	ldr	r3, [r1, #8]
    a824:	4654      	mov	r4, sl
    a826:	2c00      	cmp	r4, #0
    a828:	d04c      	beq.n	a8c4 <__ssprint_r+0xbc>
    a82a:	429c      	cmp	r4, r3
    a82c:	461e      	mov	r6, r3
    a82e:	4698      	mov	r8, r3
    a830:	bf3c      	itt	cc
    a832:	4626      	movcc	r6, r4
    a834:	46a0      	movcc	r8, r4
    a836:	d335      	bcc.n	a8a4 <__ssprint_r+0x9c>
    a838:	89ab      	ldrh	r3, [r5, #12]
    a83a:	f413 6f90 	tst.w	r3, #1152	; 0x480
    a83e:	d031      	beq.n	a8a4 <__ssprint_r+0x9c>
    a840:	696a      	ldr	r2, [r5, #20]
    a842:	f104 0e01 	add.w	lr, r4, #1
    a846:	6929      	ldr	r1, [r5, #16]
    a848:	eb02 0b42 	add.w	fp, r2, r2, lsl #1
    a84c:	1a46      	subs	r6, r0, r1
    a84e:	eb0e 0006 	add.w	r0, lr, r6
    a852:	eb0b 7bdb 	add.w	fp, fp, fp, lsr #31
    a856:	ea4f 0b6b 	mov.w	fp, fp, asr #1
    a85a:	4583      	cmp	fp, r0
    a85c:	465a      	mov	r2, fp
    a85e:	bf3c      	itt	cc
    a860:	4683      	movcc	fp, r0
    a862:	465a      	movcc	r2, fp
    a864:	f413 6f80 	tst.w	r3, #1024	; 0x400
    a868:	d031      	beq.n	a8ce <__ssprint_r+0xc6>
    a86a:	9801      	ldr	r0, [sp, #4]
    a86c:	4611      	mov	r1, r2
    a86e:	f7fe feeb 	bl	9648 <_malloc_r>
    a872:	4680      	mov	r8, r0
    a874:	2800      	cmp	r0, #0
    a876:	d034      	beq.n	a8e2 <__ssprint_r+0xda>
    a878:	6929      	ldr	r1, [r5, #16]
    a87a:	4632      	mov	r2, r6
    a87c:	f7fc f99e 	bl	6bbc <memcpy>
    a880:	89ab      	ldrh	r3, [r5, #12]
    a882:	f423 6390 	bic.w	r3, r3, #1152	; 0x480
    a886:	f043 0380 	orr.w	r3, r3, #128	; 0x80
    a88a:	81ab      	strh	r3, [r5, #12]
    a88c:	eb08 0006 	add.w	r0, r8, r6
    a890:	ebc6 030b 	rsb	r3, r6, fp
    a894:	f8c5 8010 	str.w	r8, [r5, #16]
    a898:	4626      	mov	r6, r4
    a89a:	46a0      	mov	r8, r4
    a89c:	6028      	str	r0, [r5, #0]
    a89e:	f8c5 b014 	str.w	fp, [r5, #20]
    a8a2:	60ab      	str	r3, [r5, #8]
    a8a4:	4642      	mov	r2, r8
    a8a6:	4651      	mov	r1, sl
    a8a8:	f000 feee 	bl	b688 <memmove>
    a8ac:	f8d9 2008 	ldr.w	r2, [r9, #8]
    a8b0:	68ab      	ldr	r3, [r5, #8]
    a8b2:	6828      	ldr	r0, [r5, #0]
    a8b4:	1b14      	subs	r4, r2, r4
    a8b6:	1b9b      	subs	r3, r3, r6
    a8b8:	60ab      	str	r3, [r5, #8]
    a8ba:	4440      	add	r0, r8
    a8bc:	6028      	str	r0, [r5, #0]
    a8be:	f8c9 4008 	str.w	r4, [r9, #8]
    a8c2:	b1ec      	cbz	r4, a900 <__ssprint_r+0xf8>
    a8c4:	f8d7 a000 	ldr.w	sl, [r7]
    a8c8:	687c      	ldr	r4, [r7, #4]
    a8ca:	3708      	adds	r7, #8
    a8cc:	e7ab      	b.n	a826 <__ssprint_r+0x1e>
    a8ce:	9801      	ldr	r0, [sp, #4]
    a8d0:	f000 ff2a 	bl	b728 <_realloc_r>
    a8d4:	4680      	mov	r8, r0
    a8d6:	2800      	cmp	r0, #0
    a8d8:	d1d8      	bne.n	a88c <__ssprint_r+0x84>
    a8da:	9801      	ldr	r0, [sp, #4]
    a8dc:	6929      	ldr	r1, [r5, #16]
    a8de:	f000 fe07 	bl	b4f0 <_free_r>
    a8e2:	9a01      	ldr	r2, [sp, #4]
    a8e4:	230c      	movs	r3, #12
    a8e6:	f04f 30ff 	mov.w	r0, #4294967295
    a8ea:	6013      	str	r3, [r2, #0]
    a8ec:	2300      	movs	r3, #0
    a8ee:	89aa      	ldrh	r2, [r5, #12]
    a8f0:	f042 0240 	orr.w	r2, r2, #64	; 0x40
    a8f4:	81aa      	strh	r2, [r5, #12]
    a8f6:	f8c9 3008 	str.w	r3, [r9, #8]
    a8fa:	f8c9 3004 	str.w	r3, [r9, #4]
    a8fe:	e002      	b.n	a906 <__ssprint_r+0xfe>
    a900:	4620      	mov	r0, r4
    a902:	f8c9 4004 	str.w	r4, [r9, #4]
    a906:	b003      	add	sp, #12
    a908:	e8bd 8ff0 	ldmia.w	sp!, {r4, r5, r6, r7, r8, r9, sl, fp, pc}
    a90c:	6050      	str	r0, [r2, #4]
    a90e:	e7fa      	b.n	a906 <__ssprint_r+0xfe>

0000a910 <_svfiprintf_r>:
    a910:	e92d 4ff0 	stmdb	sp!, {r4, r5, r6, r7, r8, r9, sl, fp, lr}
    a914:	b0ab      	sub	sp, #172	; 0xac
    a916:	4689      	mov	r9, r1
    a918:	4683      	mov	fp, r0
    a91a:	9306      	str	r3, [sp, #24]
    a91c:	898b      	ldrh	r3, [r1, #12]
    a91e:	f013 0f80 	tst.w	r3, #128	; 0x80
    a922:	d003      	beq.n	a92c <_svfiprintf_r+0x1c>
    a924:	690b      	ldr	r3, [r1, #16]
    a926:	2b00      	cmp	r3, #0
    a928:	f000 8523 	beq.w	b372 <_svfiprintf_r+0xa62>
    a92c:	4617      	mov	r7, r2
    a92e:	2300      	movs	r3, #0
    a930:	ae0c      	add	r6, sp, #48	; 0x30
    a932:	9308      	str	r3, [sp, #32]
    a934:	9305      	str	r3, [sp, #20]
    a936:	9626      	str	r6, [sp, #152]	; 0x98
    a938:	9328      	str	r3, [sp, #160]	; 0xa0
    a93a:	9327      	str	r3, [sp, #156]	; 0x9c
    a93c:	783b      	ldrb	r3, [r7, #0]
    a93e:	f1b3 0225 	subs.w	r2, r3, #37	; 0x25
    a942:	bf18      	it	ne
    a944:	2201      	movne	r2, #1
    a946:	2b00      	cmp	r3, #0
    a948:	bf0c      	ite	eq
    a94a:	2300      	moveq	r3, #0
    a94c:	f002 0301 	andne.w	r3, r2, #1
    a950:	2b00      	cmp	r3, #0
    a952:	f000 8360 	beq.w	b016 <_svfiprintf_r+0x706>
    a956:	1c7a      	adds	r2, r7, #1
    a958:	4614      	mov	r4, r2
    a95a:	3201      	adds	r2, #1
    a95c:	7823      	ldrb	r3, [r4, #0]
    a95e:	1e19      	subs	r1, r3, #0
    a960:	bf18      	it	ne
    a962:	2101      	movne	r1, #1
    a964:	2b25      	cmp	r3, #37	; 0x25
    a966:	bf0c      	ite	eq
    a968:	2300      	moveq	r3, #0
    a96a:	f001 0301 	andne.w	r3, r1, #1
    a96e:	2b00      	cmp	r3, #0
    a970:	d1f2      	bne.n	a958 <_svfiprintf_r+0x48>
    a972:	1be5      	subs	r5, r4, r7
    a974:	d00e      	beq.n	a994 <_svfiprintf_r+0x84>
    a976:	9b27      	ldr	r3, [sp, #156]	; 0x9c
    a978:	9a28      	ldr	r2, [sp, #160]	; 0xa0
    a97a:	3301      	adds	r3, #1
    a97c:	6037      	str	r7, [r6, #0]
    a97e:	2b07      	cmp	r3, #7
    a980:	6075      	str	r5, [r6, #4]
    a982:	442a      	add	r2, r5
    a984:	9327      	str	r3, [sp, #156]	; 0x9c
    a986:	9228      	str	r2, [sp, #160]	; 0xa0
    a988:	f300 83bc 	bgt.w	b104 <_svfiprintf_r+0x7f4>
    a98c:	3608      	adds	r6, #8
    a98e:	9905      	ldr	r1, [sp, #20]
    a990:	1949      	adds	r1, r1, r5
    a992:	9105      	str	r1, [sp, #20]
    a994:	7823      	ldrb	r3, [r4, #0]
    a996:	2b00      	cmp	r3, #0
    a998:	f000 833f 	beq.w	b01a <_svfiprintf_r+0x70a>
    a99c:	2200      	movs	r2, #0
    a99e:	2300      	movs	r3, #0
    a9a0:	9204      	str	r2, [sp, #16]
    a9a2:	1c67      	adds	r7, r4, #1
    a9a4:	f88d 30a7 	strb.w	r3, [sp, #167]	; 0xa7
    a9a8:	f04f 38ff 	mov.w	r8, #4294967295
    a9ac:	7863      	ldrb	r3, [r4, #1]
    a9ae:	4692      	mov	sl, r2
    a9b0:	f04f 0c20 	mov.w	ip, #32
    a9b4:	242b      	movs	r4, #43	; 0x2b
    a9b6:	3701      	adds	r7, #1
    a9b8:	f1a3 0220 	sub.w	r2, r3, #32
    a9bc:	2a58      	cmp	r2, #88	; 0x58
    a9be:	f200 824e 	bhi.w	ae5e <_svfiprintf_r+0x54e>
    a9c2:	e8df f012 	tbh	[pc, r2, lsl #1]
    a9c6:	025a      	.short	0x025a
    a9c8:	024c024c 	.word	0x024c024c
    a9cc:	024c01fb 	.word	0x024c01fb
    a9d0:	024c024c 	.word	0x024c024c
    a9d4:	024c024c 	.word	0x024c024c
    a9d8:	00fe024c 	.word	0x00fe024c
    a9dc:	024c0214 	.word	0x024c0214
    a9e0:	0218010a 	.word	0x0218010a
    a9e4:	0210024c 	.word	0x0210024c
    a9e8:	01ff01ff 	.word	0x01ff01ff
    a9ec:	01ff01ff 	.word	0x01ff01ff
    a9f0:	01ff01ff 	.word	0x01ff01ff
    a9f4:	01ff01ff 	.word	0x01ff01ff
    a9f8:	024c01ff 	.word	0x024c01ff
    a9fc:	024c024c 	.word	0x024c024c
    aa00:	024c024c 	.word	0x024c024c
    aa04:	024c024c 	.word	0x024c024c
    aa08:	024c024c 	.word	0x024c024c
    aa0c:	00c7024c 	.word	0x00c7024c
    aa10:	024c024c 	.word	0x024c024c
    aa14:	024c024c 	.word	0x024c024c
    aa18:	024c024c 	.word	0x024c024c
    aa1c:	024c024c 	.word	0x024c024c
    aa20:	024c024c 	.word	0x024c024c
    aa24:	024c00bd 	.word	0x024c00bd
    aa28:	024c024c 	.word	0x024c024c
    aa2c:	024c024c 	.word	0x024c024c
    aa30:	024c0059 	.word	0x024c0059
    aa34:	016d024c 	.word	0x016d024c
    aa38:	024c024c 	.word	0x024c024c
    aa3c:	024c024c 	.word	0x024c024c
    aa40:	024c024c 	.word	0x024c024c
    aa44:	024c024c 	.word	0x024c024c
    aa48:	024c024c 	.word	0x024c024c
    aa4c:	00c90192 	.word	0x00c90192
    aa50:	024c024c 	.word	0x024c024c
    aa54:	0169024c 	.word	0x0169024c
    aa58:	024c00c9 	.word	0x024c00c9
    aa5c:	015f024c 	.word	0x015f024c
    aa60:	014c024c 	.word	0x014c024c
    aa64:	013400bf 	.word	0x013400bf
    aa68:	024c0130 	.word	0x024c0130
    aa6c:	024c010e 	.word	0x024c010e
    aa70:	024c005b 	.word	0x024c005b
    aa74:	0235024c 	.word	0x0235024c
    aa78:	f04a 0a10 	orr.w	sl, sl, #16
    aa7c:	f01a 0f20 	tst.w	sl, #32
    aa80:	f000 83bf 	beq.w	b202 <_svfiprintf_r+0x8f2>
    aa84:	9b06      	ldr	r3, [sp, #24]
    aa86:	1dda      	adds	r2, r3, #7
    aa88:	2301      	movs	r3, #1
    aa8a:	f022 0207 	bic.w	r2, r2, #7
    aa8e:	f102 0508 	add.w	r5, r2, #8
    aa92:	9506      	str	r5, [sp, #24]
    aa94:	e9d2 4500 	ldrd	r4, r5, [r2]
    aa98:	ea54 0005 	orrs.w	r0, r4, r5
    aa9c:	bf0c      	ite	eq
    aa9e:	2200      	moveq	r2, #0
    aaa0:	2201      	movne	r2, #1
    aaa2:	2100      	movs	r1, #0
    aaa4:	f88d 10a7 	strb.w	r1, [sp, #167]	; 0xa7
    aaa8:	f1b8 0f00 	cmp.w	r8, #0
    aaac:	bfa8      	it	ge
    aaae:	f02a 0a80 	bicge.w	sl, sl, #128	; 0x80
    aab2:	f1b8 0f00 	cmp.w	r8, #0
    aab6:	bf18      	it	ne
    aab8:	f042 0201 	orrne.w	r2, r2, #1
    aabc:	2a00      	cmp	r2, #0
    aabe:	d070      	beq.n	aba2 <_svfiprintf_r+0x292>
    aac0:	2b01      	cmp	r3, #1
    aac2:	f000 8348 	beq.w	b156 <_svfiprintf_r+0x846>
    aac6:	2b02      	cmp	r3, #2
    aac8:	f000 836f 	beq.w	b1aa <_svfiprintf_r+0x89a>
    aacc:	aa1c      	add	r2, sp, #112	; 0x70
    aace:	46b4      	mov	ip, r6
    aad0:	f102 0327 	add.w	r3, r2, #39	; 0x27
    aad4:	9202      	str	r2, [sp, #8]
    aad6:	9703      	str	r7, [sp, #12]
    aad8:	08ea      	lsrs	r2, r5, #3
    aada:	08e7      	lsrs	r7, r4, #3
    aadc:	ea47 7745 	orr.w	r7, r7, r5, lsl #29
    aae0:	f004 0407 	and.w	r4, r4, #7
    aae4:	4611      	mov	r1, r2
    aae6:	f104 0230 	add.w	r2, r4, #48	; 0x30
    aaea:	460d      	mov	r5, r1
    aaec:	463c      	mov	r4, r7
    aaee:	461e      	mov	r6, r3
    aaf0:	701a      	strb	r2, [r3, #0]
    aaf2:	3b01      	subs	r3, #1
    aaf4:	ea54 0005 	orrs.w	r0, r4, r5
    aaf8:	d1ee      	bne.n	aad8 <_svfiprintf_r+0x1c8>
    aafa:	f01a 0f01 	tst.w	sl, #1
    aafe:	9609      	str	r6, [sp, #36]	; 0x24
    ab00:	9f03      	ldr	r7, [sp, #12]
    ab02:	4666      	mov	r6, ip
    ab04:	f000 83b8 	beq.w	b278 <_svfiprintf_r+0x968>
    ab08:	2a30      	cmp	r2, #48	; 0x30
    ab0a:	f000 8365 	beq.w	b1d8 <_svfiprintf_r+0x8c8>
    ab0e:	9309      	str	r3, [sp, #36]	; 0x24
    ab10:	9902      	ldr	r1, [sp, #8]
    ab12:	9a09      	ldr	r2, [sp, #36]	; 0x24
    ab14:	f101 0328 	add.w	r3, r1, #40	; 0x28
    ab18:	1a9b      	subs	r3, r3, r2
    ab1a:	9303      	str	r3, [sp, #12]
    ab1c:	2330      	movs	r3, #48	; 0x30
    ab1e:	7013      	strb	r3, [r2, #0]
    ab20:	f8cd 801c 	str.w	r8, [sp, #28]
    ab24:	9803      	ldr	r0, [sp, #12]
    ab26:	9907      	ldr	r1, [sp, #28]
    ab28:	f89d 30a7 	ldrb.w	r3, [sp, #167]	; 0xa7
    ab2c:	4288      	cmp	r0, r1
    ab2e:	bfb8      	it	lt
    ab30:	4608      	movlt	r0, r1
    ab32:	9002      	str	r0, [sp, #8]
    ab34:	2b00      	cmp	r3, #0
    ab36:	f000 80e8 	beq.w	ad0a <_svfiprintf_r+0x3fa>
    ab3a:	3001      	adds	r0, #1
    ab3c:	9002      	str	r0, [sp, #8]
    ab3e:	e0e4      	b.n	ad0a <_svfiprintf_r+0x3fa>
    ab40:	f04a 0a10 	orr.w	sl, sl, #16
    ab44:	f01a 0320 	ands.w	r3, sl, #32
    ab48:	f000 8366 	beq.w	b218 <_svfiprintf_r+0x908>
    ab4c:	9b06      	ldr	r3, [sp, #24]
    ab4e:	1dda      	adds	r2, r3, #7
    ab50:	2300      	movs	r3, #0
    ab52:	e79a      	b.n	aa8a <_svfiprintf_r+0x17a>
    ab54:	f04a 0a10 	orr.w	sl, sl, #16
    ab58:	f01a 0f20 	tst.w	sl, #32
    ab5c:	f000 8343 	beq.w	b1e6 <_svfiprintf_r+0x8d6>
    ab60:	9806      	ldr	r0, [sp, #24]
    ab62:	1dc3      	adds	r3, r0, #7
    ab64:	f023 0307 	bic.w	r3, r3, #7
    ab68:	f103 0108 	add.w	r1, r3, #8
    ab6c:	9106      	str	r1, [sp, #24]
    ab6e:	e9d3 4500 	ldrd	r4, r5, [r3]
    ab72:	2c00      	cmp	r4, #0
    ab74:	f175 0000 	sbcs.w	r0, r5, #0
    ab78:	f2c0 83b8 	blt.w	b2ec <_svfiprintf_r+0x9dc>
    ab7c:	ea54 0105 	orrs.w	r1, r4, r5
    ab80:	f04f 0301 	mov.w	r3, #1
    ab84:	bf0c      	ite	eq
    ab86:	2200      	moveq	r2, #0
    ab88:	2201      	movne	r2, #1
    ab8a:	f1b8 0f00 	cmp.w	r8, #0
    ab8e:	bfa8      	it	ge
    ab90:	f02a 0a80 	bicge.w	sl, sl, #128	; 0x80
    ab94:	f1b8 0f00 	cmp.w	r8, #0
    ab98:	bf18      	it	ne
    ab9a:	f042 0201 	orrne.w	r2, r2, #1
    ab9e:	2a00      	cmp	r2, #0
    aba0:	d18e      	bne.n	aac0 <_svfiprintf_r+0x1b0>
    aba2:	2b00      	cmp	r3, #0
    aba4:	f040 82aa 	bne.w	b0fc <_svfiprintf_r+0x7ec>
    aba8:	f01a 0f01 	tst.w	sl, #1
    abac:	f000 82f9 	beq.w	b1a2 <_svfiprintf_r+0x892>
    abb0:	2101      	movs	r1, #1
    abb2:	2330      	movs	r3, #48	; 0x30
    abb4:	f10d 0297 	add.w	r2, sp, #151	; 0x97
    abb8:	9103      	str	r1, [sp, #12]
    abba:	f88d 3097 	strb.w	r3, [sp, #151]	; 0x97
    abbe:	9209      	str	r2, [sp, #36]	; 0x24
    abc0:	e7ae      	b.n	ab20 <_svfiprintf_r+0x210>
    abc2:	9806      	ldr	r0, [sp, #24]
    abc4:	9906      	ldr	r1, [sp, #24]
    abc6:	6800      	ldr	r0, [r0, #0]
    abc8:	1d0a      	adds	r2, r1, #4
    abca:	2800      	cmp	r0, #0
    abcc:	9004      	str	r0, [sp, #16]
    abce:	f280 8345 	bge.w	b25c <_svfiprintf_r+0x94c>
    abd2:	9b04      	ldr	r3, [sp, #16]
    abd4:	9206      	str	r2, [sp, #24]
    abd6:	425b      	negs	r3, r3
    abd8:	9304      	str	r3, [sp, #16]
    abda:	f04a 0a04 	orr.w	sl, sl, #4
    abde:	783b      	ldrb	r3, [r7, #0]
    abe0:	e6e9      	b.n	a9b6 <_svfiprintf_r+0xa6>
    abe2:	9b06      	ldr	r3, [sp, #24]
    abe4:	2500      	movs	r5, #0
    abe6:	f88d 50a7 	strb.w	r5, [sp, #167]	; 0xa7
    abea:	1d18      	adds	r0, r3, #4
    abec:	9006      	str	r0, [sp, #24]
    abee:	681b      	ldr	r3, [r3, #0]
    abf0:	9309      	str	r3, [sp, #36]	; 0x24
    abf2:	2b00      	cmp	r3, #0
    abf4:	f000 83db 	beq.w	b3ae <_svfiprintf_r+0xa9e>
    abf8:	f1b8 0f00 	cmp.w	r8, #0
    abfc:	f2c0 8388 	blt.w	b310 <_svfiprintf_r+0xa00>
    ac00:	9809      	ldr	r0, [sp, #36]	; 0x24
    ac02:	2100      	movs	r1, #0
    ac04:	4642      	mov	r2, r8
    ac06:	f7fe ffdd 	bl	9bc4 <memchr>
    ac0a:	2800      	cmp	r0, #0
    ac0c:	f000 83e1 	beq.w	b3d2 <_svfiprintf_r+0xac2>
    ac10:	9d09      	ldr	r5, [sp, #36]	; 0x24
    ac12:	1b40      	subs	r0, r0, r5
    ac14:	9003      	str	r0, [sp, #12]
    ac16:	4540      	cmp	r0, r8
    ac18:	f340 838c 	ble.w	b334 <_svfiprintf_r+0xa24>
    ac1c:	2500      	movs	r5, #0
    ac1e:	f8cd 800c 	str.w	r8, [sp, #12]
    ac22:	9507      	str	r5, [sp, #28]
    ac24:	e77e      	b.n	ab24 <_svfiprintf_r+0x214>
    ac26:	f04a 0a20 	orr.w	sl, sl, #32
    ac2a:	783b      	ldrb	r3, [r7, #0]
    ac2c:	e6c3      	b.n	a9b6 <_svfiprintf_r+0xa6>
    ac2e:	9b06      	ldr	r3, [sp, #24]
    ac30:	f24d 1118 	movw	r1, #53528	; 0xd118
    ac34:	2500      	movs	r5, #0
    ac36:	f2c0 0100 	movt	r1, #0
    ac3a:	f04a 0a02 	orr.w	sl, sl, #2
    ac3e:	681a      	ldr	r2, [r3, #0]
    ac40:	3304      	adds	r3, #4
    ac42:	9306      	str	r3, [sp, #24]
    ac44:	2330      	movs	r3, #48	; 0x30
    ac46:	4614      	mov	r4, r2
    ac48:	f88d 30a4 	strb.w	r3, [sp, #164]	; 0xa4
    ac4c:	2378      	movs	r3, #120	; 0x78
    ac4e:	3a00      	subs	r2, #0
    ac50:	f88d 30a5 	strb.w	r3, [sp, #165]	; 0xa5
    ac54:	bf18      	it	ne
    ac56:	2201      	movne	r2, #1
    ac58:	9108      	str	r1, [sp, #32]
    ac5a:	2302      	movs	r3, #2
    ac5c:	e721      	b.n	aaa2 <_svfiprintf_r+0x192>
    ac5e:	f01a 0f20 	tst.w	sl, #32
    ac62:	f040 8319 	bne.w	b298 <_svfiprintf_r+0x988>
    ac66:	f01a 0f10 	tst.w	sl, #16
    ac6a:	f040 8358 	bne.w	b31e <_svfiprintf_r+0xa0e>
    ac6e:	f01a 0f40 	tst.w	sl, #64	; 0x40
    ac72:	f000 8354 	beq.w	b31e <_svfiprintf_r+0xa0e>
    ac76:	9d06      	ldr	r5, [sp, #24]
    ac78:	9805      	ldr	r0, [sp, #20]
    ac7a:	682b      	ldr	r3, [r5, #0]
    ac7c:	3504      	adds	r5, #4
    ac7e:	9506      	str	r5, [sp, #24]
    ac80:	8018      	strh	r0, [r3, #0]
    ac82:	e65b      	b.n	a93c <_svfiprintf_r+0x2c>
    ac84:	783b      	ldrb	r3, [r7, #0]
    ac86:	2b6c      	cmp	r3, #108	; 0x6c
    ac88:	bf0a      	itet	eq
    ac8a:	f04a 0a20 	orreq.w	sl, sl, #32
    ac8e:	f04a 0a10 	orrne.w	sl, sl, #16
    ac92:	f817 3f01 	ldrbeq.w	r3, [r7, #1]!
    ac96:	e68e      	b.n	a9b6 <_svfiprintf_r+0xa6>
    ac98:	f04a 0a40 	orr.w	sl, sl, #64	; 0x40
    ac9c:	783b      	ldrb	r3, [r7, #0]
    ac9e:	e68a      	b.n	a9b6 <_svfiprintf_r+0xa6>
    aca0:	f01a 0f20 	tst.w	sl, #32
    aca4:	f24d 1204 	movw	r2, #53508	; 0xd104
    aca8:	f2c0 0200 	movt	r2, #0
    acac:	9208      	str	r2, [sp, #32]
    acae:	f000 80c8 	beq.w	ae42 <_svfiprintf_r+0x532>
    acb2:	9d06      	ldr	r5, [sp, #24]
    acb4:	1dea      	adds	r2, r5, #7
    acb6:	f022 0207 	bic.w	r2, r2, #7
    acba:	f102 0008 	add.w	r0, r2, #8
    acbe:	9006      	str	r0, [sp, #24]
    acc0:	e9d2 4500 	ldrd	r4, r5, [r2]
    acc4:	ea54 0005 	orrs.w	r0, r4, r5
    acc8:	bf0c      	ite	eq
    acca:	2200      	moveq	r2, #0
    accc:	2201      	movne	r2, #1
    acce:	ea1a 0f02 	tst.w	sl, r2
    acd2:	f000 82b4 	beq.w	b23e <_svfiprintf_r+0x92e>
    acd6:	f88d 30a5 	strb.w	r3, [sp, #165]	; 0xa5
    acda:	f04a 0a02 	orr.w	sl, sl, #2
    acde:	2330      	movs	r3, #48	; 0x30
    ace0:	2201      	movs	r2, #1
    ace2:	f88d 30a4 	strb.w	r3, [sp, #164]	; 0xa4
    ace6:	2302      	movs	r3, #2
    ace8:	e6db      	b.n	aaa2 <_svfiprintf_r+0x192>
    acea:	9b06      	ldr	r3, [sp, #24]
    acec:	2001      	movs	r0, #1
    acee:	aa1c      	add	r2, sp, #112	; 0x70
    acf0:	2500      	movs	r5, #0
    acf2:	1d19      	adds	r1, r3, #4
    acf4:	9002      	str	r0, [sp, #8]
    acf6:	681b      	ldr	r3, [r3, #0]
    acf8:	9106      	str	r1, [sp, #24]
    acfa:	9003      	str	r0, [sp, #12]
    acfc:	9209      	str	r2, [sp, #36]	; 0x24
    acfe:	f88d 50a7 	strb.w	r5, [sp, #167]	; 0xa7
    ad02:	f88d 3070 	strb.w	r3, [sp, #112]	; 0x70
    ad06:	2100      	movs	r1, #0
    ad08:	9107      	str	r1, [sp, #28]
    ad0a:	f01a 0202 	ands.w	r2, sl, #2
    ad0e:	920a      	str	r2, [sp, #40]	; 0x28
    ad10:	d002      	beq.n	ad18 <_svfiprintf_r+0x408>
    ad12:	9b02      	ldr	r3, [sp, #8]
    ad14:	3302      	adds	r3, #2
    ad16:	9302      	str	r3, [sp, #8]
    ad18:	f01a 0584 	ands.w	r5, sl, #132	; 0x84
    ad1c:	950b      	str	r5, [sp, #44]	; 0x2c
    ad1e:	f040 80b5 	bne.w	ae8c <_svfiprintf_r+0x57c>
    ad22:	9804      	ldr	r0, [sp, #16]
    ad24:	9902      	ldr	r1, [sp, #8]
    ad26:	1a44      	subs	r4, r0, r1
    ad28:	2c00      	cmp	r4, #0
    ad2a:	f340 80af 	ble.w	ae8c <_svfiprintf_r+0x57c>
    ad2e:	2c10      	cmp	r4, #16
    ad30:	f340 832e 	ble.w	b390 <_svfiprintf_r+0xa80>
    ad34:	f24d 2580 	movw	r5, #53888	; 0xd280
    ad38:	9a28      	ldr	r2, [sp, #160]	; 0xa0
    ad3a:	9b27      	ldr	r3, [sp, #156]	; 0x9c
    ad3c:	f2c0 0500 	movt	r5, #0
    ad40:	f04f 0810 	mov.w	r8, #16
    ad44:	e002      	b.n	ad4c <_svfiprintf_r+0x43c>
    ad46:	3c10      	subs	r4, #16
    ad48:	2c10      	cmp	r4, #16
    ad4a:	dd1c      	ble.n	ad86 <_svfiprintf_r+0x476>
    ad4c:	3301      	adds	r3, #1
    ad4e:	6035      	str	r5, [r6, #0]
    ad50:	f8c6 8004 	str.w	r8, [r6, #4]
    ad54:	3210      	adds	r2, #16
    ad56:	3608      	adds	r6, #8
    ad58:	2b07      	cmp	r3, #7
    ad5a:	9327      	str	r3, [sp, #156]	; 0x9c
    ad5c:	f106 0c08 	add.w	ip, r6, #8
    ad60:	9228      	str	r2, [sp, #160]	; 0xa0
    ad62:	ddf0      	ble.n	ad46 <_svfiprintf_r+0x436>
    ad64:	aa26      	add	r2, sp, #152	; 0x98
    ad66:	4658      	mov	r0, fp
    ad68:	4649      	mov	r1, r9
    ad6a:	ae0c      	add	r6, sp, #48	; 0x30
    ad6c:	f7ff fd4c 	bl	a808 <__ssprint_r>
    ad70:	aa0c      	add	r2, sp, #48	; 0x30
    ad72:	f102 0c08 	add.w	ip, r2, #8
    ad76:	2800      	cmp	r0, #0
    ad78:	f040 8156 	bne.w	b028 <_svfiprintf_r+0x718>
    ad7c:	3c10      	subs	r4, #16
    ad7e:	9a28      	ldr	r2, [sp, #160]	; 0xa0
    ad80:	2c10      	cmp	r4, #16
    ad82:	9b27      	ldr	r3, [sp, #156]	; 0x9c
    ad84:	dce2      	bgt.n	ad4c <_svfiprintf_r+0x43c>
    ad86:	3301      	adds	r3, #1
    ad88:	6035      	str	r5, [r6, #0]
    ad8a:	2b07      	cmp	r3, #7
    ad8c:	6074      	str	r4, [r6, #4]
    ad8e:	4422      	add	r2, r4
    ad90:	9327      	str	r3, [sp, #156]	; 0x9c
    ad92:	9228      	str	r2, [sp, #160]	; 0xa0
    ad94:	bfdc      	itt	le
    ad96:	f10c 0108 	addle.w	r1, ip, #8
    ad9a:	4666      	movle	r6, ip
    ad9c:	dd7a      	ble.n	ae94 <_svfiprintf_r+0x584>
    ad9e:	4658      	mov	r0, fp
    ada0:	4649      	mov	r1, r9
    ada2:	aa26      	add	r2, sp, #152	; 0x98
    ada4:	f7ff fd30 	bl	a808 <__ssprint_r>
    ada8:	2800      	cmp	r0, #0
    adaa:	f040 813d 	bne.w	b028 <_svfiprintf_r+0x718>
    adae:	ab0c      	add	r3, sp, #48	; 0x30
    adb0:	9a28      	ldr	r2, [sp, #160]	; 0xa0
    adb2:	f103 0108 	add.w	r1, r3, #8
    adb6:	ae0c      	add	r6, sp, #48	; 0x30
    adb8:	9b27      	ldr	r3, [sp, #156]	; 0x9c
    adba:	e06b      	b.n	ae94 <_svfiprintf_r+0x584>
    adbc:	f04a 0a01 	orr.w	sl, sl, #1
    adc0:	783b      	ldrb	r3, [r7, #0]
    adc2:	e5f8      	b.n	a9b6 <_svfiprintf_r+0xa6>
    adc4:	4639      	mov	r1, r7
    adc6:	2200      	movs	r2, #0
    adc8:	f1a3 0530 	sub.w	r5, r3, #48	; 0x30
    adcc:	f811 3b01 	ldrb.w	r3, [r1], #1
    add0:	eb02 0282 	add.w	r2, r2, r2, lsl #2
    add4:	f1a3 0030 	sub.w	r0, r3, #48	; 0x30
    add8:	460f      	mov	r7, r1
    adda:	2809      	cmp	r0, #9
    addc:	eb05 0242 	add.w	r2, r5, r2, lsl #1
    ade0:	d9f2      	bls.n	adc8 <_svfiprintf_r+0x4b8>
    ade2:	9204      	str	r2, [sp, #16]
    ade4:	e5e8      	b.n	a9b8 <_svfiprintf_r+0xa8>
    ade6:	f04a 0a80 	orr.w	sl, sl, #128	; 0x80
    adea:	783b      	ldrb	r3, [r7, #0]
    adec:	e5e3      	b.n	a9b6 <_svfiprintf_r+0xa6>
    adee:	f88d 40a7 	strb.w	r4, [sp, #167]	; 0xa7
    adf2:	783b      	ldrb	r3, [r7, #0]
    adf4:	e5df      	b.n	a9b6 <_svfiprintf_r+0xa6>
    adf6:	f817 3b01 	ldrb.w	r3, [r7], #1
    adfa:	2b2a      	cmp	r3, #42	; 0x2a
    adfc:	f000 8221 	beq.w	b242 <_svfiprintf_r+0x932>
    ae00:	f1a3 0230 	sub.w	r2, r3, #48	; 0x30
    ae04:	2a09      	cmp	r2, #9
    ae06:	bf88      	it	hi
    ae08:	f04f 0800 	movhi.w	r8, #0
    ae0c:	d80d      	bhi.n	ae2a <_svfiprintf_r+0x51a>
    ae0e:	4639      	mov	r1, r7
    ae10:	f04f 0800 	mov.w	r8, #0
    ae14:	f811 3b01 	ldrb.w	r3, [r1], #1
    ae18:	eb08 0888 	add.w	r8, r8, r8, lsl #2
    ae1c:	eb02 0848 	add.w	r8, r2, r8, lsl #1
    ae20:	f1a3 0230 	sub.w	r2, r3, #48	; 0x30
    ae24:	2a09      	cmp	r2, #9
    ae26:	460f      	mov	r7, r1
    ae28:	d9f4      	bls.n	ae14 <_svfiprintf_r+0x504>
    ae2a:	ea48 78e8 	orr.w	r8, r8, r8, asr #31
    ae2e:	e5c3      	b.n	a9b8 <_svfiprintf_r+0xa8>
    ae30:	f01a 0f20 	tst.w	sl, #32
    ae34:	f24d 1118 	movw	r1, #53528	; 0xd118
    ae38:	f2c0 0100 	movt	r1, #0
    ae3c:	9108      	str	r1, [sp, #32]
    ae3e:	f47f af38 	bne.w	acb2 <_svfiprintf_r+0x3a2>
    ae42:	f01a 0f10 	tst.w	sl, #16
    ae46:	f040 8233 	bne.w	b2b0 <_svfiprintf_r+0x9a0>
    ae4a:	f01a 0f40 	tst.w	sl, #64	; 0x40
    ae4e:	f000 8286 	beq.w	b35e <_svfiprintf_r+0xa4e>
    ae52:	9a06      	ldr	r2, [sp, #24]
    ae54:	2500      	movs	r5, #0
    ae56:	8814      	ldrh	r4, [r2, #0]
    ae58:	3204      	adds	r2, #4
    ae5a:	9206      	str	r2, [sp, #24]
    ae5c:	e732      	b.n	acc4 <_svfiprintf_r+0x3b4>
    ae5e:	2b00      	cmp	r3, #0
    ae60:	f000 80db 	beq.w	b01a <_svfiprintf_r+0x70a>
    ae64:	2001      	movs	r0, #1
    ae66:	2100      	movs	r1, #0
    ae68:	aa1c      	add	r2, sp, #112	; 0x70
    ae6a:	9002      	str	r0, [sp, #8]
    ae6c:	f88d 3070 	strb.w	r3, [sp, #112]	; 0x70
    ae70:	f88d 10a7 	strb.w	r1, [sp, #167]	; 0xa7
    ae74:	9003      	str	r0, [sp, #12]
    ae76:	9209      	str	r2, [sp, #36]	; 0x24
    ae78:	e745      	b.n	ad06 <_svfiprintf_r+0x3f6>
    ae7a:	f89d 30a7 	ldrb.w	r3, [sp, #167]	; 0xa7
    ae7e:	2b00      	cmp	r3, #0
    ae80:	f040 8227 	bne.w	b2d2 <_svfiprintf_r+0x9c2>
    ae84:	f88d c0a7 	strb.w	ip, [sp, #167]	; 0xa7
    ae88:	783b      	ldrb	r3, [r7, #0]
    ae8a:	e594      	b.n	a9b6 <_svfiprintf_r+0xa6>
    ae8c:	9a28      	ldr	r2, [sp, #160]	; 0xa0
    ae8e:	f106 0108 	add.w	r1, r6, #8
    ae92:	9b27      	ldr	r3, [sp, #156]	; 0x9c
    ae94:	f89d 00a7 	ldrb.w	r0, [sp, #167]	; 0xa7
    ae98:	b168      	cbz	r0, aeb6 <_svfiprintf_r+0x5a6>
    ae9a:	3301      	adds	r3, #1
    ae9c:	f10d 00a7 	add.w	r0, sp, #167	; 0xa7
    aea0:	6030      	str	r0, [r6, #0]
    aea2:	2001      	movs	r0, #1
    aea4:	2b07      	cmp	r3, #7
    aea6:	6070      	str	r0, [r6, #4]
    aea8:	4402      	add	r2, r0
    aeaa:	9327      	str	r3, [sp, #156]	; 0x9c
    aeac:	9228      	str	r2, [sp, #160]	; 0xa0
    aeae:	f300 8132 	bgt.w	b116 <_svfiprintf_r+0x806>
    aeb2:	460e      	mov	r6, r1
    aeb4:	3108      	adds	r1, #8
    aeb6:	980a      	ldr	r0, [sp, #40]	; 0x28
    aeb8:	b160      	cbz	r0, aed4 <_svfiprintf_r+0x5c4>
    aeba:	3301      	adds	r3, #1
    aebc:	a829      	add	r0, sp, #164	; 0xa4
    aebe:	6030      	str	r0, [r6, #0]
    aec0:	2002      	movs	r0, #2
    aec2:	2b07      	cmp	r3, #7
    aec4:	6070      	str	r0, [r6, #4]
    aec6:	4402      	add	r2, r0
    aec8:	9327      	str	r3, [sp, #156]	; 0x9c
    aeca:	9228      	str	r2, [sp, #160]	; 0xa0
    aecc:	f300 8134 	bgt.w	b138 <_svfiprintf_r+0x828>
    aed0:	460e      	mov	r6, r1
    aed2:	3108      	adds	r1, #8
    aed4:	9d0b      	ldr	r5, [sp, #44]	; 0x2c
    aed6:	2d80      	cmp	r5, #128	; 0x80
    aed8:	f000 80b3 	beq.w	b042 <_svfiprintf_r+0x732>
    aedc:	9807      	ldr	r0, [sp, #28]
    aede:	9d03      	ldr	r5, [sp, #12]
    aee0:	1b44      	subs	r4, r0, r5
    aee2:	2c00      	cmp	r4, #0
    aee4:	dd3e      	ble.n	af64 <_svfiprintf_r+0x654>
    aee6:	2c10      	cmp	r4, #16
    aee8:	f340 8221 	ble.w	b32e <_svfiprintf_r+0xa1e>
    aeec:	4d91      	ldr	r5, [pc, #580]	; (b134 <_svfiprintf_r+0x824>)
    aeee:	f04f 0810 	mov.w	r8, #16
    aef2:	e002      	b.n	aefa <_svfiprintf_r+0x5ea>
    aef4:	3c10      	subs	r4, #16
    aef6:	2c10      	cmp	r4, #16
    aef8:	dd1b      	ble.n	af32 <_svfiprintf_r+0x622>
    aefa:	3301      	adds	r3, #1
    aefc:	6035      	str	r5, [r6, #0]
    aefe:	f8c6 8004 	str.w	r8, [r6, #4]
    af02:	3210      	adds	r2, #16
    af04:	3608      	adds	r6, #8
    af06:	2b07      	cmp	r3, #7
    af08:	9327      	str	r3, [sp, #156]	; 0x9c
    af0a:	f106 0c08 	add.w	ip, r6, #8
    af0e:	9228      	str	r2, [sp, #160]	; 0xa0
    af10:	ddf0      	ble.n	aef4 <_svfiprintf_r+0x5e4>
    af12:	4649      	mov	r1, r9
    af14:	4658      	mov	r0, fp
    af16:	aa26      	add	r2, sp, #152	; 0x98
    af18:	ae0c      	add	r6, sp, #48	; 0x30
    af1a:	f7ff fc75 	bl	a808 <__ssprint_r>
    af1e:	a90c      	add	r1, sp, #48	; 0x30
    af20:	f101 0c08 	add.w	ip, r1, #8
    af24:	2800      	cmp	r0, #0
    af26:	d17f      	bne.n	b028 <_svfiprintf_r+0x718>
    af28:	3c10      	subs	r4, #16
    af2a:	9a28      	ldr	r2, [sp, #160]	; 0xa0
    af2c:	2c10      	cmp	r4, #16
    af2e:	9b27      	ldr	r3, [sp, #156]	; 0x9c
    af30:	dce3      	bgt.n	aefa <_svfiprintf_r+0x5ea>
    af32:	3301      	adds	r3, #1
    af34:	6035      	str	r5, [r6, #0]
    af36:	2b07      	cmp	r3, #7
    af38:	6074      	str	r4, [r6, #4]
    af3a:	4422      	add	r2, r4
    af3c:	9327      	str	r3, [sp, #156]	; 0x9c
    af3e:	9228      	str	r2, [sp, #160]	; 0xa0
    af40:	bfdc      	itt	le
    af42:	f10c 0108 	addle.w	r1, ip, #8
    af46:	4666      	movle	r6, ip
    af48:	dd0c      	ble.n	af64 <_svfiprintf_r+0x654>
    af4a:	4658      	mov	r0, fp
    af4c:	4649      	mov	r1, r9
    af4e:	aa26      	add	r2, sp, #152	; 0x98
    af50:	f7ff fc5a 	bl	a808 <__ssprint_r>
    af54:	2800      	cmp	r0, #0
    af56:	d167      	bne.n	b028 <_svfiprintf_r+0x718>
    af58:	ab0c      	add	r3, sp, #48	; 0x30
    af5a:	9a28      	ldr	r2, [sp, #160]	; 0xa0
    af5c:	f103 0108 	add.w	r1, r3, #8
    af60:	9b27      	ldr	r3, [sp, #156]	; 0x9c
    af62:	ae0c      	add	r6, sp, #48	; 0x30
    af64:	3301      	adds	r3, #1
    af66:	9803      	ldr	r0, [sp, #12]
    af68:	9d09      	ldr	r5, [sp, #36]	; 0x24
    af6a:	2b07      	cmp	r3, #7
    af6c:	4402      	add	r2, r0
    af6e:	6070      	str	r0, [r6, #4]
    af70:	6035      	str	r5, [r6, #0]
    af72:	9327      	str	r3, [sp, #156]	; 0x9c
    af74:	9228      	str	r2, [sp, #160]	; 0xa0
    af76:	f300 80ae 	bgt.w	b0d6 <_svfiprintf_r+0x7c6>
    af7a:	f01a 0f04 	tst.w	sl, #4
    af7e:	d030      	beq.n	afe2 <_svfiprintf_r+0x6d2>
    af80:	9b04      	ldr	r3, [sp, #16]
    af82:	9d02      	ldr	r5, [sp, #8]
    af84:	1b5c      	subs	r4, r3, r5
    af86:	2c00      	cmp	r4, #0
    af88:	dd2b      	ble.n	afe2 <_svfiprintf_r+0x6d2>
    af8a:	2c10      	cmp	r4, #16
    af8c:	f340 8209 	ble.w	b3a2 <_svfiprintf_r+0xa92>
    af90:	f24d 2580 	movw	r5, #53888	; 0xd280
    af94:	9b27      	ldr	r3, [sp, #156]	; 0x9c
    af96:	f2c0 0500 	movt	r5, #0
    af9a:	2610      	movs	r6, #16
    af9c:	e002      	b.n	afa4 <_svfiprintf_r+0x694>
    af9e:	3c10      	subs	r4, #16
    afa0:	2c10      	cmp	r4, #16
    afa2:	dd15      	ble.n	afd0 <_svfiprintf_r+0x6c0>
    afa4:	3301      	adds	r3, #1
    afa6:	600d      	str	r5, [r1, #0]
    afa8:	604e      	str	r6, [r1, #4]
    afaa:	3210      	adds	r2, #16
    afac:	3108      	adds	r1, #8
    afae:	2b07      	cmp	r3, #7
    afb0:	9327      	str	r3, [sp, #156]	; 0x9c
    afb2:	9228      	str	r2, [sp, #160]	; 0xa0
    afb4:	ddf3      	ble.n	af9e <_svfiprintf_r+0x68e>
    afb6:	4649      	mov	r1, r9
    afb8:	4658      	mov	r0, fp
    afba:	aa26      	add	r2, sp, #152	; 0x98
    afbc:	f7ff fc24 	bl	a808 <__ssprint_r>
    afc0:	a90c      	add	r1, sp, #48	; 0x30
    afc2:	2800      	cmp	r0, #0
    afc4:	d130      	bne.n	b028 <_svfiprintf_r+0x718>
    afc6:	3c10      	subs	r4, #16
    afc8:	9a28      	ldr	r2, [sp, #160]	; 0xa0
    afca:	2c10      	cmp	r4, #16
    afcc:	9b27      	ldr	r3, [sp, #156]	; 0x9c
    afce:	dce9      	bgt.n	afa4 <_svfiprintf_r+0x694>
    afd0:	3301      	adds	r3, #1
    afd2:	600d      	str	r5, [r1, #0]
    afd4:	2b07      	cmp	r3, #7
    afd6:	604c      	str	r4, [r1, #4]
    afd8:	4422      	add	r2, r4
    afda:	9327      	str	r3, [sp, #156]	; 0x9c
    afdc:	9228      	str	r2, [sp, #160]	; 0xa0
    afde:	f300 8141 	bgt.w	b264 <_svfiprintf_r+0x954>
    afe2:	9805      	ldr	r0, [sp, #20]
    afe4:	9b02      	ldr	r3, [sp, #8]
    afe6:	9904      	ldr	r1, [sp, #16]
    afe8:	428b      	cmp	r3, r1
    afea:	bfac      	ite	ge
    afec:	18c0      	addge	r0, r0, r3
    afee:	1840      	addlt	r0, r0, r1
    aff0:	9005      	str	r0, [sp, #20]
    aff2:	2a00      	cmp	r2, #0
    aff4:	d179      	bne.n	b0ea <_svfiprintf_r+0x7da>
    aff6:	2500      	movs	r5, #0
    aff8:	9527      	str	r5, [sp, #156]	; 0x9c
    affa:	783b      	ldrb	r3, [r7, #0]
    affc:	ae0c      	add	r6, sp, #48	; 0x30
    affe:	f1b3 0225 	subs.w	r2, r3, #37	; 0x25
    b002:	bf18      	it	ne
    b004:	2201      	movne	r2, #1
    b006:	2b00      	cmp	r3, #0
    b008:	bf0c      	ite	eq
    b00a:	2300      	moveq	r3, #0
    b00c:	f002 0301 	andne.w	r3, r2, #1
    b010:	2b00      	cmp	r3, #0
    b012:	f47f aca0 	bne.w	a956 <_svfiprintf_r+0x46>
    b016:	463c      	mov	r4, r7
    b018:	e4bc      	b.n	a994 <_svfiprintf_r+0x84>
    b01a:	9b28      	ldr	r3, [sp, #160]	; 0xa0
    b01c:	b123      	cbz	r3, b028 <_svfiprintf_r+0x718>
    b01e:	4658      	mov	r0, fp
    b020:	4649      	mov	r1, r9
    b022:	aa26      	add	r2, sp, #152	; 0x98
    b024:	f7ff fbf0 	bl	a808 <__ssprint_r>
    b028:	f8b9 300c 	ldrh.w	r3, [r9, #12]
    b02c:	9805      	ldr	r0, [sp, #20]
    b02e:	f013 0f40 	tst.w	r3, #64	; 0x40
    b032:	bf18      	it	ne
    b034:	f04f 30ff 	movne.w	r0, #4294967295
    b038:	9005      	str	r0, [sp, #20]
    b03a:	9805      	ldr	r0, [sp, #20]
    b03c:	b02b      	add	sp, #172	; 0xac
    b03e:	e8bd 8ff0 	ldmia.w	sp!, {r4, r5, r6, r7, r8, r9, sl, fp, pc}
    b042:	9804      	ldr	r0, [sp, #16]
    b044:	9d02      	ldr	r5, [sp, #8]
    b046:	1b44      	subs	r4, r0, r5
    b048:	2c00      	cmp	r4, #0
    b04a:	bfd8      	it	le
    b04c:	f106 0108 	addle.w	r1, r6, #8
    b050:	f77f af44 	ble.w	aedc <_svfiprintf_r+0x5cc>
    b054:	2c10      	cmp	r4, #16
    b056:	f340 81b9 	ble.w	b3cc <_svfiprintf_r+0xabc>
    b05a:	4d36      	ldr	r5, [pc, #216]	; (b134 <_svfiprintf_r+0x824>)
    b05c:	f04f 0810 	mov.w	r8, #16
    b060:	e002      	b.n	b068 <_svfiprintf_r+0x758>
    b062:	3c10      	subs	r4, #16
    b064:	2c10      	cmp	r4, #16
    b066:	dd1b      	ble.n	b0a0 <_svfiprintf_r+0x790>
    b068:	3301      	adds	r3, #1
    b06a:	6035      	str	r5, [r6, #0]
    b06c:	f8c6 8004 	str.w	r8, [r6, #4]
    b070:	3210      	adds	r2, #16
    b072:	3608      	adds	r6, #8
    b074:	2b07      	cmp	r3, #7
    b076:	9327      	str	r3, [sp, #156]	; 0x9c
    b078:	f106 0c08 	add.w	ip, r6, #8
    b07c:	9228      	str	r2, [sp, #160]	; 0xa0
    b07e:	ddf0      	ble.n	b062 <_svfiprintf_r+0x752>
    b080:	4649      	mov	r1, r9
    b082:	4658      	mov	r0, fp
    b084:	aa26      	add	r2, sp, #152	; 0x98
    b086:	ae0c      	add	r6, sp, #48	; 0x30
    b088:	f7ff fbbe 	bl	a808 <__ssprint_r>
    b08c:	a90c      	add	r1, sp, #48	; 0x30
    b08e:	f101 0c08 	add.w	ip, r1, #8
    b092:	2800      	cmp	r0, #0
    b094:	d1c8      	bne.n	b028 <_svfiprintf_r+0x718>
    b096:	3c10      	subs	r4, #16
    b098:	9a28      	ldr	r2, [sp, #160]	; 0xa0
    b09a:	2c10      	cmp	r4, #16
    b09c:	9b27      	ldr	r3, [sp, #156]	; 0x9c
    b09e:	dce3      	bgt.n	b068 <_svfiprintf_r+0x758>
    b0a0:	3301      	adds	r3, #1
    b0a2:	6035      	str	r5, [r6, #0]
    b0a4:	2b07      	cmp	r3, #7
    b0a6:	6074      	str	r4, [r6, #4]
    b0a8:	4422      	add	r2, r4
    b0aa:	9327      	str	r3, [sp, #156]	; 0x9c
    b0ac:	9228      	str	r2, [sp, #160]	; 0xa0
    b0ae:	bfdc      	itt	le
    b0b0:	f10c 0108 	addle.w	r1, ip, #8
    b0b4:	4666      	movle	r6, ip
    b0b6:	f77f af11 	ble.w	aedc <_svfiprintf_r+0x5cc>
    b0ba:	4658      	mov	r0, fp
    b0bc:	4649      	mov	r1, r9
    b0be:	aa26      	add	r2, sp, #152	; 0x98
    b0c0:	f7ff fba2 	bl	a808 <__ssprint_r>
    b0c4:	2800      	cmp	r0, #0
    b0c6:	d1af      	bne.n	b028 <_svfiprintf_r+0x718>
    b0c8:	ab0c      	add	r3, sp, #48	; 0x30
    b0ca:	9a28      	ldr	r2, [sp, #160]	; 0xa0
    b0cc:	f103 0108 	add.w	r1, r3, #8
    b0d0:	ae0c      	add	r6, sp, #48	; 0x30
    b0d2:	9b27      	ldr	r3, [sp, #156]	; 0x9c
    b0d4:	e702      	b.n	aedc <_svfiprintf_r+0x5cc>
    b0d6:	4658      	mov	r0, fp
    b0d8:	4649      	mov	r1, r9
    b0da:	aa26      	add	r2, sp, #152	; 0x98
    b0dc:	f7ff fb94 	bl	a808 <__ssprint_r>
    b0e0:	2800      	cmp	r0, #0
    b0e2:	d1a1      	bne.n	b028 <_svfiprintf_r+0x718>
    b0e4:	9a28      	ldr	r2, [sp, #160]	; 0xa0
    b0e6:	a90c      	add	r1, sp, #48	; 0x30
    b0e8:	e747      	b.n	af7a <_svfiprintf_r+0x66a>
    b0ea:	4658      	mov	r0, fp
    b0ec:	4649      	mov	r1, r9
    b0ee:	aa26      	add	r2, sp, #152	; 0x98
    b0f0:	f7ff fb8a 	bl	a808 <__ssprint_r>
    b0f4:	2800      	cmp	r0, #0
    b0f6:	f43f af7e 	beq.w	aff6 <_svfiprintf_r+0x6e6>
    b0fa:	e795      	b.n	b028 <_svfiprintf_r+0x718>
    b0fc:	ab26      	add	r3, sp, #152	; 0x98
    b0fe:	9203      	str	r2, [sp, #12]
    b100:	9309      	str	r3, [sp, #36]	; 0x24
    b102:	e50d      	b.n	ab20 <_svfiprintf_r+0x210>
    b104:	4658      	mov	r0, fp
    b106:	4649      	mov	r1, r9
    b108:	aa26      	add	r2, sp, #152	; 0x98
    b10a:	f7ff fb7d 	bl	a808 <__ssprint_r>
    b10e:	2800      	cmp	r0, #0
    b110:	d18a      	bne.n	b028 <_svfiprintf_r+0x718>
    b112:	ae0c      	add	r6, sp, #48	; 0x30
    b114:	e43b      	b.n	a98e <_svfiprintf_r+0x7e>
    b116:	4658      	mov	r0, fp
    b118:	4649      	mov	r1, r9
    b11a:	aa26      	add	r2, sp, #152	; 0x98
    b11c:	f7ff fb74 	bl	a808 <__ssprint_r>
    b120:	2800      	cmp	r0, #0
    b122:	d181      	bne.n	b028 <_svfiprintf_r+0x718>
    b124:	ad0c      	add	r5, sp, #48	; 0x30
    b126:	9a28      	ldr	r2, [sp, #160]	; 0xa0
    b128:	f105 0108 	add.w	r1, r5, #8
    b12c:	9b27      	ldr	r3, [sp, #156]	; 0x9c
    b12e:	462e      	mov	r6, r5
    b130:	e6c1      	b.n	aeb6 <_svfiprintf_r+0x5a6>
    b132:	bf00      	nop
    b134:	0000d290 	.word	0x0000d290
    b138:	4658      	mov	r0, fp
    b13a:	4649      	mov	r1, r9
    b13c:	aa26      	add	r2, sp, #152	; 0x98
    b13e:	f7ff fb63 	bl	a808 <__ssprint_r>
    b142:	2800      	cmp	r0, #0
    b144:	f47f af70 	bne.w	b028 <_svfiprintf_r+0x718>
    b148:	ab0c      	add	r3, sp, #48	; 0x30
    b14a:	9a28      	ldr	r2, [sp, #160]	; 0xa0
    b14c:	f103 0108 	add.w	r1, r3, #8
    b150:	ae0c      	add	r6, sp, #48	; 0x30
    b152:	9b27      	ldr	r3, [sp, #156]	; 0x9c
    b154:	e6be      	b.n	aed4 <_svfiprintf_r+0x5c4>
    b156:	2c0a      	cmp	r4, #10
    b158:	f175 0300 	sbcs.w	r3, r5, #0
    b15c:	f0c0 8093 	bcc.w	b286 <_svfiprintf_r+0x976>
    b160:	a91c      	add	r1, sp, #112	; 0x70
    b162:	9703      	str	r7, [sp, #12]
    b164:	f101 0327 	add.w	r3, r1, #39	; 0x27
    b168:	9102      	str	r1, [sp, #8]
    b16a:	461f      	mov	r7, r3
    b16c:	9607      	str	r6, [sp, #28]
    b16e:	4620      	mov	r0, r4
    b170:	4629      	mov	r1, r5
    b172:	220a      	movs	r2, #10
    b174:	2300      	movs	r3, #0
    b176:	f000 fe4d 	bl	be14 <__aeabi_uldivmod>
    b17a:	463e      	mov	r6, r7
    b17c:	4620      	mov	r0, r4
    b17e:	4629      	mov	r1, r5
    b180:	2300      	movs	r3, #0
    b182:	3f01      	subs	r7, #1
    b184:	f102 0430 	add.w	r4, r2, #48	; 0x30
    b188:	220a      	movs	r2, #10
    b18a:	7034      	strb	r4, [r6, #0]
    b18c:	f000 fe42 	bl	be14 <__aeabi_uldivmod>
    b190:	4604      	mov	r4, r0
    b192:	460d      	mov	r5, r1
    b194:	ea54 0205 	orrs.w	r2, r4, r5
    b198:	d1e9      	bne.n	b16e <_svfiprintf_r+0x85e>
    b19a:	9609      	str	r6, [sp, #36]	; 0x24
    b19c:	9f03      	ldr	r7, [sp, #12]
    b19e:	9e07      	ldr	r6, [sp, #28]
    b1a0:	e01a      	b.n	b1d8 <_svfiprintf_r+0x8c8>
    b1a2:	ad26      	add	r5, sp, #152	; 0x98
    b1a4:	9303      	str	r3, [sp, #12]
    b1a6:	9509      	str	r5, [sp, #36]	; 0x24
    b1a8:	e4ba      	b.n	ab20 <_svfiprintf_r+0x210>
    b1aa:	a91c      	add	r1, sp, #112	; 0x70
    b1ac:	f8dd c020 	ldr.w	ip, [sp, #32]
    b1b0:	f101 0027 	add.w	r0, r1, #39	; 0x27
    b1b4:	9102      	str	r1, [sp, #8]
    b1b6:	f004 020f 	and.w	r2, r4, #15
    b1ba:	0923      	lsrs	r3, r4, #4
    b1bc:	ea43 7305 	orr.w	r3, r3, r5, lsl #28
    b1c0:	0929      	lsrs	r1, r5, #4
    b1c2:	f81c 2002 	ldrb.w	r2, [ip, r2]
    b1c6:	461c      	mov	r4, r3
    b1c8:	4603      	mov	r3, r0
    b1ca:	460d      	mov	r5, r1
    b1cc:	3801      	subs	r0, #1
    b1ce:	701a      	strb	r2, [r3, #0]
    b1d0:	ea54 0205 	orrs.w	r2, r4, r5
    b1d4:	d1ef      	bne.n	b1b6 <_svfiprintf_r+0x8a6>
    b1d6:	9309      	str	r3, [sp, #36]	; 0x24
    b1d8:	9d02      	ldr	r5, [sp, #8]
    b1da:	9809      	ldr	r0, [sp, #36]	; 0x24
    b1dc:	f105 0328 	add.w	r3, r5, #40	; 0x28
    b1e0:	1a1b      	subs	r3, r3, r0
    b1e2:	9303      	str	r3, [sp, #12]
    b1e4:	e49c      	b.n	ab20 <_svfiprintf_r+0x210>
    b1e6:	f01a 0f10 	tst.w	sl, #16
    b1ea:	d175      	bne.n	b2d8 <_svfiprintf_r+0x9c8>
    b1ec:	f01a 0f40 	tst.w	sl, #64	; 0x40
    b1f0:	f000 80a4 	beq.w	b33c <_svfiprintf_r+0xa2c>
    b1f4:	9b06      	ldr	r3, [sp, #24]
    b1f6:	f9b3 4000 	ldrsh.w	r4, [r3]
    b1fa:	3304      	adds	r3, #4
    b1fc:	9306      	str	r3, [sp, #24]
    b1fe:	17e5      	asrs	r5, r4, #31
    b200:	e4b7      	b.n	ab72 <_svfiprintf_r+0x262>
    b202:	f01a 0f10 	tst.w	sl, #16
    b206:	d17f      	bne.n	b308 <_svfiprintf_r+0x9f8>
    b208:	f01a 0f40 	tst.w	sl, #64	; 0x40
    b20c:	f000 80ad 	beq.w	b36a <_svfiprintf_r+0xa5a>
    b210:	9b06      	ldr	r3, [sp, #24]
    b212:	881a      	ldrh	r2, [r3, #0]
    b214:	2301      	movs	r3, #1
    b216:	e009      	b.n	b22c <_svfiprintf_r+0x91c>
    b218:	f01a 0110 	ands.w	r1, sl, #16
    b21c:	d14e      	bne.n	b2bc <_svfiprintf_r+0x9ac>
    b21e:	f01a 0340 	ands.w	r3, sl, #64	; 0x40
    b222:	f000 8091 	beq.w	b348 <_svfiprintf_r+0xa38>
    b226:	9b06      	ldr	r3, [sp, #24]
    b228:	881a      	ldrh	r2, [r3, #0]
    b22a:	460b      	mov	r3, r1
    b22c:	9d06      	ldr	r5, [sp, #24]
    b22e:	4614      	mov	r4, r2
    b230:	3504      	adds	r5, #4
    b232:	9506      	str	r5, [sp, #24]
    b234:	2500      	movs	r5, #0
    b236:	3a00      	subs	r2, #0
    b238:	bf18      	it	ne
    b23a:	2201      	movne	r2, #1
    b23c:	e431      	b.n	aaa2 <_svfiprintf_r+0x192>
    b23e:	2302      	movs	r3, #2
    b240:	e42f      	b.n	aaa2 <_svfiprintf_r+0x192>
    b242:	9d06      	ldr	r5, [sp, #24]
    b244:	1d2a      	adds	r2, r5, #4
    b246:	f8d5 8000 	ldr.w	r8, [r5]
    b24a:	f1b8 0f00 	cmp.w	r8, #0
    b24e:	bfbe      	ittt	lt
    b250:	f04f 38ff 	movlt.w	r8, #4294967295
    b254:	783b      	ldrblt	r3, [r7, #0]
    b256:	9206      	strlt	r2, [sp, #24]
    b258:	f6ff abad 	blt.w	a9b6 <_svfiprintf_r+0xa6>
    b25c:	783b      	ldrb	r3, [r7, #0]
    b25e:	9206      	str	r2, [sp, #24]
    b260:	f7ff bba9 	b.w	a9b6 <_svfiprintf_r+0xa6>
    b264:	4658      	mov	r0, fp
    b266:	4649      	mov	r1, r9
    b268:	aa26      	add	r2, sp, #152	; 0x98
    b26a:	f7ff facd 	bl	a808 <__ssprint_r>
    b26e:	2800      	cmp	r0, #0
    b270:	f47f aeda 	bne.w	b028 <_svfiprintf_r+0x718>
    b274:	9a28      	ldr	r2, [sp, #160]	; 0xa0
    b276:	e6b4      	b.n	afe2 <_svfiprintf_r+0x6d2>
    b278:	9902      	ldr	r1, [sp, #8]
    b27a:	9a09      	ldr	r2, [sp, #36]	; 0x24
    b27c:	f101 0328 	add.w	r3, r1, #40	; 0x28
    b280:	1a9b      	subs	r3, r3, r2
    b282:	9303      	str	r3, [sp, #12]
    b284:	e44c      	b.n	ab20 <_svfiprintf_r+0x210>
    b286:	3430      	adds	r4, #48	; 0x30
    b288:	2501      	movs	r5, #1
    b28a:	f10d 0097 	add.w	r0, sp, #151	; 0x97
    b28e:	9503      	str	r5, [sp, #12]
    b290:	f88d 4097 	strb.w	r4, [sp, #151]	; 0x97
    b294:	9009      	str	r0, [sp, #36]	; 0x24
    b296:	e443      	b.n	ab20 <_svfiprintf_r+0x210>
    b298:	9b06      	ldr	r3, [sp, #24]
    b29a:	9d05      	ldr	r5, [sp, #20]
    b29c:	9806      	ldr	r0, [sp, #24]
    b29e:	6819      	ldr	r1, [r3, #0]
    b2a0:	462a      	mov	r2, r5
    b2a2:	17eb      	asrs	r3, r5, #31
    b2a4:	3004      	adds	r0, #4
    b2a6:	9006      	str	r0, [sp, #24]
    b2a8:	e9c1 2300 	strd	r2, r3, [r1]
    b2ac:	f7ff bb46 	b.w	a93c <_svfiprintf_r+0x2c>
    b2b0:	9906      	ldr	r1, [sp, #24]
    b2b2:	2500      	movs	r5, #0
    b2b4:	680c      	ldr	r4, [r1, #0]
    b2b6:	3104      	adds	r1, #4
    b2b8:	9106      	str	r1, [sp, #24]
    b2ba:	e503      	b.n	acc4 <_svfiprintf_r+0x3b4>
    b2bc:	9906      	ldr	r1, [sp, #24]
    b2be:	680a      	ldr	r2, [r1, #0]
    b2c0:	3104      	adds	r1, #4
    b2c2:	4614      	mov	r4, r2
    b2c4:	2500      	movs	r5, #0
    b2c6:	3a00      	subs	r2, #0
    b2c8:	9106      	str	r1, [sp, #24]
    b2ca:	bf18      	it	ne
    b2cc:	2201      	movne	r2, #1
    b2ce:	f7ff bbe8 	b.w	aaa2 <_svfiprintf_r+0x192>
    b2d2:	783b      	ldrb	r3, [r7, #0]
    b2d4:	f7ff bb6f 	b.w	a9b6 <_svfiprintf_r+0xa6>
    b2d8:	9a06      	ldr	r2, [sp, #24]
    b2da:	6814      	ldr	r4, [r2, #0]
    b2dc:	3204      	adds	r2, #4
    b2de:	9206      	str	r2, [sp, #24]
    b2e0:	17e5      	asrs	r5, r4, #31
    b2e2:	2c00      	cmp	r4, #0
    b2e4:	f175 0000 	sbcs.w	r0, r5, #0
    b2e8:	f6bf ac48 	bge.w	ab7c <_svfiprintf_r+0x26c>
    b2ec:	4264      	negs	r4, r4
    b2ee:	eb65 0545 	sbc.w	r5, r5, r5, lsl #1
    b2f2:	232d      	movs	r3, #45	; 0x2d
    b2f4:	ea54 0205 	orrs.w	r2, r4, r5
    b2f8:	f88d 30a7 	strb.w	r3, [sp, #167]	; 0xa7
    b2fc:	bf0c      	ite	eq
    b2fe:	2200      	moveq	r2, #0
    b300:	2201      	movne	r2, #1
    b302:	2301      	movs	r3, #1
    b304:	f7ff bbd0 	b.w	aaa8 <_svfiprintf_r+0x198>
    b308:	9906      	ldr	r1, [sp, #24]
    b30a:	2301      	movs	r3, #1
    b30c:	680a      	ldr	r2, [r1, #0]
    b30e:	e7d7      	b.n	b2c0 <_svfiprintf_r+0x9b0>
    b310:	9809      	ldr	r0, [sp, #36]	; 0x24
    b312:	2100      	movs	r1, #0
    b314:	9107      	str	r1, [sp, #28]
    b316:	f7fb fd9d 	bl	6e54 <strlen>
    b31a:	9003      	str	r0, [sp, #12]
    b31c:	e402      	b.n	ab24 <_svfiprintf_r+0x214>
    b31e:	9906      	ldr	r1, [sp, #24]
    b320:	9a05      	ldr	r2, [sp, #20]
    b322:	680b      	ldr	r3, [r1, #0]
    b324:	3104      	adds	r1, #4
    b326:	9106      	str	r1, [sp, #24]
    b328:	601a      	str	r2, [r3, #0]
    b32a:	f7ff bb07 	b.w	a93c <_svfiprintf_r+0x2c>
    b32e:	4d2e      	ldr	r5, [pc, #184]	; (b3e8 <_svfiprintf_r+0xad8>)
    b330:	468c      	mov	ip, r1
    b332:	e5fe      	b.n	af32 <_svfiprintf_r+0x622>
    b334:	2300      	movs	r3, #0
    b336:	9307      	str	r3, [sp, #28]
    b338:	f7ff bbf4 	b.w	ab24 <_svfiprintf_r+0x214>
    b33c:	9d06      	ldr	r5, [sp, #24]
    b33e:	682c      	ldr	r4, [r5, #0]
    b340:	3504      	adds	r5, #4
    b342:	9506      	str	r5, [sp, #24]
    b344:	17e5      	asrs	r5, r4, #31
    b346:	e414      	b.n	ab72 <_svfiprintf_r+0x262>
    b348:	9806      	ldr	r0, [sp, #24]
    b34a:	6802      	ldr	r2, [r0, #0]
    b34c:	3004      	adds	r0, #4
    b34e:	4614      	mov	r4, r2
    b350:	2500      	movs	r5, #0
    b352:	3a00      	subs	r2, #0
    b354:	9006      	str	r0, [sp, #24]
    b356:	bf18      	it	ne
    b358:	2201      	movne	r2, #1
    b35a:	f7ff bba2 	b.w	aaa2 <_svfiprintf_r+0x192>
    b35e:	9d06      	ldr	r5, [sp, #24]
    b360:	682c      	ldr	r4, [r5, #0]
    b362:	3504      	adds	r5, #4
    b364:	9506      	str	r5, [sp, #24]
    b366:	2500      	movs	r5, #0
    b368:	e4ac      	b.n	acc4 <_svfiprintf_r+0x3b4>
    b36a:	9806      	ldr	r0, [sp, #24]
    b36c:	2301      	movs	r3, #1
    b36e:	6802      	ldr	r2, [r0, #0]
    b370:	e7ec      	b.n	b34c <_svfiprintf_r+0xa3c>
    b372:	2140      	movs	r1, #64	; 0x40
    b374:	9201      	str	r2, [sp, #4]
    b376:	f7fe f967 	bl	9648 <_malloc_r>
    b37a:	9a01      	ldr	r2, [sp, #4]
    b37c:	f8c9 0000 	str.w	r0, [r9]
    b380:	f8c9 0010 	str.w	r0, [r9, #16]
    b384:	b350      	cbz	r0, b3dc <_svfiprintf_r+0xacc>
    b386:	2340      	movs	r3, #64	; 0x40
    b388:	f8c9 3014 	str.w	r3, [r9, #20]
    b38c:	f7ff bace 	b.w	a92c <_svfiprintf_r+0x1c>
    b390:	f24d 2580 	movw	r5, #53888	; 0xd280
    b394:	f106 0c08 	add.w	ip, r6, #8
    b398:	9a28      	ldr	r2, [sp, #160]	; 0xa0
    b39a:	f2c0 0500 	movt	r5, #0
    b39e:	9b27      	ldr	r3, [sp, #156]	; 0x9c
    b3a0:	e4f1      	b.n	ad86 <_svfiprintf_r+0x476>
    b3a2:	f24d 2580 	movw	r5, #53888	; 0xd280
    b3a6:	9b27      	ldr	r3, [sp, #156]	; 0x9c
    b3a8:	f2c0 0500 	movt	r5, #0
    b3ac:	e610      	b.n	afd0 <_svfiprintf_r+0x6c0>
    b3ae:	f1b8 0f06 	cmp.w	r8, #6
    b3b2:	bf34      	ite	cc
    b3b4:	4641      	movcc	r1, r8
    b3b6:	2106      	movcs	r1, #6
    b3b8:	f24d 122c 	movw	r2, #53548	; 0xd12c
    b3bc:	ea21 73e1 	bic.w	r3, r1, r1, asr #31
    b3c0:	f2c0 0200 	movt	r2, #0
    b3c4:	9103      	str	r1, [sp, #12]
    b3c6:	9302      	str	r3, [sp, #8]
    b3c8:	9209      	str	r2, [sp, #36]	; 0x24
    b3ca:	e49c      	b.n	ad06 <_svfiprintf_r+0x3f6>
    b3cc:	4d06      	ldr	r5, [pc, #24]	; (b3e8 <_svfiprintf_r+0xad8>)
    b3ce:	468c      	mov	ip, r1
    b3d0:	e666      	b.n	b0a0 <_svfiprintf_r+0x790>
    b3d2:	f8cd 800c 	str.w	r8, [sp, #12]
    b3d6:	9007      	str	r0, [sp, #28]
    b3d8:	f7ff bba4 	b.w	ab24 <_svfiprintf_r+0x214>
    b3dc:	3801      	subs	r0, #1
    b3de:	230c      	movs	r3, #12
    b3e0:	9005      	str	r0, [sp, #20]
    b3e2:	f8cb 3000 	str.w	r3, [fp]
    b3e6:	e628      	b.n	b03a <_svfiprintf_r+0x72a>
    b3e8:	0000d290 	.word	0x0000d290

0000b3ec <_calloc_r>:
    b3ec:	b538      	push	{r3, r4, r5, lr}
    b3ee:	fb01 f102 	mul.w	r1, r1, r2
    b3f2:	f7fe f929 	bl	9648 <_malloc_r>
    b3f6:	4604      	mov	r4, r0
    b3f8:	b1f8      	cbz	r0, b43a <_calloc_r+0x4e>
    b3fa:	f850 2c04 	ldr.w	r2, [r0, #-4]
    b3fe:	f022 0203 	bic.w	r2, r2, #3
    b402:	3a04      	subs	r2, #4
    b404:	2a24      	cmp	r2, #36	; 0x24
    b406:	d81a      	bhi.n	b43e <_calloc_r+0x52>
    b408:	2a13      	cmp	r2, #19
    b40a:	4603      	mov	r3, r0
    b40c:	d90f      	bls.n	b42e <_calloc_r+0x42>
    b40e:	2100      	movs	r1, #0
    b410:	f840 1b04 	str.w	r1, [r0], #4
    b414:	1d03      	adds	r3, r0, #4
    b416:	2a1b      	cmp	r2, #27
    b418:	6061      	str	r1, [r4, #4]
    b41a:	d908      	bls.n	b42e <_calloc_r+0x42>
    b41c:	1d1d      	adds	r5, r3, #4
    b41e:	6041      	str	r1, [r0, #4]
    b420:	6059      	str	r1, [r3, #4]
    b422:	3308      	adds	r3, #8
    b424:	2a24      	cmp	r2, #36	; 0x24
    b426:	bf02      	ittt	eq
    b428:	6069      	streq	r1, [r5, #4]
    b42a:	6059      	streq	r1, [r3, #4]
    b42c:	3308      	addeq	r3, #8
    b42e:	461a      	mov	r2, r3
    b430:	2100      	movs	r1, #0
    b432:	f842 1b04 	str.w	r1, [r2], #4
    b436:	6059      	str	r1, [r3, #4]
    b438:	6051      	str	r1, [r2, #4]
    b43a:	4620      	mov	r0, r4
    b43c:	bd38      	pop	{r3, r4, r5, pc}
    b43e:	2100      	movs	r1, #0
    b440:	f7fb fc64 	bl	6d0c <memset>
    b444:	4620      	mov	r0, r4
    b446:	bd38      	pop	{r3, r4, r5, pc}

0000b448 <_malloc_trim_r>:
    b448:	b5f8      	push	{r3, r4, r5, r6, r7, lr}
    b44a:	f240 14fc 	movw	r4, #508	; 0x1fc
    b44e:	f2c2 0400 	movt	r4, #8192	; 0x2000
    b452:	460f      	mov	r7, r1
    b454:	4605      	mov	r5, r0
    b456:	f7fe fbf9 	bl	9c4c <__malloc_lock>
    b45a:	68a3      	ldr	r3, [r4, #8]
    b45c:	685e      	ldr	r6, [r3, #4]
    b45e:	f026 0603 	bic.w	r6, r6, #3
    b462:	f506 637e 	add.w	r3, r6, #4064	; 0xfe0
    b466:	330f      	adds	r3, #15
    b468:	1bdf      	subs	r7, r3, r7
    b46a:	0b3f      	lsrs	r7, r7, #12
    b46c:	3f01      	subs	r7, #1
    b46e:	033f      	lsls	r7, r7, #12
    b470:	f5b7 5f80 	cmp.w	r7, #4096	; 0x1000
    b474:	db07      	blt.n	b486 <_malloc_trim_r+0x3e>
    b476:	2100      	movs	r1, #0
    b478:	4628      	mov	r0, r5
    b47a:	f7ff f8c3 	bl	a604 <_sbrk_r>
    b47e:	68a3      	ldr	r3, [r4, #8]
    b480:	199b      	adds	r3, r3, r6
    b482:	4298      	cmp	r0, r3
    b484:	d004      	beq.n	b490 <_malloc_trim_r+0x48>
    b486:	4628      	mov	r0, r5
    b488:	f7fe fbe2 	bl	9c50 <__malloc_unlock>
    b48c:	2000      	movs	r0, #0
    b48e:	bdf8      	pop	{r3, r4, r5, r6, r7, pc}
    b490:	4279      	negs	r1, r7
    b492:	4628      	mov	r0, r5
    b494:	f7ff f8b6 	bl	a604 <_sbrk_r>
    b498:	f1b0 3fff 	cmp.w	r0, #4294967295
    b49c:	d010      	beq.n	b4c0 <_malloc_trim_r+0x78>
    b49e:	f641 33cc 	movw	r3, #7116	; 0x1bcc
    b4a2:	68a1      	ldr	r1, [r4, #8]
    b4a4:	f2c2 0300 	movt	r3, #8192	; 0x2000
    b4a8:	1bf6      	subs	r6, r6, r7
    b4aa:	4628      	mov	r0, r5
    b4ac:	f046 0601 	orr.w	r6, r6, #1
    b4b0:	681a      	ldr	r2, [r3, #0]
    b4b2:	604e      	str	r6, [r1, #4]
    b4b4:	1bd7      	subs	r7, r2, r7
    b4b6:	601f      	str	r7, [r3, #0]
    b4b8:	f7fe fbca 	bl	9c50 <__malloc_unlock>
    b4bc:	2001      	movs	r0, #1
    b4be:	bdf8      	pop	{r3, r4, r5, r6, r7, pc}
    b4c0:	2100      	movs	r1, #0
    b4c2:	4628      	mov	r0, r5
    b4c4:	f7ff f89e 	bl	a604 <_sbrk_r>
    b4c8:	68a3      	ldr	r3, [r4, #8]
    b4ca:	1ac2      	subs	r2, r0, r3
    b4cc:	2a0f      	cmp	r2, #15
    b4ce:	ddda      	ble.n	b486 <_malloc_trim_r+0x3e>
    b4d0:	f240 6404 	movw	r4, #1540	; 0x604
    b4d4:	f641 31cc 	movw	r1, #7116	; 0x1bcc
    b4d8:	f2c2 0400 	movt	r4, #8192	; 0x2000
    b4dc:	f2c2 0100 	movt	r1, #8192	; 0x2000
    b4e0:	f042 0201 	orr.w	r2, r2, #1
    b4e4:	605a      	str	r2, [r3, #4]
    b4e6:	6823      	ldr	r3, [r4, #0]
    b4e8:	1ac0      	subs	r0, r0, r3
    b4ea:	6008      	str	r0, [r1, #0]
    b4ec:	e7cb      	b.n	b486 <_malloc_trim_r+0x3e>
    b4ee:	bf00      	nop

0000b4f0 <_free_r>:
    b4f0:	e92d 41f0 	stmdb	sp!, {r4, r5, r6, r7, r8, lr}
    b4f4:	460d      	mov	r5, r1
    b4f6:	4604      	mov	r4, r0
    b4f8:	2900      	cmp	r1, #0
    b4fa:	d058      	beq.n	b5ae <_free_r+0xbe>
    b4fc:	f7fe fba6 	bl	9c4c <__malloc_lock>
    b500:	f1a5 0208 	sub.w	r2, r5, #8
    b504:	f240 10fc 	movw	r0, #508	; 0x1fc
    b508:	6856      	ldr	r6, [r2, #4]
    b50a:	f2c2 0000 	movt	r0, #8192	; 0x2000
    b50e:	f026 0301 	bic.w	r3, r6, #1
    b512:	f8d0 c008 	ldr.w	ip, [r0, #8]
    b516:	18d1      	adds	r1, r2, r3
    b518:	458c      	cmp	ip, r1
    b51a:	684f      	ldr	r7, [r1, #4]
    b51c:	f027 0703 	bic.w	r7, r7, #3
    b520:	d065      	beq.n	b5ee <_free_r+0xfe>
    b522:	f016 0601 	ands.w	r6, r6, #1
    b526:	604f      	str	r7, [r1, #4]
    b528:	d031      	beq.n	b58e <_free_r+0x9e>
    b52a:	2600      	movs	r6, #0
    b52c:	19cd      	adds	r5, r1, r7
    b52e:	686d      	ldr	r5, [r5, #4]
    b530:	f015 0f01 	tst.w	r5, #1
    b534:	d106      	bne.n	b544 <_free_r+0x54>
    b536:	19db      	adds	r3, r3, r7
    b538:	2e00      	cmp	r6, #0
    b53a:	d04b      	beq.n	b5d4 <_free_r+0xe4>
    b53c:	688d      	ldr	r5, [r1, #8]
    b53e:	68c9      	ldr	r1, [r1, #12]
    b540:	60e9      	str	r1, [r5, #12]
    b542:	608d      	str	r5, [r1, #8]
    b544:	f043 0101 	orr.w	r1, r3, #1
    b548:	50d3      	str	r3, [r2, r3]
    b54a:	6051      	str	r1, [r2, #4]
    b54c:	b9d6      	cbnz	r6, b584 <_free_r+0x94>
    b54e:	f5b3 7f00 	cmp.w	r3, #512	; 0x200
    b552:	d32e      	bcc.n	b5b2 <_free_r+0xc2>
    b554:	0a59      	lsrs	r1, r3, #9
    b556:	2904      	cmp	r1, #4
    b558:	d86b      	bhi.n	b632 <_free_r+0x142>
    b55a:	099e      	lsrs	r6, r3, #6
    b55c:	3638      	adds	r6, #56	; 0x38
    b55e:	00f5      	lsls	r5, r6, #3
    b560:	1945      	adds	r5, r0, r5
    b562:	68a9      	ldr	r1, [r5, #8]
    b564:	42a9      	cmp	r1, r5
    b566:	d103      	bne.n	b570 <_free_r+0x80>
    b568:	e069      	b.n	b63e <_free_r+0x14e>
    b56a:	6889      	ldr	r1, [r1, #8]
    b56c:	428d      	cmp	r5, r1
    b56e:	d004      	beq.n	b57a <_free_r+0x8a>
    b570:	6848      	ldr	r0, [r1, #4]
    b572:	f020 0003 	bic.w	r0, r0, #3
    b576:	4283      	cmp	r3, r0
    b578:	d3f7      	bcc.n	b56a <_free_r+0x7a>
    b57a:	68cb      	ldr	r3, [r1, #12]
    b57c:	60d3      	str	r3, [r2, #12]
    b57e:	6091      	str	r1, [r2, #8]
    b580:	60ca      	str	r2, [r1, #12]
    b582:	609a      	str	r2, [r3, #8]
    b584:	4620      	mov	r0, r4
    b586:	e8bd 41f0 	ldmia.w	sp!, {r4, r5, r6, r7, r8, lr}
    b58a:	f7fe bb61 	b.w	9c50 <__malloc_unlock>
    b58e:	f855 5c08 	ldr.w	r5, [r5, #-8]
    b592:	f100 0c08 	add.w	ip, r0, #8
    b596:	1b52      	subs	r2, r2, r5
    b598:	195b      	adds	r3, r3, r5
    b59a:	6895      	ldr	r5, [r2, #8]
    b59c:	4565      	cmp	r5, ip
    b59e:	d046      	beq.n	b62e <_free_r+0x13e>
    b5a0:	f8d2 c00c 	ldr.w	ip, [r2, #12]
    b5a4:	f8c5 c00c 	str.w	ip, [r5, #12]
    b5a8:	f8cc 5008 	str.w	r5, [ip, #8]
    b5ac:	e7be      	b.n	b52c <_free_r+0x3c>
    b5ae:	e8bd 81f0 	ldmia.w	sp!, {r4, r5, r6, r7, r8, pc}
    b5b2:	08db      	lsrs	r3, r3, #3
    b5b4:	2501      	movs	r5, #1
    b5b6:	6846      	ldr	r6, [r0, #4]
    b5b8:	eb00 01c3 	add.w	r1, r0, r3, lsl #3
    b5bc:	109b      	asrs	r3, r3, #2
    b5be:	fa15 f303 	lsls.w	r3, r5, r3
    b5c2:	60d1      	str	r1, [r2, #12]
    b5c4:	688d      	ldr	r5, [r1, #8]
    b5c6:	ea46 0303 	orr.w	r3, r6, r3
    b5ca:	6043      	str	r3, [r0, #4]
    b5cc:	6095      	str	r5, [r2, #8]
    b5ce:	60ea      	str	r2, [r5, #12]
    b5d0:	608a      	str	r2, [r1, #8]
    b5d2:	e7d7      	b.n	b584 <_free_r+0x94>
    b5d4:	688d      	ldr	r5, [r1, #8]
    b5d6:	4f2b      	ldr	r7, [pc, #172]	; (b684 <_free_r+0x194>)
    b5d8:	42bd      	cmp	r5, r7
    b5da:	d1b0      	bne.n	b53e <_free_r+0x4e>
    b5dc:	60ea      	str	r2, [r5, #12]
    b5de:	f043 0101 	orr.w	r1, r3, #1
    b5e2:	60aa      	str	r2, [r5, #8]
    b5e4:	60d5      	str	r5, [r2, #12]
    b5e6:	6095      	str	r5, [r2, #8]
    b5e8:	6051      	str	r1, [r2, #4]
    b5ea:	50d3      	str	r3, [r2, r3]
    b5ec:	e7ca      	b.n	b584 <_free_r+0x94>
    b5ee:	f016 0f01 	tst.w	r6, #1
    b5f2:	443b      	add	r3, r7
    b5f4:	d107      	bne.n	b606 <_free_r+0x116>
    b5f6:	f855 1c08 	ldr.w	r1, [r5, #-8]
    b5fa:	1a52      	subs	r2, r2, r1
    b5fc:	185b      	adds	r3, r3, r1
    b5fe:	6895      	ldr	r5, [r2, #8]
    b600:	68d1      	ldr	r1, [r2, #12]
    b602:	60e9      	str	r1, [r5, #12]
    b604:	608d      	str	r5, [r1, #8]
    b606:	f240 6108 	movw	r1, #1544	; 0x608
    b60a:	f043 0501 	orr.w	r5, r3, #1
    b60e:	f2c2 0100 	movt	r1, #8192	; 0x2000
    b612:	6055      	str	r5, [r2, #4]
    b614:	6082      	str	r2, [r0, #8]
    b616:	680a      	ldr	r2, [r1, #0]
    b618:	4293      	cmp	r3, r2
    b61a:	d3b3      	bcc.n	b584 <_free_r+0x94>
    b61c:	f641 33c8 	movw	r3, #7112	; 0x1bc8
    b620:	4620      	mov	r0, r4
    b622:	f2c2 0300 	movt	r3, #8192	; 0x2000
    b626:	6819      	ldr	r1, [r3, #0]
    b628:	f7ff ff0e 	bl	b448 <_malloc_trim_r>
    b62c:	e7aa      	b.n	b584 <_free_r+0x94>
    b62e:	2601      	movs	r6, #1
    b630:	e77c      	b.n	b52c <_free_r+0x3c>
    b632:	2914      	cmp	r1, #20
    b634:	d80c      	bhi.n	b650 <_free_r+0x160>
    b636:	f101 065b 	add.w	r6, r1, #91	; 0x5b
    b63a:	00f5      	lsls	r5, r6, #3
    b63c:	e790      	b.n	b560 <_free_r+0x70>
    b63e:	2501      	movs	r5, #1
    b640:	6847      	ldr	r7, [r0, #4]
    b642:	10b6      	asrs	r6, r6, #2
    b644:	460b      	mov	r3, r1
    b646:	40b5      	lsls	r5, r6
    b648:	ea47 0505 	orr.w	r5, r7, r5
    b64c:	6045      	str	r5, [r0, #4]
    b64e:	e795      	b.n	b57c <_free_r+0x8c>
    b650:	2954      	cmp	r1, #84	; 0x54
    b652:	d803      	bhi.n	b65c <_free_r+0x16c>
    b654:	0b1e      	lsrs	r6, r3, #12
    b656:	366e      	adds	r6, #110	; 0x6e
    b658:	00f5      	lsls	r5, r6, #3
    b65a:	e781      	b.n	b560 <_free_r+0x70>
    b65c:	f5b1 7faa 	cmp.w	r1, #340	; 0x154
    b660:	d803      	bhi.n	b66a <_free_r+0x17a>
    b662:	0bde      	lsrs	r6, r3, #15
    b664:	3677      	adds	r6, #119	; 0x77
    b666:	00f5      	lsls	r5, r6, #3
    b668:	e77a      	b.n	b560 <_free_r+0x70>
    b66a:	f240 5554 	movw	r5, #1364	; 0x554
    b66e:	42a9      	cmp	r1, r5
    b670:	d803      	bhi.n	b67a <_free_r+0x18a>
    b672:	0c9e      	lsrs	r6, r3, #18
    b674:	367c      	adds	r6, #124	; 0x7c
    b676:	00f5      	lsls	r5, r6, #3
    b678:	e772      	b.n	b560 <_free_r+0x70>
    b67a:	f44f 757c 	mov.w	r5, #1008	; 0x3f0
    b67e:	267e      	movs	r6, #126	; 0x7e
    b680:	e76e      	b.n	b560 <_free_r+0x70>
    b682:	bf00      	nop
    b684:	20000204 	.word	0x20000204

0000b688 <memmove>:
    b688:	4288      	cmp	r0, r1
    b68a:	b4f0      	push	{r4, r5, r6, r7}
    b68c:	4605      	mov	r5, r0
    b68e:	460e      	mov	r6, r1
    b690:	d90d      	bls.n	b6ae <memmove+0x26>
    b692:	188b      	adds	r3, r1, r2
    b694:	4298      	cmp	r0, r3
    b696:	d20a      	bcs.n	b6ae <memmove+0x26>
    b698:	b13a      	cbz	r2, b6aa <memmove+0x22>
    b69a:	4619      	mov	r1, r3
    b69c:	1883      	adds	r3, r0, r2
    b69e:	f811 4d01 	ldrb.w	r4, [r1, #-1]!
    b6a2:	3a01      	subs	r2, #1
    b6a4:	f803 4d01 	strb.w	r4, [r3, #-1]!
    b6a8:	d1f9      	bne.n	b69e <memmove+0x16>
    b6aa:	bcf0      	pop	{r4, r5, r6, r7}
    b6ac:	4770      	bx	lr
    b6ae:	2a0f      	cmp	r2, #15
    b6b0:	d931      	bls.n	b716 <memmove+0x8e>
    b6b2:	ea41 0300 	orr.w	r3, r1, r0
    b6b6:	f013 0f03 	tst.w	r3, #3
    b6ba:	d12e      	bne.n	b71a <memmove+0x92>
    b6bc:	460c      	mov	r4, r1
    b6be:	4603      	mov	r3, r0
    b6c0:	4615      	mov	r5, r2
    b6c2:	6826      	ldr	r6, [r4, #0]
    b6c4:	3d10      	subs	r5, #16
    b6c6:	601e      	str	r6, [r3, #0]
    b6c8:	6866      	ldr	r6, [r4, #4]
    b6ca:	605e      	str	r6, [r3, #4]
    b6cc:	68a6      	ldr	r6, [r4, #8]
    b6ce:	609e      	str	r6, [r3, #8]
    b6d0:	68e6      	ldr	r6, [r4, #12]
    b6d2:	3410      	adds	r4, #16
    b6d4:	60de      	str	r6, [r3, #12]
    b6d6:	3310      	adds	r3, #16
    b6d8:	2d0f      	cmp	r5, #15
    b6da:	d8f2      	bhi.n	b6c2 <memmove+0x3a>
    b6dc:	3a10      	subs	r2, #16
    b6de:	f022 060f 	bic.w	r6, r2, #15
    b6e2:	f002 020f 	and.w	r2, r2, #15
    b6e6:	3610      	adds	r6, #16
    b6e8:	2a03      	cmp	r2, #3
    b6ea:	eb00 0506 	add.w	r5, r0, r6
    b6ee:	440e      	add	r6, r1
    b6f0:	d911      	bls.n	b716 <memmove+0x8e>
    b6f2:	4637      	mov	r7, r6
    b6f4:	462c      	mov	r4, r5
    b6f6:	4613      	mov	r3, r2
    b6f8:	f857 1b04 	ldr.w	r1, [r7], #4
    b6fc:	3b04      	subs	r3, #4
    b6fe:	2b03      	cmp	r3, #3
    b700:	f844 1b04 	str.w	r1, [r4], #4
    b704:	d8f8      	bhi.n	b6f8 <memmove+0x70>
    b706:	3a04      	subs	r2, #4
    b708:	f022 0303 	bic.w	r3, r2, #3
    b70c:	f002 0203 	and.w	r2, r2, #3
    b710:	3304      	adds	r3, #4
    b712:	18ed      	adds	r5, r5, r3
    b714:	18f6      	adds	r6, r6, r3
    b716:	2a00      	cmp	r2, #0
    b718:	d0c7      	beq.n	b6aa <memmove+0x22>
    b71a:	2300      	movs	r3, #0
    b71c:	5cf4      	ldrb	r4, [r6, r3]
    b71e:	54ec      	strb	r4, [r5, r3]
    b720:	3301      	adds	r3, #1
    b722:	4293      	cmp	r3, r2
    b724:	d1fa      	bne.n	b71c <memmove+0x94>
    b726:	e7c0      	b.n	b6aa <memmove+0x22>

0000b728 <_realloc_r>:
    b728:	e92d 4ff0 	stmdb	sp!, {r4, r5, r6, r7, r8, r9, sl, fp, lr}
    b72c:	460d      	mov	r5, r1
    b72e:	b083      	sub	sp, #12
    b730:	4607      	mov	r7, r0
    b732:	4690      	mov	r8, r2
    b734:	2900      	cmp	r1, #0
    b736:	f000 8155 	beq.w	b9e4 <_realloc_r+0x2bc>
    b73a:	f108 040b 	add.w	r4, r8, #11
    b73e:	f1a1 0a08 	sub.w	sl, r1, #8
    b742:	f7fe fa83 	bl	9c4c <__malloc_lock>
    b746:	2c16      	cmp	r4, #22
    b748:	f8da 3004 	ldr.w	r3, [sl, #4]
    b74c:	f200 8097 	bhi.w	b87e <_realloc_r+0x156>
    b750:	2210      	movs	r2, #16
    b752:	2000      	movs	r0, #0
    b754:	4614      	mov	r4, r2
    b756:	4544      	cmp	r4, r8
    b758:	bf38      	it	cc
    b75a:	f040 0001 	orrcc.w	r0, r0, #1
    b75e:	2800      	cmp	r0, #0
    b760:	f040 8146 	bne.w	b9f0 <_realloc_r+0x2c8>
    b764:	f023 0b03 	bic.w	fp, r3, #3
    b768:	4593      	cmp	fp, r2
    b76a:	bfa4      	itt	ge
    b76c:	f10a 0808 	addge.w	r8, sl, #8
    b770:	465e      	movge	r6, fp
    b772:	da6e      	bge.n	b852 <_realloc_r+0x12a>
    b774:	f240 19fc 	movw	r9, #508	; 0x1fc
    b778:	eb0a 010b 	add.w	r1, sl, fp
    b77c:	f2c2 0900 	movt	r9, #8192	; 0x2000
    b780:	f8d9 e008 	ldr.w	lr, [r9, #8]
    b784:	458e      	cmp	lr, r1
    b786:	f000 8138 	beq.w	b9fa <_realloc_r+0x2d2>
    b78a:	684e      	ldr	r6, [r1, #4]
    b78c:	f026 0c01 	bic.w	ip, r6, #1
    b790:	448c      	add	ip, r1
    b792:	f8dc c004 	ldr.w	ip, [ip, #4]
    b796:	f01c 0f01 	tst.w	ip, #1
    b79a:	bf18      	it	ne
    b79c:	4601      	movne	r1, r0
    b79e:	d073      	beq.n	b888 <_realloc_r+0x160>
    b7a0:	f013 0f01 	tst.w	r3, #1
    b7a4:	f040 8092 	bne.w	b8cc <_realloc_r+0x1a4>
    b7a8:	f855 3c08 	ldr.w	r3, [r5, #-8]
    b7ac:	ebc3 0c0a 	rsb	ip, r3, sl
    b7b0:	f8dc 3004 	ldr.w	r3, [ip, #4]
    b7b4:	f023 0303 	bic.w	r3, r3, #3
    b7b8:	2900      	cmp	r1, #0
    b7ba:	f000 80d1 	beq.w	b960 <_realloc_r+0x238>
    b7be:	4571      	cmp	r1, lr
    b7c0:	f000 814f 	beq.w	ba62 <_realloc_r+0x33a>
    b7c4:	445b      	add	r3, fp
    b7c6:	18c6      	adds	r6, r0, r3
    b7c8:	42b2      	cmp	r2, r6
    b7ca:	f300 80ca 	bgt.w	b962 <_realloc_r+0x23a>
    b7ce:	68cb      	ldr	r3, [r1, #12]
    b7d0:	46e0      	mov	r8, ip
    b7d2:	6889      	ldr	r1, [r1, #8]
    b7d4:	f1ab 0204 	sub.w	r2, fp, #4
    b7d8:	2a24      	cmp	r2, #36	; 0x24
    b7da:	60cb      	str	r3, [r1, #12]
    b7dc:	6099      	str	r1, [r3, #8]
    b7de:	f8dc 300c 	ldr.w	r3, [ip, #12]
    b7e2:	f858 1f08 	ldr.w	r1, [r8, #8]!
    b7e6:	60cb      	str	r3, [r1, #12]
    b7e8:	6099      	str	r1, [r3, #8]
    b7ea:	f200 8196 	bhi.w	bb1a <_realloc_r+0x3f2>
    b7ee:	2a13      	cmp	r2, #19
    b7f0:	4641      	mov	r1, r8
    b7f2:	d921      	bls.n	b838 <_realloc_r+0x110>
    b7f4:	462b      	mov	r3, r5
    b7f6:	f10c 0110 	add.w	r1, ip, #16
    b7fa:	f853 0b04 	ldr.w	r0, [r3], #4
    b7fe:	f8cc 0008 	str.w	r0, [ip, #8]
    b802:	6868      	ldr	r0, [r5, #4]
    b804:	1d1d      	adds	r5, r3, #4
    b806:	2a1b      	cmp	r2, #27
    b808:	f8cc 000c 	str.w	r0, [ip, #12]
    b80c:	d914      	bls.n	b838 <_realloc_r+0x110>
    b80e:	6858      	ldr	r0, [r3, #4]
    b810:	1d2b      	adds	r3, r5, #4
    b812:	f10c 0118 	add.w	r1, ip, #24
    b816:	f8cc 0010 	str.w	r0, [ip, #16]
    b81a:	6868      	ldr	r0, [r5, #4]
    b81c:	3508      	adds	r5, #8
    b81e:	2a24      	cmp	r2, #36	; 0x24
    b820:	f8cc 0014 	str.w	r0, [ip, #20]
    b824:	d108      	bne.n	b838 <_realloc_r+0x110>
    b826:	685b      	ldr	r3, [r3, #4]
    b828:	f10c 0120 	add.w	r1, ip, #32
    b82c:	f8cc 3018 	str.w	r3, [ip, #24]
    b830:	686b      	ldr	r3, [r5, #4]
    b832:	3508      	adds	r5, #8
    b834:	f8cc 301c 	str.w	r3, [ip, #28]
    b838:	462a      	mov	r2, r5
    b83a:	460b      	mov	r3, r1
    b83c:	46e2      	mov	sl, ip
    b83e:	f852 0b04 	ldr.w	r0, [r2], #4
    b842:	f843 0b04 	str.w	r0, [r3], #4
    b846:	6868      	ldr	r0, [r5, #4]
    b848:	6048      	str	r0, [r1, #4]
    b84a:	6852      	ldr	r2, [r2, #4]
    b84c:	605a      	str	r2, [r3, #4]
    b84e:	f8dc 3004 	ldr.w	r3, [ip, #4]
    b852:	1b30      	subs	r0, r6, r4
    b854:	280f      	cmp	r0, #15
    b856:	d824      	bhi.n	b8a2 <_realloc_r+0x17a>
    b858:	eb0a 0206 	add.w	r2, sl, r6
    b85c:	f003 0301 	and.w	r3, r3, #1
    b860:	ea43 0606 	orr.w	r6, r3, r6
    b864:	f8ca 6004 	str.w	r6, [sl, #4]
    b868:	6853      	ldr	r3, [r2, #4]
    b86a:	f043 0301 	orr.w	r3, r3, #1
    b86e:	6053      	str	r3, [r2, #4]
    b870:	4638      	mov	r0, r7
    b872:	f7fe f9ed 	bl	9c50 <__malloc_unlock>
    b876:	4640      	mov	r0, r8
    b878:	b003      	add	sp, #12
    b87a:	e8bd 8ff0 	ldmia.w	sp!, {r4, r5, r6, r7, r8, r9, sl, fp, pc}
    b87e:	f024 0407 	bic.w	r4, r4, #7
    b882:	4622      	mov	r2, r4
    b884:	0fe0      	lsrs	r0, r4, #31
    b886:	e766      	b.n	b756 <_realloc_r+0x2e>
    b888:	f026 0003 	bic.w	r0, r6, #3
    b88c:	eb00 060b 	add.w	r6, r0, fp
    b890:	42b2      	cmp	r2, r6
    b892:	dc85      	bgt.n	b7a0 <_realloc_r+0x78>
    b894:	68ca      	ldr	r2, [r1, #12]
    b896:	f10a 0808 	add.w	r8, sl, #8
    b89a:	6889      	ldr	r1, [r1, #8]
    b89c:	60ca      	str	r2, [r1, #12]
    b89e:	6091      	str	r1, [r2, #8]
    b8a0:	e7d7      	b.n	b852 <_realloc_r+0x12a>
    b8a2:	eb0a 0104 	add.w	r1, sl, r4
    b8a6:	f003 0301 	and.w	r3, r3, #1
    b8aa:	180a      	adds	r2, r1, r0
    b8ac:	ea43 0404 	orr.w	r4, r3, r4
    b8b0:	f040 0001 	orr.w	r0, r0, #1
    b8b4:	f8ca 4004 	str.w	r4, [sl, #4]
    b8b8:	6048      	str	r0, [r1, #4]
    b8ba:	4638      	mov	r0, r7
    b8bc:	6853      	ldr	r3, [r2, #4]
    b8be:	3108      	adds	r1, #8
    b8c0:	f043 0301 	orr.w	r3, r3, #1
    b8c4:	6053      	str	r3, [r2, #4]
    b8c6:	f7ff fe13 	bl	b4f0 <_free_r>
    b8ca:	e7d1      	b.n	b870 <_realloc_r+0x148>
    b8cc:	4641      	mov	r1, r8
    b8ce:	4638      	mov	r0, r7
    b8d0:	f7fd feba 	bl	9648 <_malloc_r>
    b8d4:	4680      	mov	r8, r0
    b8d6:	2800      	cmp	r0, #0
    b8d8:	d0ca      	beq.n	b870 <_realloc_r+0x148>
    b8da:	f8da 3004 	ldr.w	r3, [sl, #4]
    b8de:	f1a0 0208 	sub.w	r2, r0, #8
    b8e2:	f023 0101 	bic.w	r1, r3, #1
    b8e6:	4451      	add	r1, sl
    b8e8:	428a      	cmp	r2, r1
    b8ea:	f000 810e 	beq.w	bb0a <_realloc_r+0x3e2>
    b8ee:	f1ab 0204 	sub.w	r2, fp, #4
    b8f2:	2a24      	cmp	r2, #36	; 0x24
    b8f4:	f200 80b1 	bhi.w	ba5a <_realloc_r+0x332>
    b8f8:	2a13      	cmp	r2, #19
    b8fa:	4629      	mov	r1, r5
    b8fc:	4603      	mov	r3, r0
    b8fe:	d91d      	bls.n	b93c <_realloc_r+0x214>
    b900:	462c      	mov	r4, r5
    b902:	f854 3b04 	ldr.w	r3, [r4], #4
    b906:	1d21      	adds	r1, r4, #4
    b908:	f840 3b04 	str.w	r3, [r0], #4
    b90c:	1d03      	adds	r3, r0, #4
    b90e:	686e      	ldr	r6, [r5, #4]
    b910:	2a1b      	cmp	r2, #27
    b912:	f8c8 6004 	str.w	r6, [r8, #4]
    b916:	d911      	bls.n	b93c <_realloc_r+0x214>
    b918:	f8d4 e004 	ldr.w	lr, [r4, #4]
    b91c:	1d0e      	adds	r6, r1, #4
    b91e:	1d1c      	adds	r4, r3, #4
    b920:	f8c0 e004 	str.w	lr, [r0, #4]
    b924:	6848      	ldr	r0, [r1, #4]
    b926:	3108      	adds	r1, #8
    b928:	6058      	str	r0, [r3, #4]
    b92a:	3308      	adds	r3, #8
    b92c:	2a24      	cmp	r2, #36	; 0x24
    b92e:	d105      	bne.n	b93c <_realloc_r+0x214>
    b930:	6872      	ldr	r2, [r6, #4]
    b932:	6062      	str	r2, [r4, #4]
    b934:	684a      	ldr	r2, [r1, #4]
    b936:	3108      	adds	r1, #8
    b938:	605a      	str	r2, [r3, #4]
    b93a:	3308      	adds	r3, #8
    b93c:	4608      	mov	r0, r1
    b93e:	461a      	mov	r2, r3
    b940:	f850 4b04 	ldr.w	r4, [r0], #4
    b944:	f842 4b04 	str.w	r4, [r2], #4
    b948:	6849      	ldr	r1, [r1, #4]
    b94a:	6059      	str	r1, [r3, #4]
    b94c:	6843      	ldr	r3, [r0, #4]
    b94e:	6053      	str	r3, [r2, #4]
    b950:	4638      	mov	r0, r7
    b952:	4629      	mov	r1, r5
    b954:	f7ff fdcc 	bl	b4f0 <_free_r>
    b958:	4638      	mov	r0, r7
    b95a:	f7fe f979 	bl	9c50 <__malloc_unlock>
    b95e:	e78a      	b.n	b876 <_realloc_r+0x14e>
    b960:	445b      	add	r3, fp
    b962:	429a      	cmp	r2, r3
    b964:	dcb2      	bgt.n	b8cc <_realloc_r+0x1a4>
    b966:	46e0      	mov	r8, ip
    b968:	f8dc 100c 	ldr.w	r1, [ip, #12]
    b96c:	f1ab 0204 	sub.w	r2, fp, #4
    b970:	f858 0f08 	ldr.w	r0, [r8, #8]!
    b974:	2a24      	cmp	r2, #36	; 0x24
    b976:	60c1      	str	r1, [r0, #12]
    b978:	6088      	str	r0, [r1, #8]
    b97a:	d85f      	bhi.n	ba3c <_realloc_r+0x314>
    b97c:	2a13      	cmp	r2, #19
    b97e:	4640      	mov	r0, r8
    b980:	d921      	bls.n	b9c6 <_realloc_r+0x29e>
    b982:	4629      	mov	r1, r5
    b984:	f10c 0010 	add.w	r0, ip, #16
    b988:	f851 6b04 	ldr.w	r6, [r1], #4
    b98c:	f8cc 6008 	str.w	r6, [ip, #8]
    b990:	686e      	ldr	r6, [r5, #4]
    b992:	1d0d      	adds	r5, r1, #4
    b994:	2a1b      	cmp	r2, #27
    b996:	f8cc 600c 	str.w	r6, [ip, #12]
    b99a:	d914      	bls.n	b9c6 <_realloc_r+0x29e>
    b99c:	684e      	ldr	r6, [r1, #4]
    b99e:	1d29      	adds	r1, r5, #4
    b9a0:	f10c 0018 	add.w	r0, ip, #24
    b9a4:	f8cc 6010 	str.w	r6, [ip, #16]
    b9a8:	686e      	ldr	r6, [r5, #4]
    b9aa:	3508      	adds	r5, #8
    b9ac:	2a24      	cmp	r2, #36	; 0x24
    b9ae:	f8cc 6014 	str.w	r6, [ip, #20]
    b9b2:	d108      	bne.n	b9c6 <_realloc_r+0x29e>
    b9b4:	684a      	ldr	r2, [r1, #4]
    b9b6:	f10c 0020 	add.w	r0, ip, #32
    b9ba:	f8cc 2018 	str.w	r2, [ip, #24]
    b9be:	686a      	ldr	r2, [r5, #4]
    b9c0:	3508      	adds	r5, #8
    b9c2:	f8cc 201c 	str.w	r2, [ip, #28]
    b9c6:	4629      	mov	r1, r5
    b9c8:	461e      	mov	r6, r3
    b9ca:	4602      	mov	r2, r0
    b9cc:	46e2      	mov	sl, ip
    b9ce:	f851 3b04 	ldr.w	r3, [r1], #4
    b9d2:	f842 3b04 	str.w	r3, [r2], #4
    b9d6:	686b      	ldr	r3, [r5, #4]
    b9d8:	6043      	str	r3, [r0, #4]
    b9da:	684b      	ldr	r3, [r1, #4]
    b9dc:	6053      	str	r3, [r2, #4]
    b9de:	f8dc 3004 	ldr.w	r3, [ip, #4]
    b9e2:	e736      	b.n	b852 <_realloc_r+0x12a>
    b9e4:	4611      	mov	r1, r2
    b9e6:	b003      	add	sp, #12
    b9e8:	e8bd 4ff0 	ldmia.w	sp!, {r4, r5, r6, r7, r8, r9, sl, fp, lr}
    b9ec:	f7fd be2c 	b.w	9648 <_malloc_r>
    b9f0:	230c      	movs	r3, #12
    b9f2:	f04f 0800 	mov.w	r8, #0
    b9f6:	603b      	str	r3, [r7, #0]
    b9f8:	e73d      	b.n	b876 <_realloc_r+0x14e>
    b9fa:	f8de 0004 	ldr.w	r0, [lr, #4]
    b9fe:	f104 0c10 	add.w	ip, r4, #16
    ba02:	f020 0003 	bic.w	r0, r0, #3
    ba06:	eb00 010b 	add.w	r1, r0, fp
    ba0a:	4561      	cmp	r1, ip
    ba0c:	bfb8      	it	lt
    ba0e:	4671      	movlt	r1, lr
    ba10:	f6ff aec6 	blt.w	b7a0 <_realloc_r+0x78>
    ba14:	eb0a 0304 	add.w	r3, sl, r4
    ba18:	1b0a      	subs	r2, r1, r4
    ba1a:	f042 0201 	orr.w	r2, r2, #1
    ba1e:	f8c9 3008 	str.w	r3, [r9, #8]
    ba22:	605a      	str	r2, [r3, #4]
    ba24:	4638      	mov	r0, r7
    ba26:	f8da 2004 	ldr.w	r2, [sl, #4]
    ba2a:	46a8      	mov	r8, r5
    ba2c:	f002 0301 	and.w	r3, r2, #1
    ba30:	431c      	orrs	r4, r3
    ba32:	f8ca 4004 	str.w	r4, [sl, #4]
    ba36:	f7fe f90b 	bl	9c50 <__malloc_unlock>
    ba3a:	e71c      	b.n	b876 <_realloc_r+0x14e>
    ba3c:	4640      	mov	r0, r8
    ba3e:	4629      	mov	r1, r5
    ba40:	9301      	str	r3, [sp, #4]
    ba42:	f8cd c000 	str.w	ip, [sp]
    ba46:	f7ff fe1f 	bl	b688 <memmove>
    ba4a:	f8dd c000 	ldr.w	ip, [sp]
    ba4e:	9b01      	ldr	r3, [sp, #4]
    ba50:	46e2      	mov	sl, ip
    ba52:	461e      	mov	r6, r3
    ba54:	f8dc 3004 	ldr.w	r3, [ip, #4]
    ba58:	e6fb      	b.n	b852 <_realloc_r+0x12a>
    ba5a:	4629      	mov	r1, r5
    ba5c:	f7ff fe14 	bl	b688 <memmove>
    ba60:	e776      	b.n	b950 <_realloc_r+0x228>
    ba62:	445b      	add	r3, fp
    ba64:	f104 0110 	add.w	r1, r4, #16
    ba68:	18c6      	adds	r6, r0, r3
    ba6a:	428e      	cmp	r6, r1
    ba6c:	f6ff af79 	blt.w	b962 <_realloc_r+0x23a>
    ba70:	46e0      	mov	r8, ip
    ba72:	f8dc 300c 	ldr.w	r3, [ip, #12]
    ba76:	f1ab 0204 	sub.w	r2, fp, #4
    ba7a:	f858 1f08 	ldr.w	r1, [r8, #8]!
    ba7e:	2a24      	cmp	r2, #36	; 0x24
    ba80:	60cb      	str	r3, [r1, #12]
    ba82:	6099      	str	r1, [r3, #8]
    ba84:	d855      	bhi.n	bb32 <_realloc_r+0x40a>
    ba86:	2a13      	cmp	r2, #19
    ba88:	4641      	mov	r1, r8
    ba8a:	d921      	bls.n	bad0 <_realloc_r+0x3a8>
    ba8c:	462b      	mov	r3, r5
    ba8e:	f10c 0110 	add.w	r1, ip, #16
    ba92:	f853 0b04 	ldr.w	r0, [r3], #4
    ba96:	f8cc 0008 	str.w	r0, [ip, #8]
    ba9a:	6868      	ldr	r0, [r5, #4]
    ba9c:	1d1d      	adds	r5, r3, #4
    ba9e:	2a1b      	cmp	r2, #27
    baa0:	f8cc 000c 	str.w	r0, [ip, #12]
    baa4:	d914      	bls.n	bad0 <_realloc_r+0x3a8>
    baa6:	6858      	ldr	r0, [r3, #4]
    baa8:	1d2b      	adds	r3, r5, #4
    baaa:	f10c 0118 	add.w	r1, ip, #24
    baae:	f8cc 0010 	str.w	r0, [ip, #16]
    bab2:	6868      	ldr	r0, [r5, #4]
    bab4:	3508      	adds	r5, #8
    bab6:	2a24      	cmp	r2, #36	; 0x24
    bab8:	f8cc 0014 	str.w	r0, [ip, #20]
    babc:	d108      	bne.n	bad0 <_realloc_r+0x3a8>
    babe:	685b      	ldr	r3, [r3, #4]
    bac0:	f10c 0120 	add.w	r1, ip, #32
    bac4:	f8cc 3018 	str.w	r3, [ip, #24]
    bac8:	686b      	ldr	r3, [r5, #4]
    baca:	3508      	adds	r5, #8
    bacc:	f8cc 301c 	str.w	r3, [ip, #28]
    bad0:	462a      	mov	r2, r5
    bad2:	460b      	mov	r3, r1
    bad4:	f852 0b04 	ldr.w	r0, [r2], #4
    bad8:	f843 0b04 	str.w	r0, [r3], #4
    badc:	6868      	ldr	r0, [r5, #4]
    bade:	6048      	str	r0, [r1, #4]
    bae0:	6852      	ldr	r2, [r2, #4]
    bae2:	605a      	str	r2, [r3, #4]
    bae4:	eb0c 0304 	add.w	r3, ip, r4
    bae8:	1b32      	subs	r2, r6, r4
    baea:	f042 0201 	orr.w	r2, r2, #1
    baee:	f8c9 3008 	str.w	r3, [r9, #8]
    baf2:	605a      	str	r2, [r3, #4]
    baf4:	4638      	mov	r0, r7
    baf6:	f8dc 2004 	ldr.w	r2, [ip, #4]
    bafa:	f002 0301 	and.w	r3, r2, #1
    bafe:	431c      	orrs	r4, r3
    bb00:	f8cc 4004 	str.w	r4, [ip, #4]
    bb04:	f7fe f8a4 	bl	9c50 <__malloc_unlock>
    bb08:	e6b5      	b.n	b876 <_realloc_r+0x14e>
    bb0a:	f850 6c04 	ldr.w	r6, [r0, #-4]
    bb0e:	f10a 0808 	add.w	r8, sl, #8
    bb12:	f026 0603 	bic.w	r6, r6, #3
    bb16:	445e      	add	r6, fp
    bb18:	e69b      	b.n	b852 <_realloc_r+0x12a>
    bb1a:	4640      	mov	r0, r8
    bb1c:	4629      	mov	r1, r5
    bb1e:	f8cd c000 	str.w	ip, [sp]
    bb22:	f7ff fdb1 	bl	b688 <memmove>
    bb26:	f8dd c000 	ldr.w	ip, [sp]
    bb2a:	46e2      	mov	sl, ip
    bb2c:	f8dc 3004 	ldr.w	r3, [ip, #4]
    bb30:	e68f      	b.n	b852 <_realloc_r+0x12a>
    bb32:	4640      	mov	r0, r8
    bb34:	4629      	mov	r1, r5
    bb36:	f8cd c000 	str.w	ip, [sp]
    bb3a:	f7ff fda5 	bl	b688 <memmove>
    bb3e:	f8dd c000 	ldr.w	ip, [sp]
    bb42:	e7cf      	b.n	bae4 <_realloc_r+0x3bc>
    bb44:	0000      	movs	r0, r0
	...

0000bb48 <__aeabi_uidiv>:
    bb48:	1e4a      	subs	r2, r1, #1
    bb4a:	bf08      	it	eq
    bb4c:	4770      	bxeq	lr
    bb4e:	f0c0 8124 	bcc.w	bd9a <__aeabi_uidiv+0x252>
    bb52:	4288      	cmp	r0, r1
    bb54:	f240 8116 	bls.w	bd84 <__aeabi_uidiv+0x23c>
    bb58:	4211      	tst	r1, r2
    bb5a:	f000 8117 	beq.w	bd8c <__aeabi_uidiv+0x244>
    bb5e:	fab0 f380 	clz	r3, r0
    bb62:	fab1 f281 	clz	r2, r1
    bb66:	eba2 0303 	sub.w	r3, r2, r3
    bb6a:	f1c3 031f 	rsb	r3, r3, #31
    bb6e:	a204      	add	r2, pc, #16	; (adr r2, bb80 <__aeabi_uidiv+0x38>)
    bb70:	eb02 1303 	add.w	r3, r2, r3, lsl #4
    bb74:	f04f 0200 	mov.w	r2, #0
    bb78:	469f      	mov	pc, r3
    bb7a:	bf00      	nop
    bb7c:	f3af 8000 	nop.w
    bb80:	ebb0 7fc1 	cmp.w	r0, r1, lsl #31
    bb84:	bf00      	nop
    bb86:	eb42 0202 	adc.w	r2, r2, r2
    bb8a:	bf28      	it	cs
    bb8c:	eba0 70c1 	subcs.w	r0, r0, r1, lsl #31
    bb90:	ebb0 7f81 	cmp.w	r0, r1, lsl #30
    bb94:	bf00      	nop
    bb96:	eb42 0202 	adc.w	r2, r2, r2
    bb9a:	bf28      	it	cs
    bb9c:	eba0 7081 	subcs.w	r0, r0, r1, lsl #30
    bba0:	ebb0 7f41 	cmp.w	r0, r1, lsl #29
    bba4:	bf00      	nop
    bba6:	eb42 0202 	adc.w	r2, r2, r2
    bbaa:	bf28      	it	cs
    bbac:	eba0 7041 	subcs.w	r0, r0, r1, lsl #29
    bbb0:	ebb0 7f01 	cmp.w	r0, r1, lsl #28
    bbb4:	bf00      	nop
    bbb6:	eb42 0202 	adc.w	r2, r2, r2
    bbba:	bf28      	it	cs
    bbbc:	eba0 7001 	subcs.w	r0, r0, r1, lsl #28
    bbc0:	ebb0 6fc1 	cmp.w	r0, r1, lsl #27
    bbc4:	bf00      	nop
    bbc6:	eb42 0202 	adc.w	r2, r2, r2
    bbca:	bf28      	it	cs
    bbcc:	eba0 60c1 	subcs.w	r0, r0, r1, lsl #27
    bbd0:	ebb0 6f81 	cmp.w	r0, r1, lsl #26
    bbd4:	bf00      	nop
    bbd6:	eb42 0202 	adc.w	r2, r2, r2
    bbda:	bf28      	it	cs
    bbdc:	eba0 6081 	subcs.w	r0, r0, r1, lsl #26
    bbe0:	ebb0 6f41 	cmp.w	r0, r1, lsl #25
    bbe4:	bf00      	nop
    bbe6:	eb42 0202 	adc.w	r2, r2, r2
    bbea:	bf28      	it	cs
    bbec:	eba0 6041 	subcs.w	r0, r0, r1, lsl #25
    bbf0:	ebb0 6f01 	cmp.w	r0, r1, lsl #24
    bbf4:	bf00      	nop
    bbf6:	eb42 0202 	adc.w	r2, r2, r2
    bbfa:	bf28      	it	cs
    bbfc:	eba0 6001 	subcs.w	r0, r0, r1, lsl #24
    bc00:	ebb0 5fc1 	cmp.w	r0, r1, lsl #23
    bc04:	bf00      	nop
    bc06:	eb42 0202 	adc.w	r2, r2, r2
    bc0a:	bf28      	it	cs
    bc0c:	eba0 50c1 	subcs.w	r0, r0, r1, lsl #23
    bc10:	ebb0 5f81 	cmp.w	r0, r1, lsl #22
    bc14:	bf00      	nop
    bc16:	eb42 0202 	adc.w	r2, r2, r2
    bc1a:	bf28      	it	cs
    bc1c:	eba0 5081 	subcs.w	r0, r0, r1, lsl #22
    bc20:	ebb0 5f41 	cmp.w	r0, r1, lsl #21
    bc24:	bf00      	nop
    bc26:	eb42 0202 	adc.w	r2, r2, r2
    bc2a:	bf28      	it	cs
    bc2c:	eba0 5041 	subcs.w	r0, r0, r1, lsl #21
    bc30:	ebb0 5f01 	cmp.w	r0, r1, lsl #20
    bc34:	bf00      	nop
    bc36:	eb42 0202 	adc.w	r2, r2, r2
    bc3a:	bf28      	it	cs
    bc3c:	eba0 5001 	subcs.w	r0, r0, r1, lsl #20
    bc40:	ebb0 4fc1 	cmp.w	r0, r1, lsl #19
    bc44:	bf00      	nop
    bc46:	eb42 0202 	adc.w	r2, r2, r2
    bc4a:	bf28      	it	cs
    bc4c:	eba0 40c1 	subcs.w	r0, r0, r1, lsl #19
    bc50:	ebb0 4f81 	cmp.w	r0, r1, lsl #18
    bc54:	bf00      	nop
    bc56:	eb42 0202 	adc.w	r2, r2, r2
    bc5a:	bf28      	it	cs
    bc5c:	eba0 4081 	subcs.w	r0, r0, r1, lsl #18
    bc60:	ebb0 4f41 	cmp.w	r0, r1, lsl #17
    bc64:	bf00      	nop
    bc66:	eb42 0202 	adc.w	r2, r2, r2
    bc6a:	bf28      	it	cs
    bc6c:	eba0 4041 	subcs.w	r0, r0, r1, lsl #17
    bc70:	ebb0 4f01 	cmp.w	r0, r1, lsl #16
    bc74:	bf00      	nop
    bc76:	eb42 0202 	adc.w	r2, r2, r2
    bc7a:	bf28      	it	cs
    bc7c:	eba0 4001 	subcs.w	r0, r0, r1, lsl #16
    bc80:	ebb0 3fc1 	cmp.w	r0, r1, lsl #15
    bc84:	bf00      	nop
    bc86:	eb42 0202 	adc.w	r2, r2, r2
    bc8a:	bf28      	it	cs
    bc8c:	eba0 30c1 	subcs.w	r0, r0, r1, lsl #15
    bc90:	ebb0 3f81 	cmp.w	r0, r1, lsl #14
    bc94:	bf00      	nop
    bc96:	eb42 0202 	adc.w	r2, r2, r2
    bc9a:	bf28      	it	cs
    bc9c:	eba0 3081 	subcs.w	r0, r0, r1, lsl #14
    bca0:	ebb0 3f41 	cmp.w	r0, r1, lsl #13
    bca4:	bf00      	nop
    bca6:	eb42 0202 	adc.w	r2, r2, r2
    bcaa:	bf28      	it	cs
    bcac:	eba0 3041 	subcs.w	r0, r0, r1, lsl #13
    bcb0:	ebb0 3f01 	cmp.w	r0, r1, lsl #12
    bcb4:	bf00      	nop
    bcb6:	eb42 0202 	adc.w	r2, r2, r2
    bcba:	bf28      	it	cs
    bcbc:	eba0 3001 	subcs.w	r0, r0, r1, lsl #12
    bcc0:	ebb0 2fc1 	cmp.w	r0, r1, lsl #11
    bcc4:	bf00      	nop
    bcc6:	eb42 0202 	adc.w	r2, r2, r2
    bcca:	bf28      	it	cs
    bccc:	eba0 20c1 	subcs.w	r0, r0, r1, lsl #11
    bcd0:	ebb0 2f81 	cmp.w	r0, r1, lsl #10
    bcd4:	bf00      	nop
    bcd6:	eb42 0202 	adc.w	r2, r2, r2
    bcda:	bf28      	it	cs
    bcdc:	eba0 2081 	subcs.w	r0, r0, r1, lsl #10
    bce0:	ebb0 2f41 	cmp.w	r0, r1, lsl #9
    bce4:	bf00      	nop
    bce6:	eb42 0202 	adc.w	r2, r2, r2
    bcea:	bf28      	it	cs
    bcec:	eba0 2041 	subcs.w	r0, r0, r1, lsl #9
    bcf0:	ebb0 2f01 	cmp.w	r0, r1, lsl #8
    bcf4:	bf00      	nop
    bcf6:	eb42 0202 	adc.w	r2, r2, r2
    bcfa:	bf28      	it	cs
    bcfc:	eba0 2001 	subcs.w	r0, r0, r1, lsl #8
    bd00:	ebb0 1fc1 	cmp.w	r0, r1, lsl #7
    bd04:	bf00      	nop
    bd06:	eb42 0202 	adc.w	r2, r2, r2
    bd0a:	bf28      	it	cs
    bd0c:	eba0 10c1 	subcs.w	r0, r0, r1, lsl #7
    bd10:	ebb0 1f81 	cmp.w	r0, r1, lsl #6
    bd14:	bf00      	nop
    bd16:	eb42 0202 	adc.w	r2, r2, r2
    bd1a:	bf28      	it	cs
    bd1c:	eba0 1081 	subcs.w	r0, r0, r1, lsl #6
    bd20:	ebb0 1f41 	cmp.w	r0, r1, lsl #5
    bd24:	bf00      	nop
    bd26:	eb42 0202 	adc.w	r2, r2, r2
    bd2a:	bf28      	it	cs
    bd2c:	eba0 1041 	subcs.w	r0, r0, r1, lsl #5
    bd30:	ebb0 1f01 	cmp.w	r0, r1, lsl #4
    bd34:	bf00      	nop
    bd36:	eb42 0202 	adc.w	r2, r2, r2
    bd3a:	bf28      	it	cs
    bd3c:	eba0 1001 	subcs.w	r0, r0, r1, lsl #4
    bd40:	ebb0 0fc1 	cmp.w	r0, r1, lsl #3
    bd44:	bf00      	nop
    bd46:	eb42 0202 	adc.w	r2, r2, r2
    bd4a:	bf28      	it	cs
    bd4c:	eba0 00c1 	subcs.w	r0, r0, r1, lsl #3
    bd50:	ebb0 0f81 	cmp.w	r0, r1, lsl #2
    bd54:	bf00      	nop
    bd56:	eb42 0202 	adc.w	r2, r2, r2
    bd5a:	bf28      	it	cs
    bd5c:	eba0 0081 	subcs.w	r0, r0, r1, lsl #2
    bd60:	ebb0 0f41 	cmp.w	r0, r1, lsl #1
    bd64:	bf00      	nop
    bd66:	eb42 0202 	adc.w	r2, r2, r2
    bd6a:	bf28      	it	cs
    bd6c:	eba0 0041 	subcs.w	r0, r0, r1, lsl #1
    bd70:	ebb0 0f01 	cmp.w	r0, r1
    bd74:	bf00      	nop
    bd76:	eb42 0202 	adc.w	r2, r2, r2
    bd7a:	bf28      	it	cs
    bd7c:	eba0 0001 	subcs.w	r0, r0, r1
    bd80:	4610      	mov	r0, r2
    bd82:	4770      	bx	lr
    bd84:	bf0c      	ite	eq
    bd86:	2001      	moveq	r0, #1
    bd88:	2000      	movne	r0, #0
    bd8a:	4770      	bx	lr
    bd8c:	fab1 f281 	clz	r2, r1
    bd90:	f1c2 021f 	rsb	r2, r2, #31
    bd94:	fa20 f002 	lsr.w	r0, r0, r2
    bd98:	4770      	bx	lr
    bd9a:	b108      	cbz	r0, bda0 <__aeabi_uidiv+0x258>
    bd9c:	f04f 30ff 	mov.w	r0, #4294967295
    bda0:	f000 b80e 	b.w	bdc0 <__aeabi_idiv0>

0000bda4 <__aeabi_uidivmod>:
    bda4:	2900      	cmp	r1, #0
    bda6:	d0f8      	beq.n	bd9a <__aeabi_uidiv+0x252>
    bda8:	e92d 4003 	stmdb	sp!, {r0, r1, lr}
    bdac:	f7ff fecc 	bl	bb48 <__aeabi_uidiv>
    bdb0:	e8bd 4006 	ldmia.w	sp!, {r1, r2, lr}
    bdb4:	fb02 f300 	mul.w	r3, r2, r0
    bdb8:	eba1 0103 	sub.w	r1, r1, r3
    bdbc:	4770      	bx	lr
    bdbe:	bf00      	nop

0000bdc0 <__aeabi_idiv0>:
    bdc0:	4770      	bx	lr
    bdc2:	bf00      	nop

0000bdc4 <__aeabi_d2iz>:
    bdc4:	ea4f 0241 	mov.w	r2, r1, lsl #1
    bdc8:	f512 1200 	adds.w	r2, r2, #2097152	; 0x200000
    bdcc:	d215      	bcs.n	bdfa <__aeabi_d2iz+0x36>
    bdce:	d511      	bpl.n	bdf4 <__aeabi_d2iz+0x30>
    bdd0:	f46f 7378 	mvn.w	r3, #992	; 0x3e0
    bdd4:	ebb3 5262 	subs.w	r2, r3, r2, asr #21
    bdd8:	d912      	bls.n	be00 <__aeabi_d2iz+0x3c>
    bdda:	ea4f 23c1 	mov.w	r3, r1, lsl #11
    bdde:	f043 4300 	orr.w	r3, r3, #2147483648	; 0x80000000
    bde2:	ea43 5350 	orr.w	r3, r3, r0, lsr #21
    bde6:	f011 4f00 	tst.w	r1, #2147483648	; 0x80000000
    bdea:	fa23 f002 	lsr.w	r0, r3, r2
    bdee:	bf18      	it	ne
    bdf0:	4240      	negne	r0, r0
    bdf2:	4770      	bx	lr
    bdf4:	f04f 0000 	mov.w	r0, #0
    bdf8:	4770      	bx	lr
    bdfa:	ea50 3001 	orrs.w	r0, r0, r1, lsl #12
    bdfe:	d105      	bne.n	be0c <__aeabi_d2iz+0x48>
    be00:	f011 4000 	ands.w	r0, r1, #2147483648	; 0x80000000
    be04:	bf08      	it	eq
    be06:	f06f 4000 	mvneq.w	r0, #2147483648	; 0x80000000
    be0a:	4770      	bx	lr
    be0c:	f04f 0000 	mov.w	r0, #0
    be10:	4770      	bx	lr
    be12:	bf00      	nop

0000be14 <__aeabi_uldivmod>:
    be14:	b94b      	cbnz	r3, be2a <__aeabi_uldivmod+0x16>
    be16:	b942      	cbnz	r2, be2a <__aeabi_uldivmod+0x16>
    be18:	2900      	cmp	r1, #0
    be1a:	bf08      	it	eq
    be1c:	2800      	cmpeq	r0, #0
    be1e:	d002      	beq.n	be26 <__aeabi_uldivmod+0x12>
    be20:	f04f 31ff 	mov.w	r1, #4294967295
    be24:	4608      	mov	r0, r1
    be26:	f7ff bfcb 	b.w	bdc0 <__aeabi_idiv0>
    be2a:	b082      	sub	sp, #8
    be2c:	46ec      	mov	ip, sp
    be2e:	e92d 5000 	stmdb	sp!, {ip, lr}
    be32:	f000 f81d 	bl	be70 <__gnu_uldivmod_helper>
    be36:	f8dd e004 	ldr.w	lr, [sp, #4]
    be3a:	b002      	add	sp, #8
    be3c:	bc0c      	pop	{r2, r3}
    be3e:	4770      	bx	lr

0000be40 <__gnu_ldivmod_helper>:
    be40:	e92d 4370 	stmdb	sp!, {r4, r5, r6, r8, r9, lr}
    be44:	4616      	mov	r6, r2
    be46:	4680      	mov	r8, r0
    be48:	4689      	mov	r9, r1
    be4a:	461d      	mov	r5, r3
    be4c:	f000 f828 	bl	bea0 <__divdi3>
    be50:	fb00 f305 	mul.w	r3, r0, r5
    be54:	fba0 4506 	umull	r4, r5, r0, r6
    be58:	fb06 3601 	mla	r6, r6, r1, r3
    be5c:	9b06      	ldr	r3, [sp, #24]
    be5e:	1975      	adds	r5, r6, r5
    be60:	ebb8 0404 	subs.w	r4, r8, r4
    be64:	eb69 0505 	sbc.w	r5, r9, r5
    be68:	e9c3 4500 	strd	r4, r5, [r3]
    be6c:	e8bd 8370 	ldmia.w	sp!, {r4, r5, r6, r8, r9, pc}

0000be70 <__gnu_uldivmod_helper>:
    be70:	e92d 4370 	stmdb	sp!, {r4, r5, r6, r8, r9, lr}
    be74:	4616      	mov	r6, r2
    be76:	4680      	mov	r8, r0
    be78:	4689      	mov	r9, r1
    be7a:	461d      	mov	r5, r3
    be7c:	f000 f9c2 	bl	c204 <__udivdi3>
    be80:	fb00 f305 	mul.w	r3, r0, r5
    be84:	fba0 4506 	umull	r4, r5, r0, r6
    be88:	fb06 3601 	mla	r6, r6, r1, r3
    be8c:	9b06      	ldr	r3, [sp, #24]
    be8e:	1975      	adds	r5, r6, r5
    be90:	ebb8 0404 	subs.w	r4, r8, r4
    be94:	eb69 0505 	sbc.w	r5, r9, r5
    be98:	e9c3 4500 	strd	r4, r5, [r3]
    be9c:	e8bd 8370 	ldmia.w	sp!, {r4, r5, r6, r8, r9, pc}

0000bea0 <__divdi3>:
    bea0:	2900      	cmp	r1, #0
    bea2:	e92d 4ff0 	stmdb	sp!, {r4, r5, r6, r7, r8, r9, sl, fp, lr}
    bea6:	461c      	mov	r4, r3
    bea8:	b085      	sub	sp, #20
    beaa:	f2c0 80cb 	blt.w	c044 <__divdi3+0x1a4>
    beae:	2600      	movs	r6, #0
    beb0:	2c00      	cmp	r4, #0
    beb2:	f2c0 80c2 	blt.w	c03a <__divdi3+0x19a>
    beb6:	468c      	mov	ip, r1
    beb8:	4617      	mov	r7, r2
    beba:	4614      	mov	r4, r2
    bebc:	4605      	mov	r5, r0
    bebe:	4688      	mov	r8, r1
    bec0:	469a      	mov	sl, r3
    bec2:	2b00      	cmp	r3, #0
    bec4:	d149      	bne.n	bf5a <__divdi3+0xba>
    bec6:	428a      	cmp	r2, r1
    bec8:	d96d      	bls.n	bfa6 <__divdi3+0x106>
    beca:	fab2 f382 	clz	r3, r2
    bece:	b153      	cbz	r3, bee6 <__divdi3+0x46>
    bed0:	f1c3 0020 	rsb	r0, r3, #32
    bed4:	fa01 f803 	lsl.w	r8, r1, r3
    bed8:	fa35 f200 	lsrs.w	r2, r5, r0
    bedc:	fa17 f403 	lsls.w	r4, r7, r3
    bee0:	ea42 0808 	orr.w	r8, r2, r8
    bee4:	409d      	lsls	r5, r3
    bee6:	ea4f 4a14 	mov.w	sl, r4, lsr #16
    beea:	4640      	mov	r0, r8
    beec:	4651      	mov	r1, sl
    beee:	fa1f fb84 	uxth.w	fp, r4
    bef2:	f7ff fe29 	bl	bb48 <__aeabi_uidiv>
    bef6:	4651      	mov	r1, sl
    bef8:	0c2f      	lsrs	r7, r5, #16
    befa:	4681      	mov	r9, r0
    befc:	4640      	mov	r0, r8
    befe:	f7ff ff51 	bl	bda4 <__aeabi_uidivmod>
    bf02:	fb0b f309 	mul.w	r3, fp, r9
    bf06:	ea47 4801 	orr.w	r8, r7, r1, lsl #16
    bf0a:	4543      	cmp	r3, r8
    bf0c:	d909      	bls.n	bf22 <__divdi3+0x82>
    bf0e:	eb18 0804 	adds.w	r8, r8, r4
    bf12:	f109 39ff 	add.w	r9, r9, #4294967295
    bf16:	d204      	bcs.n	bf22 <__divdi3+0x82>
    bf18:	4543      	cmp	r3, r8
    bf1a:	bf84      	itt	hi
    bf1c:	f109 39ff 	addhi.w	r9, r9, #4294967295
    bf20:	44a0      	addhi	r8, r4
    bf22:	ebc3 0808 	rsb	r8, r3, r8
    bf26:	4651      	mov	r1, sl
    bf28:	4640      	mov	r0, r8
    bf2a:	b2ad      	uxth	r5, r5
    bf2c:	f7ff fe0c 	bl	bb48 <__aeabi_uidiv>
    bf30:	4651      	mov	r1, sl
    bf32:	4607      	mov	r7, r0
    bf34:	4640      	mov	r0, r8
    bf36:	f7ff ff35 	bl	bda4 <__aeabi_uidivmod>
    bf3a:	fb0b fb07 	mul.w	fp, fp, r7
    bf3e:	ea45 4501 	orr.w	r5, r5, r1, lsl #16
    bf42:	45ab      	cmp	fp, r5
    bf44:	d905      	bls.n	bf52 <__divdi3+0xb2>
    bf46:	3f01      	subs	r7, #1
    bf48:	192d      	adds	r5, r5, r4
    bf4a:	d202      	bcs.n	bf52 <__divdi3+0xb2>
    bf4c:	45ab      	cmp	fp, r5
    bf4e:	bf88      	it	hi
    bf50:	3f01      	subhi	r7, #1
    bf52:	ea47 4909 	orr.w	r9, r7, r9, lsl #16
    bf56:	2400      	movs	r4, #0
    bf58:	e003      	b.n	bf62 <__divdi3+0xc2>
    bf5a:	428b      	cmp	r3, r1
    bf5c:	d90c      	bls.n	bf78 <__divdi3+0xd8>
    bf5e:	2400      	movs	r4, #0
    bf60:	46a1      	mov	r9, r4
    bf62:	464a      	mov	r2, r9
    bf64:	4623      	mov	r3, r4
    bf66:	b116      	cbz	r6, bf6e <__divdi3+0xce>
    bf68:	4252      	negs	r2, r2
    bf6a:	eb63 0343 	sbc.w	r3, r3, r3, lsl #1
    bf6e:	4610      	mov	r0, r2
    bf70:	4619      	mov	r1, r3
    bf72:	b005      	add	sp, #20
    bf74:	e8bd 8ff0 	ldmia.w	sp!, {r4, r5, r6, r7, r8, r9, sl, fp, pc}
    bf78:	fab3 f483 	clz	r4, r3
    bf7c:	2c00      	cmp	r4, #0
    bf7e:	f040 80b4 	bne.w	c0ea <__divdi3+0x24a>
    bf82:	428b      	cmp	r3, r1
    bf84:	f04f 0901 	mov.w	r9, #1
    bf88:	bf2c      	ite	cs
    bf8a:	f04f 0c00 	movcs.w	ip, #0
    bf8e:	f04f 0c01 	movcc.w	ip, #1
    bf92:	4282      	cmp	r2, r0
    bf94:	bf8c      	ite	hi
    bf96:	4667      	movhi	r7, ip
    bf98:	f04c 0701 	orrls.w	r7, ip, #1
    bf9c:	2f00      	cmp	r7, #0
    bf9e:	d1e0      	bne.n	bf62 <__divdi3+0xc2>
    bfa0:	463c      	mov	r4, r7
    bfa2:	46b9      	mov	r9, r7
    bfa4:	e7dd      	b.n	bf62 <__divdi3+0xc2>
    bfa6:	b922      	cbnz	r2, bfb2 <__divdi3+0x112>
    bfa8:	2001      	movs	r0, #1
    bfaa:	4611      	mov	r1, r2
    bfac:	f7ff fdcc 	bl	bb48 <__aeabi_uidiv>
    bfb0:	4604      	mov	r4, r0
    bfb2:	fab4 f384 	clz	r3, r4
    bfb6:	2b00      	cmp	r3, #0
    bfb8:	d14a      	bne.n	c050 <__divdi3+0x1b0>
    bfba:	ebc4 0808 	rsb	r8, r4, r8
    bfbe:	0c27      	lsrs	r7, r4, #16
    bfc0:	fa1f fa84 	uxth.w	sl, r4
    bfc4:	2101      	movs	r1, #1
    bfc6:	9102      	str	r1, [sp, #8]
    bfc8:	4639      	mov	r1, r7
    bfca:	4640      	mov	r0, r8
    bfcc:	f7ff fdbc 	bl	bb48 <__aeabi_uidiv>
    bfd0:	4639      	mov	r1, r7
    bfd2:	ea4f 4b15 	mov.w	fp, r5, lsr #16
    bfd6:	4681      	mov	r9, r0
    bfd8:	4640      	mov	r0, r8
    bfda:	f7ff fee3 	bl	bda4 <__aeabi_uidivmod>
    bfde:	fb0a f309 	mul.w	r3, sl, r9
    bfe2:	ea4b 4b01 	orr.w	fp, fp, r1, lsl #16
    bfe6:	455b      	cmp	r3, fp
    bfe8:	d909      	bls.n	bffe <__divdi3+0x15e>
    bfea:	eb1b 0b04 	adds.w	fp, fp, r4
    bfee:	f109 39ff 	add.w	r9, r9, #4294967295
    bff2:	d204      	bcs.n	bffe <__divdi3+0x15e>
    bff4:	455b      	cmp	r3, fp
    bff6:	bf84      	itt	hi
    bff8:	f109 39ff 	addhi.w	r9, r9, #4294967295
    bffc:	44a3      	addhi	fp, r4
    bffe:	ebc3 0b0b 	rsb	fp, r3, fp
    c002:	4639      	mov	r1, r7
    c004:	4658      	mov	r0, fp
    c006:	b2ad      	uxth	r5, r5
    c008:	f7ff fd9e 	bl	bb48 <__aeabi_uidiv>
    c00c:	4639      	mov	r1, r7
    c00e:	4680      	mov	r8, r0
    c010:	4658      	mov	r0, fp
    c012:	f7ff fec7 	bl	bda4 <__aeabi_uidivmod>
    c016:	fb0a fa08 	mul.w	sl, sl, r8
    c01a:	ea45 4501 	orr.w	r5, r5, r1, lsl #16
    c01e:	45aa      	cmp	sl, r5
    c020:	d907      	bls.n	c032 <__divdi3+0x192>
    c022:	192d      	adds	r5, r5, r4
    c024:	f108 38ff 	add.w	r8, r8, #4294967295
    c028:	d203      	bcs.n	c032 <__divdi3+0x192>
    c02a:	45aa      	cmp	sl, r5
    c02c:	bf88      	it	hi
    c02e:	f108 38ff 	addhi.w	r8, r8, #4294967295
    c032:	ea48 4909 	orr.w	r9, r8, r9, lsl #16
    c036:	9c02      	ldr	r4, [sp, #8]
    c038:	e793      	b.n	bf62 <__divdi3+0xc2>
    c03a:	43f6      	mvns	r6, r6
    c03c:	4252      	negs	r2, r2
    c03e:	eb63 0343 	sbc.w	r3, r3, r3, lsl #1
    c042:	e738      	b.n	beb6 <__divdi3+0x16>
    c044:	4240      	negs	r0, r0
    c046:	eb61 0141 	sbc.w	r1, r1, r1, lsl #1
    c04a:	f04f 36ff 	mov.w	r6, #4294967295
    c04e:	e72f      	b.n	beb0 <__divdi3+0x10>
    c050:	409c      	lsls	r4, r3
    c052:	f1c3 0020 	rsb	r0, r3, #32
    c056:	fa28 fa00 	lsr.w	sl, r8, r0
    c05a:	fa08 fb03 	lsl.w	fp, r8, r3
    c05e:	0c27      	lsrs	r7, r4, #16
    c060:	fa35 f200 	lsrs.w	r2, r5, r0
    c064:	4639      	mov	r1, r7
    c066:	4650      	mov	r0, sl
    c068:	ea42 020b 	orr.w	r2, r2, fp
    c06c:	409d      	lsls	r5, r3
    c06e:	9202      	str	r2, [sp, #8]
    c070:	f7ff fd6a 	bl	bb48 <__aeabi_uidiv>
    c074:	4639      	mov	r1, r7
    c076:	4683      	mov	fp, r0
    c078:	4650      	mov	r0, sl
    c07a:	f7ff fe93 	bl	bda4 <__aeabi_uidivmod>
    c07e:	9b02      	ldr	r3, [sp, #8]
    c080:	fa1f fa84 	uxth.w	sl, r4
    c084:	ea4f 4913 	mov.w	r9, r3, lsr #16
    c088:	fb0a f30b 	mul.w	r3, sl, fp
    c08c:	ea49 4801 	orr.w	r8, r9, r1, lsl #16
    c090:	4543      	cmp	r3, r8
    c092:	d905      	bls.n	c0a0 <__divdi3+0x200>
    c094:	eb18 0804 	adds.w	r8, r8, r4
    c098:	f10b 3bff 	add.w	fp, fp, #4294967295
    c09c:	f0c0 80ab 	bcc.w	c1f6 <__divdi3+0x356>
    c0a0:	ebc3 0808 	rsb	r8, r3, r8
    c0a4:	4639      	mov	r1, r7
    c0a6:	4640      	mov	r0, r8
    c0a8:	f7ff fd4e 	bl	bb48 <__aeabi_uidiv>
    c0ac:	4639      	mov	r1, r7
    c0ae:	4681      	mov	r9, r0
    c0b0:	4640      	mov	r0, r8
    c0b2:	f7ff fe77 	bl	bda4 <__aeabi_uidivmod>
    c0b6:	9a02      	ldr	r2, [sp, #8]
    c0b8:	fb0a f309 	mul.w	r3, sl, r9
    c0bc:	fa1f fc82 	uxth.w	ip, r2
    c0c0:	ea4c 4801 	orr.w	r8, ip, r1, lsl #16
    c0c4:	4543      	cmp	r3, r8
    c0c6:	d909      	bls.n	c0dc <__divdi3+0x23c>
    c0c8:	eb18 0804 	adds.w	r8, r8, r4
    c0cc:	f109 39ff 	add.w	r9, r9, #4294967295
    c0d0:	d204      	bcs.n	c0dc <__divdi3+0x23c>
    c0d2:	4543      	cmp	r3, r8
    c0d4:	bf84      	itt	hi
    c0d6:	f109 39ff 	addhi.w	r9, r9, #4294967295
    c0da:	44a0      	addhi	r8, r4
    c0dc:	ea49 4e0b 	orr.w	lr, r9, fp, lsl #16
    c0e0:	ebc3 0808 	rsb	r8, r3, r8
    c0e4:	f8cd e008 	str.w	lr, [sp, #8]
    c0e8:	e76e      	b.n	bfc8 <__divdi3+0x128>
    c0ea:	f1c4 0020 	rsb	r0, r4, #32
    c0ee:	fa03 fa04 	lsl.w	sl, r3, r4
    c0f2:	fa32 f300 	lsrs.w	r3, r2, r0
    c0f6:	fa21 f800 	lsr.w	r8, r1, r0
    c0fa:	ea43 0a0a 	orr.w	sl, r3, sl
    c0fe:	fa35 f200 	lsrs.w	r2, r5, r0
    c102:	fa01 f904 	lsl.w	r9, r1, r4
    c106:	4640      	mov	r0, r8
    c108:	ea4f 4b1a 	mov.w	fp, sl, lsr #16
    c10c:	ea42 0109 	orr.w	r1, r2, r9
    c110:	9103      	str	r1, [sp, #12]
    c112:	4659      	mov	r1, fp
    c114:	fa17 f304 	lsls.w	r3, r7, r4
    c118:	9302      	str	r3, [sp, #8]
    c11a:	f7ff fd15 	bl	bb48 <__aeabi_uidiv>
    c11e:	4659      	mov	r1, fp
    c120:	4681      	mov	r9, r0
    c122:	4640      	mov	r0, r8
    c124:	f7ff fe3e 	bl	bda4 <__aeabi_uidivmod>
    c128:	fa1f f38a 	uxth.w	r3, sl
    c12c:	9803      	ldr	r0, [sp, #12]
    c12e:	fb03 f209 	mul.w	r2, r3, r9
    c132:	0c07      	lsrs	r7, r0, #16
    c134:	ea47 4801 	orr.w	r8, r7, r1, lsl #16
    c138:	4542      	cmp	r2, r8
    c13a:	d904      	bls.n	c146 <__divdi3+0x2a6>
    c13c:	eb18 080a 	adds.w	r8, r8, sl
    c140:	f109 39ff 	add.w	r9, r9, #4294967295
    c144:	d351      	bcc.n	c1ea <__divdi3+0x34a>
    c146:	ebc2 0808 	rsb	r8, r2, r8
    c14a:	4659      	mov	r1, fp
    c14c:	4640      	mov	r0, r8
    c14e:	9301      	str	r3, [sp, #4]
    c150:	f7ff fcfa 	bl	bb48 <__aeabi_uidiv>
    c154:	4659      	mov	r1, fp
    c156:	4607      	mov	r7, r0
    c158:	4640      	mov	r0, r8
    c15a:	f7ff fe23 	bl	bda4 <__aeabi_uidivmod>
    c15e:	9801      	ldr	r0, [sp, #4]
    c160:	9a03      	ldr	r2, [sp, #12]
    c162:	fb00 f307 	mul.w	r3, r0, r7
    c166:	fa1f fc82 	uxth.w	ip, r2
    c16a:	ea4c 4c01 	orr.w	ip, ip, r1, lsl #16
    c16e:	4563      	cmp	r3, ip
    c170:	d907      	bls.n	c182 <__divdi3+0x2e2>
    c172:	3f01      	subs	r7, #1
    c174:	eb1c 0c0a 	adds.w	ip, ip, sl
    c178:	d203      	bcs.n	c182 <__divdi3+0x2e2>
    c17a:	4563      	cmp	r3, ip
    c17c:	d901      	bls.n	c182 <__divdi3+0x2e2>
    c17e:	3f01      	subs	r7, #1
    c180:	44d4      	add	ip, sl
    c182:	ea47 4909 	orr.w	r9, r7, r9, lsl #16
    c186:	9f02      	ldr	r7, [sp, #8]
    c188:	ebc3 030c 	rsb	r3, r3, ip
    c18c:	fa1f fe89 	uxth.w	lr, r9
    c190:	ea4f 4019 	mov.w	r0, r9, lsr #16
    c194:	b2b9      	uxth	r1, r7
    c196:	0c3f      	lsrs	r7, r7, #16
    c198:	fb01 f80e 	mul.w	r8, r1, lr
    c19c:	fb01 f100 	mul.w	r1, r1, r0
    c1a0:	fb07 120e 	mla	r2, r7, lr, r1
    c1a4:	fb07 fc00 	mul.w	ip, r7, r0
    c1a8:	eb02 4218 	add.w	r2, r2, r8, lsr #16
    c1ac:	4291      	cmp	r1, r2
    c1ae:	bf88      	it	hi
    c1b0:	f50c 3c80 	addhi.w	ip, ip, #65536	; 0x10000
    c1b4:	eb0c 4e12 	add.w	lr, ip, r2, lsr #16
    c1b8:	4573      	cmp	r3, lr
    c1ba:	d312      	bcc.n	c1e2 <__divdi3+0x342>
    c1bc:	ea4f 4202 	mov.w	r2, r2, lsl #16
    c1c0:	fa1f f888 	uxth.w	r8, r8
    c1c4:	bf14      	ite	ne
    c1c6:	2300      	movne	r3, #0
    c1c8:	2301      	moveq	r3, #1
    c1ca:	eb02 0c08 	add.w	ip, r2, r8
    c1ce:	fa15 f404 	lsls.w	r4, r5, r4
    c1d2:	4564      	cmp	r4, ip
    c1d4:	bf2c      	ite	cs
    c1d6:	2400      	movcs	r4, #0
    c1d8:	f003 0401 	andcc.w	r4, r3, #1
    c1dc:	2c00      	cmp	r4, #0
    c1de:	f43f aec0 	beq.w	bf62 <__divdi3+0xc2>
    c1e2:	f109 39ff 	add.w	r9, r9, #4294967295
    c1e6:	2400      	movs	r4, #0
    c1e8:	e6bb      	b.n	bf62 <__divdi3+0xc2>
    c1ea:	4542      	cmp	r2, r8
    c1ec:	bf84      	itt	hi
    c1ee:	f109 39ff 	addhi.w	r9, r9, #4294967295
    c1f2:	44d0      	addhi	r8, sl
    c1f4:	e7a7      	b.n	c146 <__divdi3+0x2a6>
    c1f6:	4543      	cmp	r3, r8
    c1f8:	bf84      	itt	hi
    c1fa:	f10b 3bff 	addhi.w	fp, fp, #4294967295
    c1fe:	44a0      	addhi	r8, r4
    c200:	e74e      	b.n	c0a0 <__divdi3+0x200>
    c202:	bf00      	nop

0000c204 <__udivdi3>:
    c204:	e92d 4ff0 	stmdb	sp!, {r4, r5, r6, r7, r8, r9, sl, fp, lr}
    c208:	4605      	mov	r5, r0
    c20a:	b083      	sub	sp, #12
    c20c:	460c      	mov	r4, r1
    c20e:	4617      	mov	r7, r2
    c210:	4680      	mov	r8, r0
    c212:	460e      	mov	r6, r1
    c214:	2b00      	cmp	r3, #0
    c216:	d14f      	bne.n	c2b8 <__udivdi3+0xb4>
    c218:	428a      	cmp	r2, r1
    c21a:	d963      	bls.n	c2e4 <__udivdi3+0xe0>
    c21c:	fab2 f382 	clz	r3, r2
    c220:	b153      	cbz	r3, c238 <__udivdi3+0x34>
    c222:	f1c3 0020 	rsb	r0, r3, #32
    c226:	fa11 f603 	lsls.w	r6, r1, r3
    c22a:	fa35 f200 	lsrs.w	r2, r5, r0
    c22e:	409f      	lsls	r7, r3
    c230:	ea42 0606 	orr.w	r6, r2, r6
    c234:	fa05 f803 	lsl.w	r8, r5, r3
    c238:	0c3c      	lsrs	r4, r7, #16
    c23a:	4630      	mov	r0, r6
    c23c:	4621      	mov	r1, r4
    c23e:	fa1f fa87 	uxth.w	sl, r7
    c242:	f7ff fc81 	bl	bb48 <__aeabi_uidiv>
    c246:	4621      	mov	r1, r4
    c248:	ea4f 4518 	mov.w	r5, r8, lsr #16
    c24c:	4681      	mov	r9, r0
    c24e:	4630      	mov	r0, r6
    c250:	f7ff fda8 	bl	bda4 <__aeabi_uidivmod>
    c254:	fb0a f309 	mul.w	r3, sl, r9
    c258:	ea45 4601 	orr.w	r6, r5, r1, lsl #16
    c25c:	42b3      	cmp	r3, r6
    c25e:	d908      	bls.n	c272 <__udivdi3+0x6e>
    c260:	19f6      	adds	r6, r6, r7
    c262:	f109 39ff 	add.w	r9, r9, #4294967295
    c266:	d204      	bcs.n	c272 <__udivdi3+0x6e>
    c268:	42b3      	cmp	r3, r6
    c26a:	bf84      	itt	hi
    c26c:	f109 39ff 	addhi.w	r9, r9, #4294967295
    c270:	19f6      	addhi	r6, r6, r7
    c272:	1af6      	subs	r6, r6, r3
    c274:	4621      	mov	r1, r4
    c276:	4630      	mov	r0, r6
    c278:	fa1f f888 	uxth.w	r8, r8
    c27c:	f7ff fc64 	bl	bb48 <__aeabi_uidiv>
    c280:	4621      	mov	r1, r4
    c282:	4605      	mov	r5, r0
    c284:	4630      	mov	r0, r6
    c286:	f7ff fd8d 	bl	bda4 <__aeabi_uidivmod>
    c28a:	fb0a fa05 	mul.w	sl, sl, r5
    c28e:	ea48 4801 	orr.w	r8, r8, r1, lsl #16
    c292:	45c2      	cmp	sl, r8
    c294:	d906      	bls.n	c2a4 <__udivdi3+0xa0>
    c296:	3d01      	subs	r5, #1
    c298:	eb18 0807 	adds.w	r8, r8, r7
    c29c:	d202      	bcs.n	c2a4 <__udivdi3+0xa0>
    c29e:	45c2      	cmp	sl, r8
    c2a0:	bf88      	it	hi
    c2a2:	3d01      	subhi	r5, #1
    c2a4:	ea45 4a09 	orr.w	sl, r5, r9, lsl #16
    c2a8:	2600      	movs	r6, #0
    c2aa:	4631      	mov	r1, r6
    c2ac:	46d0      	mov	r8, sl
    c2ae:	46b1      	mov	r9, r6
    c2b0:	4650      	mov	r0, sl
    c2b2:	b003      	add	sp, #12
    c2b4:	e8bd 8ff0 	ldmia.w	sp!, {r4, r5, r6, r7, r8, r9, sl, fp, pc}
    c2b8:	428b      	cmp	r3, r1
    c2ba:	d85b      	bhi.n	c374 <__udivdi3+0x170>
    c2bc:	fab3 f683 	clz	r6, r3
    c2c0:	2e00      	cmp	r6, #0
    c2c2:	d15a      	bne.n	c37a <__udivdi3+0x176>
    c2c4:	428b      	cmp	r3, r1
    c2c6:	f04f 0a01 	mov.w	sl, #1
    c2ca:	bf2c      	ite	cs
    c2cc:	2400      	movcs	r4, #0
    c2ce:	2401      	movcc	r4, #1
    c2d0:	4282      	cmp	r2, r0
    c2d2:	bf8c      	ite	hi
    c2d4:	4625      	movhi	r5, r4
    c2d6:	f044 0501 	orrls.w	r5, r4, #1
    c2da:	2d00      	cmp	r5, #0
    c2dc:	d1e5      	bne.n	c2aa <__udivdi3+0xa6>
    c2de:	462e      	mov	r6, r5
    c2e0:	46aa      	mov	sl, r5
    c2e2:	e7e2      	b.n	c2aa <__udivdi3+0xa6>
    c2e4:	b922      	cbnz	r2, c2f0 <__udivdi3+0xec>
    c2e6:	2001      	movs	r0, #1
    c2e8:	4611      	mov	r1, r2
    c2ea:	f7ff fc2d 	bl	bb48 <__aeabi_uidiv>
    c2ee:	4607      	mov	r7, r0
    c2f0:	fab7 f387 	clz	r3, r7
    c2f4:	2b00      	cmp	r3, #0
    c2f6:	f040 80bb 	bne.w	c470 <__udivdi3+0x26c>
    c2fa:	1be4      	subs	r4, r4, r7
    c2fc:	ea4f 4b17 	mov.w	fp, r7, lsr #16
    c300:	b2bd      	uxth	r5, r7
    c302:	2601      	movs	r6, #1
    c304:	4659      	mov	r1, fp
    c306:	4620      	mov	r0, r4
    c308:	f7ff fc1e 	bl	bb48 <__aeabi_uidiv>
    c30c:	4659      	mov	r1, fp
    c30e:	4682      	mov	sl, r0
    c310:	4620      	mov	r0, r4
    c312:	f7ff fd47 	bl	bda4 <__aeabi_uidivmod>
    c316:	ea4f 4c18 	mov.w	ip, r8, lsr #16
    c31a:	fb05 f30a 	mul.w	r3, r5, sl
    c31e:	ea4c 4401 	orr.w	r4, ip, r1, lsl #16
    c322:	42a3      	cmp	r3, r4
    c324:	d908      	bls.n	c338 <__udivdi3+0x134>
    c326:	19e4      	adds	r4, r4, r7
    c328:	f10a 3aff 	add.w	sl, sl, #4294967295
    c32c:	d204      	bcs.n	c338 <__udivdi3+0x134>
    c32e:	42a3      	cmp	r3, r4
    c330:	bf84      	itt	hi
    c332:	f10a 3aff 	addhi.w	sl, sl, #4294967295
    c336:	19e4      	addhi	r4, r4, r7
    c338:	1ae4      	subs	r4, r4, r3
    c33a:	4659      	mov	r1, fp
    c33c:	4620      	mov	r0, r4
    c33e:	f7ff fc03 	bl	bb48 <__aeabi_uidiv>
    c342:	4659      	mov	r1, fp
    c344:	4681      	mov	r9, r0
    c346:	4620      	mov	r0, r4
    c348:	f7ff fd2c 	bl	bda4 <__aeabi_uidivmod>
    c34c:	fa1f f388 	uxth.w	r3, r8
    c350:	fb05 f509 	mul.w	r5, r5, r9
    c354:	ea43 4801 	orr.w	r8, r3, r1, lsl #16
    c358:	4545      	cmp	r5, r8
    c35a:	d908      	bls.n	c36e <__udivdi3+0x16a>
    c35c:	eb18 0807 	adds.w	r8, r8, r7
    c360:	f109 39ff 	add.w	r9, r9, #4294967295
    c364:	d203      	bcs.n	c36e <__udivdi3+0x16a>
    c366:	4545      	cmp	r5, r8
    c368:	bf88      	it	hi
    c36a:	f109 39ff 	addhi.w	r9, r9, #4294967295
    c36e:	ea49 4a0a 	orr.w	sl, r9, sl, lsl #16
    c372:	e79a      	b.n	c2aa <__udivdi3+0xa6>
    c374:	2600      	movs	r6, #0
    c376:	46b2      	mov	sl, r6
    c378:	e797      	b.n	c2aa <__udivdi3+0xa6>
    c37a:	f1c6 0020 	rsb	r0, r6, #32
    c37e:	fa13 f106 	lsls.w	r1, r3, r6
    c382:	fa32 f700 	lsrs.w	r7, r2, r0
    c386:	fa35 f300 	lsrs.w	r3, r5, r0
    c38a:	430f      	orrs	r7, r1
    c38c:	fa24 fb00 	lsr.w	fp, r4, r0
    c390:	40b4      	lsls	r4, r6
    c392:	4658      	mov	r0, fp
    c394:	ea4f 4817 	mov.w	r8, r7, lsr #16
    c398:	ea43 0104 	orr.w	r1, r3, r4
    c39c:	9101      	str	r1, [sp, #4]
    c39e:	4641      	mov	r1, r8
    c3a0:	fa12 f406 	lsls.w	r4, r2, r6
    c3a4:	9400      	str	r4, [sp, #0]
    c3a6:	f7ff fbcf 	bl	bb48 <__aeabi_uidiv>
    c3aa:	4641      	mov	r1, r8
    c3ac:	b2bc      	uxth	r4, r7
    c3ae:	4682      	mov	sl, r0
    c3b0:	4658      	mov	r0, fp
    c3b2:	f7ff fcf7 	bl	bda4 <__aeabi_uidivmod>
    c3b6:	9a01      	ldr	r2, [sp, #4]
    c3b8:	fb04 f30a 	mul.w	r3, r4, sl
    c3bc:	ea4f 4b12 	mov.w	fp, r2, lsr #16
    c3c0:	ea4b 4b01 	orr.w	fp, fp, r1, lsl #16
    c3c4:	455b      	cmp	r3, fp
    c3c6:	d905      	bls.n	c3d4 <__udivdi3+0x1d0>
    c3c8:	eb1b 0b07 	adds.w	fp, fp, r7
    c3cc:	f10a 3aff 	add.w	sl, sl, #4294967295
    c3d0:	f0c0 8096 	bcc.w	c500 <__udivdi3+0x2fc>
    c3d4:	ebc3 0b0b 	rsb	fp, r3, fp
    c3d8:	4641      	mov	r1, r8
    c3da:	4658      	mov	r0, fp
    c3dc:	f7ff fbb4 	bl	bb48 <__aeabi_uidiv>
    c3e0:	4641      	mov	r1, r8
    c3e2:	4681      	mov	r9, r0
    c3e4:	4658      	mov	r0, fp
    c3e6:	f7ff fcdd 	bl	bda4 <__aeabi_uidivmod>
    c3ea:	9a01      	ldr	r2, [sp, #4]
    c3ec:	fb04 f409 	mul.w	r4, r4, r9
    c3f0:	fa1f f882 	uxth.w	r8, r2
    c3f4:	ea48 4301 	orr.w	r3, r8, r1, lsl #16
    c3f8:	429c      	cmp	r4, r3
    c3fa:	d903      	bls.n	c404 <__udivdi3+0x200>
    c3fc:	19db      	adds	r3, r3, r7
    c3fe:	f109 39ff 	add.w	r9, r9, #4294967295
    c402:	d377      	bcc.n	c4f4 <__udivdi3+0x2f0>
    c404:	9f00      	ldr	r7, [sp, #0]
    c406:	ea49 4a0a 	orr.w	sl, r9, sl, lsl #16
    c40a:	1b1c      	subs	r4, r3, r4
    c40c:	fa1f f18a 	uxth.w	r1, sl
    c410:	fa1f f887 	uxth.w	r8, r7
    c414:	0c3a      	lsrs	r2, r7, #16
    c416:	ea4f 471a 	mov.w	r7, sl, lsr #16
    c41a:	fb08 fc01 	mul.w	ip, r8, r1
    c41e:	fb08 f307 	mul.w	r3, r8, r7
    c422:	fb02 3001 	mla	r0, r2, r1, r3
    c426:	fb02 f907 	mul.w	r9, r2, r7
    c42a:	eb00 411c 	add.w	r1, r0, ip, lsr #16
    c42e:	428b      	cmp	r3, r1
    c430:	bf88      	it	hi
    c432:	f509 3980 	addhi.w	r9, r9, #65536	; 0x10000
    c436:	eb09 4e11 	add.w	lr, r9, r1, lsr #16
    c43a:	4574      	cmp	r4, lr
    c43c:	d314      	bcc.n	c468 <__udivdi3+0x264>
    c43e:	ea4f 4901 	mov.w	r9, r1, lsl #16
    c442:	fa1f f38c 	uxth.w	r3, ip
    c446:	bf14      	ite	ne
    c448:	f04f 0e00 	movne.w	lr, #0
    c44c:	f04f 0e01 	moveq.w	lr, #1
    c450:	eb09 0c03 	add.w	ip, r9, r3
    c454:	fa15 f606 	lsls.w	r6, r5, r6
    c458:	4566      	cmp	r6, ip
    c45a:	bf2c      	ite	cs
    c45c:	2600      	movcs	r6, #0
    c45e:	f00e 0601 	andcc.w	r6, lr, #1
    c462:	2e00      	cmp	r6, #0
    c464:	f43f af21 	beq.w	c2aa <__udivdi3+0xa6>
    c468:	f10a 3aff 	add.w	sl, sl, #4294967295
    c46c:	2600      	movs	r6, #0
    c46e:	e71c      	b.n	c2aa <__udivdi3+0xa6>
    c470:	409f      	lsls	r7, r3
    c472:	f1c3 0920 	rsb	r9, r3, #32
    c476:	fa24 f609 	lsr.w	r6, r4, r9
    c47a:	fa14 f203 	lsls.w	r2, r4, r3
    c47e:	ea4f 4b17 	mov.w	fp, r7, lsr #16
    c482:	fa25 fa09 	lsr.w	sl, r5, r9
    c486:	4659      	mov	r1, fp
    c488:	4630      	mov	r0, r6
    c48a:	fa05 f803 	lsl.w	r8, r5, r3
    c48e:	ea4a 0a02 	orr.w	sl, sl, r2
    c492:	f7ff fb59 	bl	bb48 <__aeabi_uidiv>
    c496:	4659      	mov	r1, fp
    c498:	b2bd      	uxth	r5, r7
    c49a:	ea4f 441a 	mov.w	r4, sl, lsr #16
    c49e:	4681      	mov	r9, r0
    c4a0:	4630      	mov	r0, r6
    c4a2:	f7ff fc7f 	bl	bda4 <__aeabi_uidivmod>
    c4a6:	fb05 f309 	mul.w	r3, r5, r9
    c4aa:	ea44 4401 	orr.w	r4, r4, r1, lsl #16
    c4ae:	42a3      	cmp	r3, r4
    c4b0:	d903      	bls.n	c4ba <__udivdi3+0x2b6>
    c4b2:	19e4      	adds	r4, r4, r7
    c4b4:	f109 39ff 	add.w	r9, r9, #4294967295
    c4b8:	d328      	bcc.n	c50c <__udivdi3+0x308>
    c4ba:	1ae4      	subs	r4, r4, r3
    c4bc:	4659      	mov	r1, fp
    c4be:	4620      	mov	r0, r4
    c4c0:	f7ff fb42 	bl	bb48 <__aeabi_uidiv>
    c4c4:	4659      	mov	r1, fp
    c4c6:	4606      	mov	r6, r0
    c4c8:	4620      	mov	r0, r4
    c4ca:	f7ff fc6b 	bl	bda4 <__aeabi_uidivmod>
    c4ce:	fa1f f08a 	uxth.w	r0, sl
    c4d2:	fb05 f306 	mul.w	r3, r5, r6
    c4d6:	ea40 4401 	orr.w	r4, r0, r1, lsl #16
    c4da:	42a3      	cmp	r3, r4
    c4dc:	d906      	bls.n	c4ec <__udivdi3+0x2e8>
    c4de:	3e01      	subs	r6, #1
    c4e0:	19e4      	adds	r4, r4, r7
    c4e2:	d203      	bcs.n	c4ec <__udivdi3+0x2e8>
    c4e4:	42a3      	cmp	r3, r4
    c4e6:	d901      	bls.n	c4ec <__udivdi3+0x2e8>
    c4e8:	3e01      	subs	r6, #1
    c4ea:	19e4      	adds	r4, r4, r7
    c4ec:	1ae4      	subs	r4, r4, r3
    c4ee:	ea46 4609 	orr.w	r6, r6, r9, lsl #16
    c4f2:	e707      	b.n	c304 <__udivdi3+0x100>
    c4f4:	429c      	cmp	r4, r3
    c4f6:	bf84      	itt	hi
    c4f8:	f109 39ff 	addhi.w	r9, r9, #4294967295
    c4fc:	19db      	addhi	r3, r3, r7
    c4fe:	e781      	b.n	c404 <__udivdi3+0x200>
    c500:	455b      	cmp	r3, fp
    c502:	bf84      	itt	hi
    c504:	f10a 3aff 	addhi.w	sl, sl, #4294967295
    c508:	44bb      	addhi	fp, r7
    c50a:	e763      	b.n	c3d4 <__udivdi3+0x1d0>
    c50c:	42a3      	cmp	r3, r4
    c50e:	bf84      	itt	hi
    c510:	f109 39ff 	addhi.w	r9, r9, #4294967295
    c514:	19e4      	addhi	r4, r4, r7
    c516:	e7d0      	b.n	c4ba <__udivdi3+0x2b6>
    c518:	45434552 	.word	0x45434552
    c51c:	49435043 	.word	0x49435043
    c520:	495f4e4f 	.word	0x495f4e4f
    c524:	4152464e 	.word	0x4152464e
    c528:	4a4f5252 	.word	0x4a4f5252
    c52c:	665f534f 	.word	0x665f534f
    c530:	665f7665 	.word	0x665f7665
    c534:	636e616c 	.word	0x636e616c
    c538:	6f705f6f 	.word	0x6f705f6f
    c53c:	69746973 	.word	0x69746973
    c540:	00006f76 	.word	0x00006f76

0000c544 <xesperar>:
    c544:	00000001 0000c518 00000101 000004b9     ................
	...
    c564:	45505345 00524152                       ESPERAR.

0000c56c <esperar>:
    c56c:	00000000 0000c564 00000000 0000c544     ....d.......D...
    c57c:	45434552 49435043 495f4e4f 4152464e     RECECPCION_INFRA
    c58c:	4a4f5252 665f534f 665f7665 636e616c     RROJOS_fev_flanc
    c59c:	5f745f6f 74726f63 696d5f6f 0000006e     o_t_corto_min...
    c5ac:	45434552 49435043 495f4e4f 4152464e     RECECPCION_INFRA
    c5bc:	4a4f5252 665f534f 665f7665 636e616c     RROJOS_fev_flanc
    c5cc:	656e5f6f 69746167 745f6f76 726f635f     o_negativo_t_cor
    c5dc:	6f5f6f74 0000006b 45434552 49435043     to_ok...RECECPCI
    c5ec:	495f4e4f 4152464e 4a4f5252 665f534f     ON_INFRARROJOS_f
    c5fc:	745f7665 726f635f 00006f74              ev_t_corto..

0000c608 <xleer_on>:
    c608:	00000001 0000c57c 0000011d 00000709     ....|...........
    c618:	00000002 0000c5ac 00000321 000004d5     ........!.......
    c628:	00000000 0000c5e4 00000625 000006d5     ........%.......
	...
    c648:	5245454c 004e4f5f                       LEER_ON.

0000c650 <leer_on>:
    c650:	00000001 0000c648 00000000 0000c608     ....H...........
    c660:	45434552 49435043 495f4e4f 4152464e     RECECPCION_INFRA
    c670:	4a4f5252 665f534f 665f7665 636e616c     RROJOS_fev_flanc
    c680:	5f745f6f 6772616c 696d5f6f 0000006e     o_t_largo_min...
    c690:	45434552 49435043 495f4e4f 4152464e     RECECPCION_INFRA
    c6a0:	4a4f5252 665f534f 665f7665 636e616c     RROJOS_fev_flanc
    c6b0:	6f705f6f 69746973 745f6f76 72616c5f     o_positivo_t_lar
    c6c0:	6f5f6f67 0000006b 45434552 49435043     go_ok...RECECPCI
    c6d0:	495f4e4f 4152464e 4a4f5252 665f534f     ON_INFRARROJOS_f
    c6e0:	745f7665 72616c5f 00006f67              ev_t_largo..

0000c6ec <xleer_off>:
    c6ec:	00000002 0000c660 00000211 00000709     ....`...........
    c6fc:	00000003 0000c690 00000269 000004f1     ........i.......
    c70c:	00000000 0000c6c8 0000067d 000006d5     ........}.......
	...
    c72c:	5245454c 46464f5f 00000000              LEER_OFF....

0000c738 <leer_off>:
    c738:	00000002 0000c72c 00000000 0000c6ec     ....,...........
    c748:	45434552 49435043 495f4e4f 4152464e     RECECPCION_INFRA
    c758:	4a4f5252 665f534f 665f7665 636e616c     RROJOS_fev_flanc
    c768:	656e5f6f 69746167 745f6f76 72616c5f     o_negativo_t_lar
    c778:	6f5f6f67 0000006b                       go_ok...

0000c780 <xleer_on_2>:
    c780:	00000003 0000c660 00000211 00000709     ....`...........
    c790:	00000004 0000c748 000003bd 0000050d     ....H...........
    c7a0:	00000000 0000c6c8 0000067d 000006d5     ........}.......
	...
    c7c0:	5245454c 5f4e4f5f 00000032              LEER_ON_2...

0000c7cc <leer_on_2>:
    c7cc:	00000003 0000c7c0 00000000 0000c780     ................
    c7dc:	45434552 49435043 495f4e4f 4152464e     RECECPCION_INFRA
    c7ec:	4a4f5252 665f534f 665f7665 636e616c     RROJOS_fev_flanc
    c7fc:	6f705f6f 69746973 745f6f76 726f635f     o_positivo_t_cor
    c80c:	6f5f6f74 0000006b                       to_ok...

0000c814 <xleer_off_2>:
    c814:	00000004 0000c57c 0000011d 00000709     ....|...........
    c824:	00000005 0000c7dc 00000175 00000731     ........u...1...
    c834:	00000000 0000c5e4 00000625 000006d5     ........%.......
	...
    c854:	5245454c 46464f5f 0000325f              LEER_OFF_2..

0000c860 <leer_off_2>:
    c860:	00000004 0000c854 00000000 0000c814     ....T...........
    c870:	45434552 49435043 495f4e4f 4152464e     RECECPCION_INFRA
    c880:	4a4f5252 665f534f 645f7665 63657265     RROJOS_fev_derec
    c890:	705f6168 61736c75 00006f64 45434552     ha_pulsado..RECE
    c8a0:	49435043 495f4e4f 4152464e 4a4f5252     CPCION_INFRARROJ
    c8b0:	665f534f 695f7665 6975717a 61647265     OS_fev_izquierda
    c8c0:	6c75705f 6f646173 00000000              _pulsado....

0000c8cc <xpreguntar>:
    c8cc:	00000006 0000c870 00000489 00000599     ....p...........
    c8dc:	00000000 0000c89c 00000459 000006d5     ........Y.......
	...
    c8fc:	47455250 41544e55 00000052              PREGUNTAR...

0000c908 <preguntar>:
    c908:	00000005 0000c8fc 00000000 0000c8cc     ................
    c918:	45434552 49435043 495f4e4f 4152464e     RECECPCION_INFRA
    c928:	4a4f5252 665f534f 665f7665 636e616c     RROJOS_fev_flanc
    c938:	656e5f6f 69746167 00006f76 45434552     o_negativo..RECE
    c948:	49435043 495f4e4f 4152464e 4a4f5252     CPCION_INFRARROJ
    c958:	665f534f 635f7665 6e756d6f 63616369     OS_fev_comunicac
    c968:	5f6e6f69 69746361 61646176 00000000     ion_activada....

0000c978 <xactivado>:
    c978:	00000007 0000c918 00000305 00000545     ............E...
    c988:	00000006 0000c944 0000081d 00000835     ....D.......5...
	...
    c9a8:	49544341 4f444156 00000000              ACTIVADO....

0000c9b4 <activado>:
    c9b4:	00000006 0000c9a8 00000000 0000c978     ............x...

0000c9c4 <xleer_off_3>:
    c9c4:	00000007 0000c57c 0000011d 00000709     ....|...........
    c9d4:	00000008 0000c7dc 00000175 00000561     ........u...a...
    c9e4:	00000006 0000c5e4 00000625 00000599     ........%.......
	...
    ca04:	5245454c 46464f5f 0000335f              LEER_OFF_3..

0000ca10 <leer_off_3>:
    ca10:	00000007 0000ca04 00000000 0000c9c4     ................

0000ca20 <xleer_on_3>:
    ca20:	00000008 0000c660 00000211 00000709     ....`...........
    ca30:	00000009 0000c748 000003bd 0000057d     ....H.......}...
    ca40:	00000006 0000c6c8 0000067d 00000599     ........}.......
	...
    ca60:	5245454c 5f4e4f5f 00000033              LEER_ON_3...

0000ca6c <leer_on_3>:
    ca6c:	00000008 0000ca60 00000000 0000ca20     ....`....... ...

0000ca7c <xleer_off_4>:
    ca7c:	00000009 0000c660 00000211 00000709     ....`...........
    ca8c:	0000000a 0000c690 00000269 00000529     ........i...)...
    ca9c:	00000006 0000c6c8 0000067d 00000599     ........}.......
	...
    cabc:	5245454c 46464f5f 0000345f              LEER_OFF_4..

0000cac8 <leer_off_4>:
    cac8:	00000009 0000cabc 00000000 0000ca7c     ............|...

0000cad8 <xleer_on_4>:
    cad8:	0000000a 0000c57c 0000011d 00000709     ....|...........
    cae8:	00000000 0000c5ac 00000321 000005dd     ........!.......
    caf8:	00000006 0000c5e4 00000625 00000599     ........%.......
	...
    cb18:	5245454c 5f4e4f5f 00000034              LEER_ON_4...

0000cb24 <leer_on_4>:
    cb24:	0000000a 0000cb18 00000000 0000cad8     ................
    cb34:	69746361 5f726176 72666e69 6f727261     activar_infrarro
    cb44:	00736f6a                                jos.

0000cb48 <activar_infrarrojos>:
    cb48:	00000000 0000cb34 00000000 20000000     ....4.......... 

0000cb58 <stellaris_1_M>:
    cb58:	20001c18 7265764f 006e7572 73615476     ... Overrun.vTas
    cb68:	65525f6b 69626963 6e495f72 72617266     k_Recibir_Infrar
    cb78:	6f6a6f72 00000073 73615476 64495f6b     rojos...vTask_Id
    cb88:	0000656c 73615476 6f435f6b 6f72746e     le..vTask_Contro
    cb98:	0000006c 73615476 65535f6b 69727567     l...vTask_Seguri
    cba8:	00646164 73615476 69445f6b 616c7073     dad.vTask_Displa
    cbb8:	00000079                                y...

0000cbbc <g_puc_circ>:
    cbbc:	44440000 4a000000 00a4aaaa aaaaaa04     ..DD...J........
    cbcc:	aa4a40aa a4aaaaaa aaaaaa4a aa4aa4aa     .@J.....J.....J.
    cbdc:	a4aaaaaa aaaaaa4a aa04a4aa 40aaaaaa     ....J..........@
    cbec:	aaaa4a00 000000a4 00004444              .J......DD..

0000cbf8 <g_puc_nada>:
	...

0000cc34 <g_pulDCRegs>:
    cc34:	400fe010 400fe014 400fe01c 400fe010     ...@...@...@...@

0000cc44 <g_pulSRCRRegs>:
    cc44:	400fe040 400fe044 400fe048              @..@D..@H..@

0000cc50 <g_pulRCGCRegs>:
    cc50:	400fe100 400fe104 400fe108              ...@...@...@

0000cc5c <g_pulSCGCRegs>:
    cc5c:	400fe110 400fe114 400fe118              ...@...@...@

0000cc68 <g_pulDCGCRegs>:
    cc68:	400fe120 400fe124 400fe128               ..@$..@(..@

0000cc74 <g_pulXtals>:
    cc74:	000f4240 001c2000 001e8480 00258000     @B... ........%.
    cc84:	00369e99 00384000 003d0900 003e8000     ..6..@8...=...>.
    cc94:	004b0000 004c4b40 004e2000 005b8d80     ..K.@KL.. N...[.
    cca4:	005dc000 00708000 007a1200 007d0000     ..]...p...z...}.
    ccb4:	00989680 00b71b00 00bb8000 00cee8c0     ................
    ccc4:	00da7a64 00f42400 00fa0000 6c6c6548     dz...$......Hell
    ccd4:	4f50206f 004c4250 00000009 00000909     o POPBL.........
    cce4:	09090909 00000000 09092009 00000009     ......... ......
    ccf4:	65206e65 72657073 09090961 09090909     en espera.......
    cd04:	00000000 6579656c 206f646e 09096e6f     ....leyendo on..
    cd14:	09090909 00000009 6579656c 206f646e     ........leyendo 
    cd24:	0966666f 09090909 00000009 6579656c     off.........leye
    cd34:	206f646e 32206e6f 09090909 00000909     ndo on 2........
    cd44:	6579656c 206f646e 2066666f 09090932     leyendo off 2...
    cd54:	00090909 20090909 09202020 09090909     .......    .....
    cd64:	00000009 69746361 6f646176 09090909     ....activado....
    cd74:	00090909 6579656c 206f646e 2066666f     ....leyendo off 
    cd84:	09090933 00090909 6579656c 206f646e     3.......leyendo 
    cd94:	33206e6f 09090909 00000909 6579656c     on 3........leye
    cda4:	206f646e 2066666f 09090934 00090909     ndo off 4.......
    cdb4:	6579656c 206f646e 34206e6f 09090909     leyendo on 4....
    cdc4:	00000909 69746361 20726176 75676573     ....activar segu
    cdd4:	65696d69 3f6f746e 00000009 3a717a69     imiento?....izq:
    cde4:	73656420 69746361 09726176 09090909      desactivar.....
    cdf4:	00000009 61686364 6361203a 61766974     ....dcha: activa
    ce04:	09090972 09090909 00000000 454c4449     r...........IDLE
    ce14:	00000000                                ....

0000ce18 <g_pucRIT128x96x4VerticalInc>:
    ce18:	000056a0                                .V..

0000ce1c <g_pucRIT128x96x4HorizontalInc>:
    ce1c:	000052a0                                .R..

0000ce20 <g_pucFont>:
    ce20:	00000000 4f000000 07000000 14000700     .......O........
    ce30:	147f147f 2a7f2a24 08132312 49366264     ....$*.*.#..db6I
    ce40:	00502255 00000305 41221c00 22410000     U"P......."A..A"
    ce50:	0814001c 0814083e 08083e08 00305000     ....>....>...P0.
    ce60:	08080800 60000808 20000060 02040810     .......``.. ....
    ce70:	4549513e 7f42003e 61420040 21464951     >QIE>.B.@.BaQIF!
    ce80:	314b4541 7f121418 45452710 4a3c3945     AEK1.....'EEE9<J
    ce90:	01304949 03050971 49494936 49490636     II0.q...6III6.II
    cea0:	36001e29 00000036 00003656 41221408     )..66...V6...."A
    ceb0:	14141400 41001414 02081422 06095101     .......A"....Q..
    cec0:	41794932 11117e3e 497f7e11 3e364949     2IyA>~...~.III6>
    ced0:	22414141 2241417f 49497f1c 097f4149     AAA".AA"..IIIA..
    cee0:	3e010909 7a494941 0808087f 7f41007f     ...>AIIz......A.
    cef0:	40200041 7f013f41 41221408 4040407f     A. @A?...."A.@@@
    cf00:	0c027f40 047f7f02 3e7f1008 3e414141     @..........>AAA>
    cf10:	0909097f 51413e06 097f5e21 46462919     .....>AQ!^...)FF
    cf20:	31494949 017f0101 40403f01 201f3f40     III1.....?@@@?. 
    cf30:	3f1f2040 3f403840 14081463 70080763     @ .?@8@?c...c..p
    cf40:	51610708 00434549 0041417f 10080402     ..aQIEC..AA.....
    cf50:	41410020 0204007f 40040201 40404040      .AA.......@@@@@
    cf60:	04020100 54542000 487f7854 38384444     ..... TTTx.HDD88
    cf70:	20444444 48444438 5454387f 7e081854     DDD 8DDH.8TTT..~
    cf80:	0c020109 3e525252 0404087f 7d440078     ....RRR>....x.D}
    cf90:	40200040 7f003d44 00442810 407f4100     @. @D=...(D..A.@
    cfa0:	18047c00 087c7804 38780404 38444444     .|...x|...x8DDD8
    cfb0:	1414147c 14140808 087c7c18 48080404     |........||....H
    cfc0:	20545454 40443f04 40403c20 201c7c20     TTT .?D@ <@@ |. 
    cfd0:	3c1c2040 3c403040 28102844 50500c44     @ .<@0@<D(.(D.PP
    cfe0:	64443c50 00444c54 00413608 007f0000     P<DdTLD..6A.....
    cff0:	36410000 01020008 00020402 00000000     ..A6............

0000d000 <g_pucRIT128x96x4Init>:
    d000:	e312fd03 03e3ae02 03e30094 03e35fa8     ............._..
    d010:	03e3b781 03e33f82 03e352a0 03e300a1     .....?...R......
    d020:	02e300a2 b103e3a4 b203e311 b303e323     ............#...
    d030:	b811e3e2 04030201 0a080605 13100e0c     ................
    d040:	e31e1a16 e301bb03 e33fbc03 00e3af02     ..........?.....

0000d050 <pucCommand1.1621>:
    d050:	0000e3ae                                ....

0000d054 <pucCommand1.1556>:
    d054:	003f0015                                ..?.

0000d058 <pucCommand2.1557>:
    d058:	007f0075 09090909 09090909 00000909     u...............
    d068:	09090909 09090909 09090909 00000000     ................
    d078:	33666e49 2e25203a 00006631 36666e49     Inf3: %.1f..Inf6
    d088:	2e25203a 00006631 34666e49 2e25203a     : %.1f..Inf4: %.
    d098:	00006631 31666e49 2e25203a 00006631     1f..Inf1: %.1f..
    d0a8:	35666e49 2e25203a 00006631 32666e49     Inf5: %.1f..Inf2
    d0b8:	2e25203a 00006631 3a746142 312e2520     : %.1f..Bat: %.1
    d0c8:	00000066 3a676553 00642520              f...Seg: %d.

0000d0d4 <blanks.3938>:
    d0d4:	20202020 20202020 20202020 20202020                     

0000d0e4 <zeroes.3939>:
    d0e4:	30303030 30303030 30303030 30303030     0000000000000000
    d0f4:	00464e49 00666e69 004e414e 006e616e     INF.inf.NAN.nan.
    d104:	33323130 37363534 42413938 46454443     0123456789ABCDEF
    d114:	00000000 33323130 37363534 62613938     ....0123456789ab
    d124:	66656463 00000000 6c756e28 0000296c     cdef....(null)..
    d134:	00000030 69666e49 7974696e 00000000     0...Infinity....
    d144:	004e614e 00000043 49534f50 00000058     NaN.C...POSIX...
    d154:	0000002e                                ....

0000d158 <p05.2464>:
    d158:	00000005 00000019 0000007d 00000000     ........}.......

0000d168 <__mprec_tens>:
    d168:	00000000 3ff00000 00000000 40240000     .......?......$@
    d178:	00000000 40590000 00000000 408f4000     ......Y@.....@.@
    d188:	00000000 40c38800 00000000 40f86a00     .......@.....j.@
    d198:	00000000 412e8480 00000000 416312d0     .......A......cA
    d1a8:	00000000 4197d784 00000000 41cdcd65     .......A....e..A
    d1b8:	20000000 4202a05f e8000000 42374876     ... _..B....vH7B
    d1c8:	a2000000 426d1a94 e5400000 42a2309c     ......mB..@..0.B
    d1d8:	1e900000 42d6bcc4 26340000 430c6bf5     .......B..4&.k.C
    d1e8:	37e08000 4341c379 85d8a000 43763457     ...7y.AC....W4vC
    d1f8:	674ec800 43abc16d 60913d00 43e158e4     ..Ngm..C.=.`.X.C
    d208:	78b58c40 4415af1d d6e2ef50 444b1ae4     @..x...DP.....KD
    d218:	064dd592 4480f0cf c7e14af6 44b52d02     ..M....D.J...-.D
    d228:	79d99db4 44ea7843                       ...yCx.D

0000d230 <__mprec_bigtens>:
    d230:	37e08000 4341c379 b5056e17 4693b8b5     ...7y.AC.n.....F
    d240:	e93ff9f5 4d384f03 f9301d32 5a827748     ..?..O8M2.0.Hw.Z
    d250:	7f73bf3c 75154fdd                       <.s..O.u

0000d258 <__mprec_tinytens>:
    d258:	97d889bc 3c9cd2b2 d5a8a733 3949f623     .......<3...#.I9
    d268:	44f4a73d 32a50ffd cf8c979d 255bba08     =..D...2......[%
    d278:	64ac6f43 0ac80628                       Co.d(...

0000d280 <blanks.3882>:
    d280:	20202020 20202020 20202020 20202020                     

0000d290 <zeroes.3883>:
    d290:	30303030 30303030 30303030 30303030     0000000000000000
